ARM GAS  C:\Users\vct344\AppData\Local\Temp\ccePc7Ac.s 			page 1


   1              		.cpu cortex-m3
   2              		.arch armv7-m
   3              		.fpu softvfp
   4              		.eabi_attribute 20, 1
   5              		.eabi_attribute 21, 1
   6              		.eabi_attribute 23, 3
   7              		.eabi_attribute 24, 1
   8              		.eabi_attribute 25, 1
   9              		.eabi_attribute 26, 1
  10              		.eabi_attribute 30, 6
  11              		.eabi_attribute 34, 1
  12              		.eabi_attribute 18, 4
  13              		.file	"lis2dw12_reg.c"
  14              		.text
  15              	.Ltext0:
  16              		.cfi_sections	.debug_frame
  17              		.file 1 "Core/Src/lis2dw12_reg.c"
  18              		.section	.text.lis2dw12_read_reg,"ax",%progbits
  19              		.align	1
  20              		.weak	lis2dw12_read_reg
  21              		.syntax unified
  22              		.thumb
  23              		.thumb_func
  25              	lis2dw12_read_reg:
  26              	.LFB0:
   1:Core/Src/lis2dw12_reg.c **** /**
   2:Core/Src/lis2dw12_reg.c ****   ******************************************************************************
   3:Core/Src/lis2dw12_reg.c ****   * @file    lis2dw12_reg.c
   4:Core/Src/lis2dw12_reg.c ****   * @author  Sensors Software Solution Team
   5:Core/Src/lis2dw12_reg.c ****   * @brief   LIS2DW12 driver file
   6:Core/Src/lis2dw12_reg.c ****   ******************************************************************************
   7:Core/Src/lis2dw12_reg.c ****   * @attention
   8:Core/Src/lis2dw12_reg.c ****   *int
   9:Core/Src/lis2dw12_reg.c ****   * <h2><center>&copy; Copyright (c) 2021 STMicroelectronics.
  10:Core/Src/lis2dw12_reg.c ****   * All rights reserved.</center></h2>
  11:Core/Src/lis2dw12_reg.c ****   *
  12:Core/Src/lis2dw12_reg.c ****   * This software component is licensed by ST under BSD 3-Clause license,
  13:Core/Src/lis2dw12_reg.c ****   * the "License"; You may not use this file except in compliance with the
  14:Core/Src/lis2dw12_reg.c ****   * License. You may obtain a copy of the License at:
  15:Core/Src/lis2dw12_reg.c ****   *                        opensource.org/licenses/BSD-3-Clause
  16:Core/Src/lis2dw12_reg.c ****   *
  17:Core/Src/lis2dw12_reg.c ****   ******************************************************************************
  18:Core/Src/lis2dw12_reg.c ****   */
  19:Core/Src/lis2dw12_reg.c **** 
  20:Core/Src/lis2dw12_reg.c **** #include "lis2dw12_reg.h"
  21:Core/Src/lis2dw12_reg.c **** 
  22:Core/Src/lis2dw12_reg.c **** /**
  23:Core/Src/lis2dw12_reg.c ****   * @defgroup  LIS2DW12
  24:Core/Src/lis2dw12_reg.c ****   * @brief     This file provides a set of functions needed to drive the
  25:Core/Src/lis2dw12_reg.c ****   *            lis2dw12 enhanced inertial module.
  26:Core/Src/lis2dw12_reg.c ****   * @{
  27:Core/Src/lis2dw12_reg.c ****   *
  28:Core/Src/lis2dw12_reg.c ****   */
  29:Core/Src/lis2dw12_reg.c **** 
  30:Core/Src/lis2dw12_reg.c **** /**
  31:Core/Src/lis2dw12_reg.c ****   * @defgroup  LIS2DW12_Interfaces_Functions
  32:Core/Src/lis2dw12_reg.c ****   * @brief     This section provide a set of functions used to read and
ARM GAS  C:\Users\vct344\AppData\Local\Temp\ccePc7Ac.s 			page 2


  33:Core/Src/lis2dw12_reg.c ****   *            write a generic register of the device.
  34:Core/Src/lis2dw12_reg.c ****   *            MANDATORY: return 0 -> no Error.
  35:Core/Src/lis2dw12_reg.c ****   * @{
  36:Core/Src/lis2dw12_reg.c ****   *
  37:Core/Src/lis2dw12_reg.c ****   */
  38:Core/Src/lis2dw12_reg.c **** 
  39:Core/Src/lis2dw12_reg.c **** /**
  40:Core/Src/lis2dw12_reg.c ****   * @brief  Read generic device register
  41:Core/Src/lis2dw12_reg.c ****   *
  42:Core/Src/lis2dw12_reg.c ****   * @param  ctx   read / write interface definitions(ptr)
  43:Core/Src/lis2dw12_reg.c ****   * @param  reg   register to read
  44:Core/Src/lis2dw12_reg.c ****   * @param  data  pointer to buffer that store the data read(ptr)
  45:Core/Src/lis2dw12_reg.c ****   * @param  len   number of consecutive register to read
  46:Core/Src/lis2dw12_reg.c ****   * @retval          interface status (MANDATORY: return 0 -> no Error)
  47:Core/Src/lis2dw12_reg.c ****   *
  48:Core/Src/lis2dw12_reg.c ****   */
  49:Core/Src/lis2dw12_reg.c **** int32_t __weak lis2dw12_read_reg(const stmdev_ctx_t *ctx, uint8_t reg,
  50:Core/Src/lis2dw12_reg.c ****                                  uint8_t *data,
  51:Core/Src/lis2dw12_reg.c ****                                  uint16_t len)
  52:Core/Src/lis2dw12_reg.c **** {
  27              		.loc 1 52 1
  28              		.cfi_startproc
  29              		@ args = 0, pretend = 0, frame = 24
  30              		@ frame_needed = 1, uses_anonymous_args = 0
  31 0000 90B5     		push	{r4, r7, lr}
  32              	.LCFI0:
  33              		.cfi_def_cfa_offset 12
  34              		.cfi_offset 4, -12
  35              		.cfi_offset 7, -8
  36              		.cfi_offset 14, -4
  37 0002 87B0     		sub	sp, sp, #28
  38              	.LCFI1:
  39              		.cfi_def_cfa_offset 40
  40 0004 00AF     		add	r7, sp, #0
  41              	.LCFI2:
  42              		.cfi_def_cfa_register 7
  43 0006 F860     		str	r0, [r7, #12]
  44 0008 7A60     		str	r2, [r7, #4]
  45 000a 1A46     		mov	r2, r3
  46 000c 0B46     		mov	r3, r1
  47 000e FB72     		strb	r3, [r7, #11]
  48 0010 1346     		mov	r3, r2	@ movhi
  49 0012 3B81     		strh	r3, [r7, #8]	@ movhi
  53:Core/Src/lis2dw12_reg.c ****   int32_t ret;
  54:Core/Src/lis2dw12_reg.c **** 
  55:Core/Src/lis2dw12_reg.c ****   if (ctx == NULL)
  50              		.loc 1 55 6
  51 0014 FB68     		ldr	r3, [r7, #12]
  52 0016 002B     		cmp	r3, #0
  53 0018 02D1     		bne	.L2
  56:Core/Src/lis2dw12_reg.c ****   {
  57:Core/Src/lis2dw12_reg.c ****     return -1;
  54              		.loc 1 57 12
  55 001a 4FF0FF33 		mov	r3, #-1
  56 001e 09E0     		b	.L3
  57              	.L2:
  58:Core/Src/lis2dw12_reg.c ****   }
ARM GAS  C:\Users\vct344\AppData\Local\Temp\ccePc7Ac.s 			page 3


  59:Core/Src/lis2dw12_reg.c **** 
  60:Core/Src/lis2dw12_reg.c ****   ret = ctx->read_reg(ctx->handle, reg, data, len);
  58              		.loc 1 60 12
  59 0020 FB68     		ldr	r3, [r7, #12]
  60 0022 5C68     		ldr	r4, [r3, #4]
  61              		.loc 1 60 26
  62 0024 FB68     		ldr	r3, [r7, #12]
  63 0026 D868     		ldr	r0, [r3, #12]
  64              		.loc 1 60 9
  65 0028 3B89     		ldrh	r3, [r7, #8]
  66 002a F97A     		ldrb	r1, [r7, #11]	@ zero_extendqisi2
  67 002c 7A68     		ldr	r2, [r7, #4]
  68 002e A047     		blx	r4
  69              	.LVL0:
  70 0030 7861     		str	r0, [r7, #20]
  61:Core/Src/lis2dw12_reg.c **** 
  62:Core/Src/lis2dw12_reg.c ****   return ret;
  71              		.loc 1 62 10
  72 0032 7B69     		ldr	r3, [r7, #20]
  73              	.L3:
  63:Core/Src/lis2dw12_reg.c **** }
  74              		.loc 1 63 1
  75 0034 1846     		mov	r0, r3
  76 0036 1C37     		adds	r7, r7, #28
  77              	.LCFI3:
  78              		.cfi_def_cfa_offset 12
  79 0038 BD46     		mov	sp, r7
  80              	.LCFI4:
  81              		.cfi_def_cfa_register 13
  82              		@ sp needed
  83 003a 90BD     		pop	{r4, r7, pc}
  84              		.cfi_endproc
  85              	.LFE0:
  87              		.section	.text.lis2dw12_write_reg,"ax",%progbits
  88              		.align	1
  89              		.weak	lis2dw12_write_reg
  90              		.syntax unified
  91              		.thumb
  92              		.thumb_func
  94              	lis2dw12_write_reg:
  95              	.LFB1:
  64:Core/Src/lis2dw12_reg.c **** 
  65:Core/Src/lis2dw12_reg.c **** /**
  66:Core/Src/lis2dw12_reg.c ****   * @brief  Write generic device register
  67:Core/Src/lis2dw12_reg.c ****   *
  68:Core/Src/lis2dw12_reg.c ****   * @param  ctx   read / write interface definitions(ptr)
  69:Core/Src/lis2dw12_reg.c ****   * @param  reg   register to write
  70:Core/Src/lis2dw12_reg.c ****   * @param  data  pointer to data to write in register reg(ptr)
  71:Core/Src/lis2dw12_reg.c ****   * @param  len   number of consecutive register to write
  72:Core/Src/lis2dw12_reg.c ****   * @retval          interface status (MANDATORY: return 0 -> no Error)
  73:Core/Src/lis2dw12_reg.c ****   *
  74:Core/Src/lis2dw12_reg.c ****   */
  75:Core/Src/lis2dw12_reg.c **** int32_t __weak lis2dw12_write_reg(const stmdev_ctx_t *ctx, uint8_t reg,
  76:Core/Src/lis2dw12_reg.c ****                                   uint8_t *data,
  77:Core/Src/lis2dw12_reg.c ****                                   uint16_t len)
  78:Core/Src/lis2dw12_reg.c **** {
  96              		.loc 1 78 1
ARM GAS  C:\Users\vct344\AppData\Local\Temp\ccePc7Ac.s 			page 4


  97              		.cfi_startproc
  98              		@ args = 0, pretend = 0, frame = 24
  99              		@ frame_needed = 1, uses_anonymous_args = 0
 100 0000 90B5     		push	{r4, r7, lr}
 101              	.LCFI5:
 102              		.cfi_def_cfa_offset 12
 103              		.cfi_offset 4, -12
 104              		.cfi_offset 7, -8
 105              		.cfi_offset 14, -4
 106 0002 87B0     		sub	sp, sp, #28
 107              	.LCFI6:
 108              		.cfi_def_cfa_offset 40
 109 0004 00AF     		add	r7, sp, #0
 110              	.LCFI7:
 111              		.cfi_def_cfa_register 7
 112 0006 F860     		str	r0, [r7, #12]
 113 0008 7A60     		str	r2, [r7, #4]
 114 000a 1A46     		mov	r2, r3
 115 000c 0B46     		mov	r3, r1
 116 000e FB72     		strb	r3, [r7, #11]
 117 0010 1346     		mov	r3, r2	@ movhi
 118 0012 3B81     		strh	r3, [r7, #8]	@ movhi
  79:Core/Src/lis2dw12_reg.c ****   int32_t ret;
  80:Core/Src/lis2dw12_reg.c **** 
  81:Core/Src/lis2dw12_reg.c ****   if (ctx == NULL)
 119              		.loc 1 81 6
 120 0014 FB68     		ldr	r3, [r7, #12]
 121 0016 002B     		cmp	r3, #0
 122 0018 02D1     		bne	.L5
  82:Core/Src/lis2dw12_reg.c ****   {
  83:Core/Src/lis2dw12_reg.c ****     return -1;
 123              		.loc 1 83 12
 124 001a 4FF0FF33 		mov	r3, #-1
 125 001e 09E0     		b	.L6
 126              	.L5:
  84:Core/Src/lis2dw12_reg.c ****   }
  85:Core/Src/lis2dw12_reg.c **** 
  86:Core/Src/lis2dw12_reg.c ****   ret = ctx->write_reg(ctx->handle, reg, data, len);
 127              		.loc 1 86 12
 128 0020 FB68     		ldr	r3, [r7, #12]
 129 0022 1C68     		ldr	r4, [r3]
 130              		.loc 1 86 27
 131 0024 FB68     		ldr	r3, [r7, #12]
 132 0026 D868     		ldr	r0, [r3, #12]
 133              		.loc 1 86 9
 134 0028 3B89     		ldrh	r3, [r7, #8]
 135 002a F97A     		ldrb	r1, [r7, #11]	@ zero_extendqisi2
 136 002c 7A68     		ldr	r2, [r7, #4]
 137 002e A047     		blx	r4
 138              	.LVL1:
 139 0030 7861     		str	r0, [r7, #20]
  87:Core/Src/lis2dw12_reg.c **** 
  88:Core/Src/lis2dw12_reg.c ****   return ret;
 140              		.loc 1 88 10
 141 0032 7B69     		ldr	r3, [r7, #20]
 142              	.L6:
  89:Core/Src/lis2dw12_reg.c **** }
ARM GAS  C:\Users\vct344\AppData\Local\Temp\ccePc7Ac.s 			page 5


 143              		.loc 1 89 1
 144 0034 1846     		mov	r0, r3
 145 0036 1C37     		adds	r7, r7, #28
 146              	.LCFI8:
 147              		.cfi_def_cfa_offset 12
 148 0038 BD46     		mov	sp, r7
 149              	.LCFI9:
 150              		.cfi_def_cfa_register 13
 151              		@ sp needed
 152 003a 90BD     		pop	{r4, r7, pc}
 153              		.cfi_endproc
 154              	.LFE1:
 156              		.global	__aeabi_i2f
 157              		.global	__aeabi_fmul
 158              		.section	.text.lis2dw12_from_fs2_to_mg,"ax",%progbits
 159              		.align	1
 160              		.global	lis2dw12_from_fs2_to_mg
 161              		.syntax unified
 162              		.thumb
 163              		.thumb_func
 165              	lis2dw12_from_fs2_to_mg:
 166              	.LFB2:
  90:Core/Src/lis2dw12_reg.c **** 
  91:Core/Src/lis2dw12_reg.c **** /**
  92:Core/Src/lis2dw12_reg.c ****   * @}
  93:Core/Src/lis2dw12_reg.c ****   *
  94:Core/Src/lis2dw12_reg.c ****   */
  95:Core/Src/lis2dw12_reg.c **** 
  96:Core/Src/lis2dw12_reg.c **** /**
  97:Core/Src/lis2dw12_reg.c ****   * @defgroup    LIS2DW12_Sensitivity
  98:Core/Src/lis2dw12_reg.c ****   * @brief       These functions convert raw-data into engineering units.
  99:Core/Src/lis2dw12_reg.c ****   * @{
 100:Core/Src/lis2dw12_reg.c ****   *
 101:Core/Src/lis2dw12_reg.c ****   */
 102:Core/Src/lis2dw12_reg.c **** 
 103:Core/Src/lis2dw12_reg.c **** float_t lis2dw12_from_fs2_to_mg(int16_t lsb)
 104:Core/Src/lis2dw12_reg.c **** {
 167              		.loc 1 104 1
 168              		.cfi_startproc
 169              		@ args = 0, pretend = 0, frame = 8
 170              		@ frame_needed = 1, uses_anonymous_args = 0
 171 0000 80B5     		push	{r7, lr}
 172              	.LCFI10:
 173              		.cfi_def_cfa_offset 8
 174              		.cfi_offset 7, -8
 175              		.cfi_offset 14, -4
 176 0002 82B0     		sub	sp, sp, #8
 177              	.LCFI11:
 178              		.cfi_def_cfa_offset 16
 179 0004 00AF     		add	r7, sp, #0
 180              	.LCFI12:
 181              		.cfi_def_cfa_register 7
 182 0006 0346     		mov	r3, r0
 183 0008 FB80     		strh	r3, [r7, #6]	@ movhi
 105:Core/Src/lis2dw12_reg.c ****   return ((float_t)lsb) * 0.061f;
 184              		.loc 1 105 11
 185 000a B7F90630 		ldrsh	r3, [r7, #6]
ARM GAS  C:\Users\vct344\AppData\Local\Temp\ccePc7Ac.s 			page 6


 186 000e 1846     		mov	r0, r3
 187 0010 FFF7FEFF 		bl	__aeabi_i2f
 188 0014 0346     		mov	r3, r0
 189              		.loc 1 105 25
 190 0016 0449     		ldr	r1, .L9
 191 0018 1846     		mov	r0, r3
 192 001a FFF7FEFF 		bl	__aeabi_fmul
 193 001e 0346     		mov	r3, r0
 106:Core/Src/lis2dw12_reg.c **** }
 194              		.loc 1 106 1
 195 0020 1846     		mov	r0, r3
 196 0022 0837     		adds	r7, r7, #8
 197              	.LCFI13:
 198              		.cfi_def_cfa_offset 8
 199 0024 BD46     		mov	sp, r7
 200              	.LCFI14:
 201              		.cfi_def_cfa_register 13
 202              		@ sp needed
 203 0026 80BD     		pop	{r7, pc}
 204              	.L10:
 205              		.align	2
 206              	.L9:
 207 0028 23DB793D 		.word	1031396131
 208              		.cfi_endproc
 209              	.LFE2:
 211              		.section	.text.lis2dw12_from_fs4_to_mg,"ax",%progbits
 212              		.align	1
 213              		.global	lis2dw12_from_fs4_to_mg
 214              		.syntax unified
 215              		.thumb
 216              		.thumb_func
 218              	lis2dw12_from_fs4_to_mg:
 219              	.LFB3:
 107:Core/Src/lis2dw12_reg.c **** 
 108:Core/Src/lis2dw12_reg.c **** float_t lis2dw12_from_fs4_to_mg(int16_t lsb)
 109:Core/Src/lis2dw12_reg.c **** {
 220              		.loc 1 109 1
 221              		.cfi_startproc
 222              		@ args = 0, pretend = 0, frame = 8
 223              		@ frame_needed = 1, uses_anonymous_args = 0
 224 0000 80B5     		push	{r7, lr}
 225              	.LCFI15:
 226              		.cfi_def_cfa_offset 8
 227              		.cfi_offset 7, -8
 228              		.cfi_offset 14, -4
 229 0002 82B0     		sub	sp, sp, #8
 230              	.LCFI16:
 231              		.cfi_def_cfa_offset 16
 232 0004 00AF     		add	r7, sp, #0
 233              	.LCFI17:
 234              		.cfi_def_cfa_register 7
 235 0006 0346     		mov	r3, r0
 236 0008 FB80     		strh	r3, [r7, #6]	@ movhi
 110:Core/Src/lis2dw12_reg.c ****   return ((float_t)lsb) * 0.122f;
 237              		.loc 1 110 11
 238 000a B7F90630 		ldrsh	r3, [r7, #6]
 239 000e 1846     		mov	r0, r3
ARM GAS  C:\Users\vct344\AppData\Local\Temp\ccePc7Ac.s 			page 7


 240 0010 FFF7FEFF 		bl	__aeabi_i2f
 241 0014 0346     		mov	r3, r0
 242              		.loc 1 110 25
 243 0016 0449     		ldr	r1, .L13
 244 0018 1846     		mov	r0, r3
 245 001a FFF7FEFF 		bl	__aeabi_fmul
 246 001e 0346     		mov	r3, r0
 111:Core/Src/lis2dw12_reg.c **** }
 247              		.loc 1 111 1
 248 0020 1846     		mov	r0, r3
 249 0022 0837     		adds	r7, r7, #8
 250              	.LCFI18:
 251              		.cfi_def_cfa_offset 8
 252 0024 BD46     		mov	sp, r7
 253              	.LCFI19:
 254              		.cfi_def_cfa_register 13
 255              		@ sp needed
 256 0026 80BD     		pop	{r7, pc}
 257              	.L14:
 258              		.align	2
 259              	.L13:
 260 0028 23DBF93D 		.word	1039784739
 261              		.cfi_endproc
 262              	.LFE3:
 264              		.section	.text.lis2dw12_from_fs8_to_mg,"ax",%progbits
 265              		.align	1
 266              		.global	lis2dw12_from_fs8_to_mg
 267              		.syntax unified
 268              		.thumb
 269              		.thumb_func
 271              	lis2dw12_from_fs8_to_mg:
 272              	.LFB4:
 112:Core/Src/lis2dw12_reg.c **** 
 113:Core/Src/lis2dw12_reg.c **** float_t lis2dw12_from_fs8_to_mg(int16_t lsb)
 114:Core/Src/lis2dw12_reg.c **** {
 273              		.loc 1 114 1
 274              		.cfi_startproc
 275              		@ args = 0, pretend = 0, frame = 8
 276              		@ frame_needed = 1, uses_anonymous_args = 0
 277 0000 80B5     		push	{r7, lr}
 278              	.LCFI20:
 279              		.cfi_def_cfa_offset 8
 280              		.cfi_offset 7, -8
 281              		.cfi_offset 14, -4
 282 0002 82B0     		sub	sp, sp, #8
 283              	.LCFI21:
 284              		.cfi_def_cfa_offset 16
 285 0004 00AF     		add	r7, sp, #0
 286              	.LCFI22:
 287              		.cfi_def_cfa_register 7
 288 0006 0346     		mov	r3, r0
 289 0008 FB80     		strh	r3, [r7, #6]	@ movhi
 115:Core/Src/lis2dw12_reg.c ****   return ((float_t)lsb) * 0.244f;
 290              		.loc 1 115 11
 291 000a B7F90630 		ldrsh	r3, [r7, #6]
 292 000e 1846     		mov	r0, r3
 293 0010 FFF7FEFF 		bl	__aeabi_i2f
ARM GAS  C:\Users\vct344\AppData\Local\Temp\ccePc7Ac.s 			page 8


 294 0014 0346     		mov	r3, r0
 295              		.loc 1 115 25
 296 0016 0449     		ldr	r1, .L17
 297 0018 1846     		mov	r0, r3
 298 001a FFF7FEFF 		bl	__aeabi_fmul
 299 001e 0346     		mov	r3, r0
 116:Core/Src/lis2dw12_reg.c **** }
 300              		.loc 1 116 1
 301 0020 1846     		mov	r0, r3
 302 0022 0837     		adds	r7, r7, #8
 303              	.LCFI23:
 304              		.cfi_def_cfa_offset 8
 305 0024 BD46     		mov	sp, r7
 306              	.LCFI24:
 307              		.cfi_def_cfa_register 13
 308              		@ sp needed
 309 0026 80BD     		pop	{r7, pc}
 310              	.L18:
 311              		.align	2
 312              	.L17:
 313 0028 23DB793E 		.word	1048173347
 314              		.cfi_endproc
 315              	.LFE4:
 317              		.section	.text.lis2dw12_from_fs16_to_mg,"ax",%progbits
 318              		.align	1
 319              		.global	lis2dw12_from_fs16_to_mg
 320              		.syntax unified
 321              		.thumb
 322              		.thumb_func
 324              	lis2dw12_from_fs16_to_mg:
 325              	.LFB5:
 117:Core/Src/lis2dw12_reg.c **** 
 118:Core/Src/lis2dw12_reg.c **** float_t lis2dw12_from_fs16_to_mg(int16_t lsb)
 119:Core/Src/lis2dw12_reg.c **** {
 326              		.loc 1 119 1
 327              		.cfi_startproc
 328              		@ args = 0, pretend = 0, frame = 8
 329              		@ frame_needed = 1, uses_anonymous_args = 0
 330 0000 80B5     		push	{r7, lr}
 331              	.LCFI25:
 332              		.cfi_def_cfa_offset 8
 333              		.cfi_offset 7, -8
 334              		.cfi_offset 14, -4
 335 0002 82B0     		sub	sp, sp, #8
 336              	.LCFI26:
 337              		.cfi_def_cfa_offset 16
 338 0004 00AF     		add	r7, sp, #0
 339              	.LCFI27:
 340              		.cfi_def_cfa_register 7
 341 0006 0346     		mov	r3, r0
 342 0008 FB80     		strh	r3, [r7, #6]	@ movhi
 120:Core/Src/lis2dw12_reg.c ****   return ((float_t)lsb) * 0.488f;
 343              		.loc 1 120 11
 344 000a B7F90630 		ldrsh	r3, [r7, #6]
 345 000e 1846     		mov	r0, r3
 346 0010 FFF7FEFF 		bl	__aeabi_i2f
 347 0014 0346     		mov	r3, r0
ARM GAS  C:\Users\vct344\AppData\Local\Temp\ccePc7Ac.s 			page 9


 348              		.loc 1 120 25
 349 0016 0449     		ldr	r1, .L21
 350 0018 1846     		mov	r0, r3
 351 001a FFF7FEFF 		bl	__aeabi_fmul
 352 001e 0346     		mov	r3, r0
 121:Core/Src/lis2dw12_reg.c **** }
 353              		.loc 1 121 1
 354 0020 1846     		mov	r0, r3
 355 0022 0837     		adds	r7, r7, #8
 356              	.LCFI28:
 357              		.cfi_def_cfa_offset 8
 358 0024 BD46     		mov	sp, r7
 359              	.LCFI29:
 360              		.cfi_def_cfa_register 13
 361              		@ sp needed
 362 0026 80BD     		pop	{r7, pc}
 363              	.L22:
 364              		.align	2
 365              	.L21:
 366 0028 23DBF93E 		.word	1056561955
 367              		.cfi_endproc
 368              	.LFE5:
 370              		.section	.text.lis2dw12_from_fs2_lp1_to_mg,"ax",%progbits
 371              		.align	1
 372              		.global	lis2dw12_from_fs2_lp1_to_mg
 373              		.syntax unified
 374              		.thumb
 375              		.thumb_func
 377              	lis2dw12_from_fs2_lp1_to_mg:
 378              	.LFB6:
 122:Core/Src/lis2dw12_reg.c **** 
 123:Core/Src/lis2dw12_reg.c **** float_t lis2dw12_from_fs2_lp1_to_mg(int16_t lsb)
 124:Core/Src/lis2dw12_reg.c **** {
 379              		.loc 1 124 1
 380              		.cfi_startproc
 381              		@ args = 0, pretend = 0, frame = 8
 382              		@ frame_needed = 1, uses_anonymous_args = 0
 383 0000 80B5     		push	{r7, lr}
 384              	.LCFI30:
 385              		.cfi_def_cfa_offset 8
 386              		.cfi_offset 7, -8
 387              		.cfi_offset 14, -4
 388 0002 82B0     		sub	sp, sp, #8
 389              	.LCFI31:
 390              		.cfi_def_cfa_offset 16
 391 0004 00AF     		add	r7, sp, #0
 392              	.LCFI32:
 393              		.cfi_def_cfa_register 7
 394 0006 0346     		mov	r3, r0
 395 0008 FB80     		strh	r3, [r7, #6]	@ movhi
 125:Core/Src/lis2dw12_reg.c ****   return ((float_t)lsb) * 0.061f;
 396              		.loc 1 125 11
 397 000a B7F90630 		ldrsh	r3, [r7, #6]
 398 000e 1846     		mov	r0, r3
 399 0010 FFF7FEFF 		bl	__aeabi_i2f
 400 0014 0346     		mov	r3, r0
 401              		.loc 1 125 25
ARM GAS  C:\Users\vct344\AppData\Local\Temp\ccePc7Ac.s 			page 10


 402 0016 0449     		ldr	r1, .L25
 403 0018 1846     		mov	r0, r3
 404 001a FFF7FEFF 		bl	__aeabi_fmul
 405 001e 0346     		mov	r3, r0
 126:Core/Src/lis2dw12_reg.c **** }
 406              		.loc 1 126 1
 407 0020 1846     		mov	r0, r3
 408 0022 0837     		adds	r7, r7, #8
 409              	.LCFI33:
 410              		.cfi_def_cfa_offset 8
 411 0024 BD46     		mov	sp, r7
 412              	.LCFI34:
 413              		.cfi_def_cfa_register 13
 414              		@ sp needed
 415 0026 80BD     		pop	{r7, pc}
 416              	.L26:
 417              		.align	2
 418              	.L25:
 419 0028 23DB793D 		.word	1031396131
 420              		.cfi_endproc
 421              	.LFE6:
 423              		.section	.text.lis2dw12_from_fs4_lp1_to_mg,"ax",%progbits
 424              		.align	1
 425              		.global	lis2dw12_from_fs4_lp1_to_mg
 426              		.syntax unified
 427              		.thumb
 428              		.thumb_func
 430              	lis2dw12_from_fs4_lp1_to_mg:
 431              	.LFB7:
 127:Core/Src/lis2dw12_reg.c **** 
 128:Core/Src/lis2dw12_reg.c **** float_t lis2dw12_from_fs4_lp1_to_mg(int16_t lsb)
 129:Core/Src/lis2dw12_reg.c **** {
 432              		.loc 1 129 1
 433              		.cfi_startproc
 434              		@ args = 0, pretend = 0, frame = 8
 435              		@ frame_needed = 1, uses_anonymous_args = 0
 436 0000 80B5     		push	{r7, lr}
 437              	.LCFI35:
 438              		.cfi_def_cfa_offset 8
 439              		.cfi_offset 7, -8
 440              		.cfi_offset 14, -4
 441 0002 82B0     		sub	sp, sp, #8
 442              	.LCFI36:
 443              		.cfi_def_cfa_offset 16
 444 0004 00AF     		add	r7, sp, #0
 445              	.LCFI37:
 446              		.cfi_def_cfa_register 7
 447 0006 0346     		mov	r3, r0
 448 0008 FB80     		strh	r3, [r7, #6]	@ movhi
 130:Core/Src/lis2dw12_reg.c ****   return ((float_t)lsb) * 0.122f;
 449              		.loc 1 130 11
 450 000a B7F90630 		ldrsh	r3, [r7, #6]
 451 000e 1846     		mov	r0, r3
 452 0010 FFF7FEFF 		bl	__aeabi_i2f
 453 0014 0346     		mov	r3, r0
 454              		.loc 1 130 25
 455 0016 0449     		ldr	r1, .L29
ARM GAS  C:\Users\vct344\AppData\Local\Temp\ccePc7Ac.s 			page 11


 456 0018 1846     		mov	r0, r3
 457 001a FFF7FEFF 		bl	__aeabi_fmul
 458 001e 0346     		mov	r3, r0
 131:Core/Src/lis2dw12_reg.c **** }
 459              		.loc 1 131 1
 460 0020 1846     		mov	r0, r3
 461 0022 0837     		adds	r7, r7, #8
 462              	.LCFI38:
 463              		.cfi_def_cfa_offset 8
 464 0024 BD46     		mov	sp, r7
 465              	.LCFI39:
 466              		.cfi_def_cfa_register 13
 467              		@ sp needed
 468 0026 80BD     		pop	{r7, pc}
 469              	.L30:
 470              		.align	2
 471              	.L29:
 472 0028 23DBF93D 		.word	1039784739
 473              		.cfi_endproc
 474              	.LFE7:
 476              		.section	.text.lis2dw12_from_fs8_lp1_to_mg,"ax",%progbits
 477              		.align	1
 478              		.global	lis2dw12_from_fs8_lp1_to_mg
 479              		.syntax unified
 480              		.thumb
 481              		.thumb_func
 483              	lis2dw12_from_fs8_lp1_to_mg:
 484              	.LFB8:
 132:Core/Src/lis2dw12_reg.c **** 
 133:Core/Src/lis2dw12_reg.c **** float_t lis2dw12_from_fs8_lp1_to_mg(int16_t lsb)
 134:Core/Src/lis2dw12_reg.c **** {
 485              		.loc 1 134 1
 486              		.cfi_startproc
 487              		@ args = 0, pretend = 0, frame = 8
 488              		@ frame_needed = 1, uses_anonymous_args = 0
 489 0000 80B5     		push	{r7, lr}
 490              	.LCFI40:
 491              		.cfi_def_cfa_offset 8
 492              		.cfi_offset 7, -8
 493              		.cfi_offset 14, -4
 494 0002 82B0     		sub	sp, sp, #8
 495              	.LCFI41:
 496              		.cfi_def_cfa_offset 16
 497 0004 00AF     		add	r7, sp, #0
 498              	.LCFI42:
 499              		.cfi_def_cfa_register 7
 500 0006 0346     		mov	r3, r0
 501 0008 FB80     		strh	r3, [r7, #6]	@ movhi
 135:Core/Src/lis2dw12_reg.c ****   return ((float_t)lsb) * 0.244f;
 502              		.loc 1 135 11
 503 000a B7F90630 		ldrsh	r3, [r7, #6]
 504 000e 1846     		mov	r0, r3
 505 0010 FFF7FEFF 		bl	__aeabi_i2f
 506 0014 0346     		mov	r3, r0
 507              		.loc 1 135 25
 508 0016 0449     		ldr	r1, .L33
 509 0018 1846     		mov	r0, r3
ARM GAS  C:\Users\vct344\AppData\Local\Temp\ccePc7Ac.s 			page 12


 510 001a FFF7FEFF 		bl	__aeabi_fmul
 511 001e 0346     		mov	r3, r0
 136:Core/Src/lis2dw12_reg.c **** }
 512              		.loc 1 136 1
 513 0020 1846     		mov	r0, r3
 514 0022 0837     		adds	r7, r7, #8
 515              	.LCFI43:
 516              		.cfi_def_cfa_offset 8
 517 0024 BD46     		mov	sp, r7
 518              	.LCFI44:
 519              		.cfi_def_cfa_register 13
 520              		@ sp needed
 521 0026 80BD     		pop	{r7, pc}
 522              	.L34:
 523              		.align	2
 524              	.L33:
 525 0028 23DB793E 		.word	1048173347
 526              		.cfi_endproc
 527              	.LFE8:
 529              		.section	.text.lis2dw12_from_fs16_lp1_to_mg,"ax",%progbits
 530              		.align	1
 531              		.global	lis2dw12_from_fs16_lp1_to_mg
 532              		.syntax unified
 533              		.thumb
 534              		.thumb_func
 536              	lis2dw12_from_fs16_lp1_to_mg:
 537              	.LFB9:
 137:Core/Src/lis2dw12_reg.c **** 
 138:Core/Src/lis2dw12_reg.c **** float_t lis2dw12_from_fs16_lp1_to_mg(int16_t lsb)
 139:Core/Src/lis2dw12_reg.c **** {
 538              		.loc 1 139 1
 539              		.cfi_startproc
 540              		@ args = 0, pretend = 0, frame = 8
 541              		@ frame_needed = 1, uses_anonymous_args = 0
 542 0000 80B5     		push	{r7, lr}
 543              	.LCFI45:
 544              		.cfi_def_cfa_offset 8
 545              		.cfi_offset 7, -8
 546              		.cfi_offset 14, -4
 547 0002 82B0     		sub	sp, sp, #8
 548              	.LCFI46:
 549              		.cfi_def_cfa_offset 16
 550 0004 00AF     		add	r7, sp, #0
 551              	.LCFI47:
 552              		.cfi_def_cfa_register 7
 553 0006 0346     		mov	r3, r0
 554 0008 FB80     		strh	r3, [r7, #6]	@ movhi
 140:Core/Src/lis2dw12_reg.c ****   return ((float_t)lsb) * 0.488f;
 555              		.loc 1 140 11
 556 000a B7F90630 		ldrsh	r3, [r7, #6]
 557 000e 1846     		mov	r0, r3
 558 0010 FFF7FEFF 		bl	__aeabi_i2f
 559 0014 0346     		mov	r3, r0
 560              		.loc 1 140 25
 561 0016 0449     		ldr	r1, .L37
 562 0018 1846     		mov	r0, r3
 563 001a FFF7FEFF 		bl	__aeabi_fmul
ARM GAS  C:\Users\vct344\AppData\Local\Temp\ccePc7Ac.s 			page 13


 564 001e 0346     		mov	r3, r0
 141:Core/Src/lis2dw12_reg.c **** }
 565              		.loc 1 141 1
 566 0020 1846     		mov	r0, r3
 567 0022 0837     		adds	r7, r7, #8
 568              	.LCFI48:
 569              		.cfi_def_cfa_offset 8
 570 0024 BD46     		mov	sp, r7
 571              	.LCFI49:
 572              		.cfi_def_cfa_register 13
 573              		@ sp needed
 574 0026 80BD     		pop	{r7, pc}
 575              	.L38:
 576              		.align	2
 577              	.L37:
 578 0028 23DBF93E 		.word	1056561955
 579              		.cfi_endproc
 580              	.LFE9:
 582              		.global	__aeabi_fdiv
 583              		.global	__aeabi_fadd
 584              		.section	.text.lis2dw12_from_lsb_to_celsius,"ax",%progbits
 585              		.align	1
 586              		.global	lis2dw12_from_lsb_to_celsius
 587              		.syntax unified
 588              		.thumb
 589              		.thumb_func
 591              	lis2dw12_from_lsb_to_celsius:
 592              	.LFB10:
 142:Core/Src/lis2dw12_reg.c **** 
 143:Core/Src/lis2dw12_reg.c **** float_t lis2dw12_from_lsb_to_celsius(int16_t lsb)
 144:Core/Src/lis2dw12_reg.c **** {
 593              		.loc 1 144 1
 594              		.cfi_startproc
 595              		@ args = 0, pretend = 0, frame = 8
 596              		@ frame_needed = 1, uses_anonymous_args = 0
 597 0000 80B5     		push	{r7, lr}
 598              	.LCFI50:
 599              		.cfi_def_cfa_offset 8
 600              		.cfi_offset 7, -8
 601              		.cfi_offset 14, -4
 602 0002 82B0     		sub	sp, sp, #8
 603              	.LCFI51:
 604              		.cfi_def_cfa_offset 16
 605 0004 00AF     		add	r7, sp, #0
 606              	.LCFI52:
 607              		.cfi_def_cfa_register 7
 608 0006 0346     		mov	r3, r0
 609 0008 FB80     		strh	r3, [r7, #6]	@ movhi
 145:Core/Src/lis2dw12_reg.c ****   return (((float_t)lsb / 256.0f) + 25.0f);
 610              		.loc 1 145 12
 611 000a B7F90630 		ldrsh	r3, [r7, #6]
 612 000e 1846     		mov	r0, r3
 613 0010 FFF7FEFF 		bl	__aeabi_i2f
 614 0014 0346     		mov	r3, r0
 615              		.loc 1 145 25
 616 0016 4FF08741 		mov	r1, #1132462080
 617 001a 1846     		mov	r0, r3
ARM GAS  C:\Users\vct344\AppData\Local\Temp\ccePc7Ac.s 			page 14


 618 001c FFF7FEFF 		bl	__aeabi_fdiv
 619 0020 0346     		mov	r3, r0
 620              		.loc 1 145 35
 621 0022 0449     		ldr	r1, .L41
 622 0024 1846     		mov	r0, r3
 623 0026 FFF7FEFF 		bl	__aeabi_fadd
 624 002a 0346     		mov	r3, r0
 146:Core/Src/lis2dw12_reg.c **** }
 625              		.loc 1 146 1
 626 002c 1846     		mov	r0, r3
 627 002e 0837     		adds	r7, r7, #8
 628              	.LCFI53:
 629              		.cfi_def_cfa_offset 8
 630 0030 BD46     		mov	sp, r7
 631              	.LCFI54:
 632              		.cfi_def_cfa_register 13
 633              		@ sp needed
 634 0032 80BD     		pop	{r7, pc}
 635              	.L42:
 636              		.align	2
 637              	.L41:
 638 0034 0000C841 		.word	1103626240
 639              		.cfi_endproc
 640              	.LFE10:
 642              		.section	.text.lis2dw12_power_mode_set,"ax",%progbits
 643              		.align	1
 644              		.global	lis2dw12_power_mode_set
 645              		.syntax unified
 646              		.thumb
 647              		.thumb_func
 649              	lis2dw12_power_mode_set:
 650              	.LFB11:
 147:Core/Src/lis2dw12_reg.c **** 
 148:Core/Src/lis2dw12_reg.c **** /**
 149:Core/Src/lis2dw12_reg.c ****   * @}
 150:Core/Src/lis2dw12_reg.c ****   *
 151:Core/Src/lis2dw12_reg.c ****   */
 152:Core/Src/lis2dw12_reg.c **** 
 153:Core/Src/lis2dw12_reg.c **** /**
 154:Core/Src/lis2dw12_reg.c ****   * @defgroup  LIS2DW12_Data_Generation
 155:Core/Src/lis2dw12_reg.c ****   * @brief     This section groups all the functions concerning
 156:Core/Src/lis2dw12_reg.c ****   *            data generation
 157:Core/Src/lis2dw12_reg.c ****   * @{
 158:Core/Src/lis2dw12_reg.c ****   *
 159:Core/Src/lis2dw12_reg.c ****   */
 160:Core/Src/lis2dw12_reg.c **** 
 161:Core/Src/lis2dw12_reg.c **** /**
 162:Core/Src/lis2dw12_reg.c ****   * @brief  Select accelerometer operating modes.[set]
 163:Core/Src/lis2dw12_reg.c ****   *
 164:Core/Src/lis2dw12_reg.c ****   * @param  ctx      read / write interface definitions
 165:Core/Src/lis2dw12_reg.c ****   * @param  val      change the values of mode / lp_mode in reg CTRL1
 166:Core/Src/lis2dw12_reg.c ****   *                  and low_noise in reg CTRL6
 167:Core/Src/lis2dw12_reg.c ****   * @retval          interface status (MANDATORY: return 0 -> no Error)
 168:Core/Src/lis2dw12_reg.c ****   *
 169:Core/Src/lis2dw12_reg.c ****   */
 170:Core/Src/lis2dw12_reg.c **** int32_t lis2dw12_power_mode_set(const stmdev_ctx_t *ctx,
 171:Core/Src/lis2dw12_reg.c ****                                 lis2dw12_mode_t val)
ARM GAS  C:\Users\vct344\AppData\Local\Temp\ccePc7Ac.s 			page 15


 172:Core/Src/lis2dw12_reg.c **** {
 651              		.loc 1 172 1
 652              		.cfi_startproc
 653              		@ args = 0, pretend = 0, frame = 24
 654              		@ frame_needed = 1, uses_anonymous_args = 0
 655 0000 80B5     		push	{r7, lr}
 656              	.LCFI55:
 657              		.cfi_def_cfa_offset 8
 658              		.cfi_offset 7, -8
 659              		.cfi_offset 14, -4
 660 0002 86B0     		sub	sp, sp, #24
 661              	.LCFI56:
 662              		.cfi_def_cfa_offset 32
 663 0004 00AF     		add	r7, sp, #0
 664              	.LCFI57:
 665              		.cfi_def_cfa_register 7
 666 0006 7860     		str	r0, [r7, #4]
 667 0008 0B46     		mov	r3, r1
 668 000a FB70     		strb	r3, [r7, #3]
 173:Core/Src/lis2dw12_reg.c ****   lis2dw12_ctrl1_t ctrl1;
 174:Core/Src/lis2dw12_reg.c ****   lis2dw12_ctrl6_t ctrl6;
 175:Core/Src/lis2dw12_reg.c ****   int32_t ret;
 176:Core/Src/lis2dw12_reg.c **** 
 177:Core/Src/lis2dw12_reg.c ****   ret = lis2dw12_read_reg(ctx, LIS2DW12_CTRL1, (uint8_t *) &ctrl1, 1);
 669              		.loc 1 177 9
 670 000c 07F11002 		add	r2, r7, #16
 671 0010 0123     		movs	r3, #1
 672 0012 2021     		movs	r1, #32
 673 0014 7868     		ldr	r0, [r7, #4]
 674 0016 FFF7FEFF 		bl	lis2dw12_read_reg
 675 001a 7861     		str	r0, [r7, #20]
 178:Core/Src/lis2dw12_reg.c **** 
 179:Core/Src/lis2dw12_reg.c ****   if (ret == 0)
 676              		.loc 1 179 6
 677 001c 7B69     		ldr	r3, [r7, #20]
 678 001e 002B     		cmp	r3, #0
 679 0020 18D1     		bne	.L44
 180:Core/Src/lis2dw12_reg.c ****   {
 181:Core/Src/lis2dw12_reg.c ****     ctrl1.mode = ((uint8_t) val & 0x0CU) >> 2;
 680              		.loc 1 181 42
 681 0022 FB78     		ldrb	r3, [r7, #3]	@ zero_extendqisi2
 682 0024 9B08     		lsrs	r3, r3, #2
 683 0026 03F00303 		and	r3, r3, #3
 684 002a DAB2     		uxtb	r2, r3
 685              		.loc 1 181 16
 686 002c 3B7C     		ldrb	r3, [r7, #16]
 687 002e 62F38303 		bfi	r3, r2, #2, #2
 688 0032 3B74     		strb	r3, [r7, #16]
 182:Core/Src/lis2dw12_reg.c ****     ctrl1.lp_mode = (uint8_t) val & 0x03U ;
 689              		.loc 1 182 35
 690 0034 FB78     		ldrb	r3, [r7, #3]
 691 0036 03F00303 		and	r3, r3, #3
 692 003a DAB2     		uxtb	r2, r3
 693              		.loc 1 182 19
 694 003c 3B7C     		ldrb	r3, [r7, #16]
 695 003e 62F30103 		bfi	r3, r2, #0, #2
 696 0042 3B74     		strb	r3, [r7, #16]
ARM GAS  C:\Users\vct344\AppData\Local\Temp\ccePc7Ac.s 			page 16


 183:Core/Src/lis2dw12_reg.c ****     ret = lis2dw12_write_reg(ctx, LIS2DW12_CTRL1, (uint8_t *) &ctrl1, 1);
 697              		.loc 1 183 11
 698 0044 07F11002 		add	r2, r7, #16
 699 0048 0123     		movs	r3, #1
 700 004a 2021     		movs	r1, #32
 701 004c 7868     		ldr	r0, [r7, #4]
 702 004e FFF7FEFF 		bl	lis2dw12_write_reg
 703 0052 7861     		str	r0, [r7, #20]
 704              	.L44:
 184:Core/Src/lis2dw12_reg.c ****   }
 185:Core/Src/lis2dw12_reg.c **** 
 186:Core/Src/lis2dw12_reg.c ****   if (ret == 0)
 705              		.loc 1 186 6
 706 0054 7B69     		ldr	r3, [r7, #20]
 707 0056 002B     		cmp	r3, #0
 708 0058 07D1     		bne	.L45
 187:Core/Src/lis2dw12_reg.c ****   {
 188:Core/Src/lis2dw12_reg.c ****     ret = lis2dw12_read_reg(ctx, LIS2DW12_CTRL6, (uint8_t *) &ctrl6, 1);
 709              		.loc 1 188 11
 710 005a 07F10C02 		add	r2, r7, #12
 711 005e 0123     		movs	r3, #1
 712 0060 2521     		movs	r1, #37
 713 0062 7868     		ldr	r0, [r7, #4]
 714 0064 FFF7FEFF 		bl	lis2dw12_read_reg
 715 0068 7861     		str	r0, [r7, #20]
 716              	.L45:
 189:Core/Src/lis2dw12_reg.c ****   }
 190:Core/Src/lis2dw12_reg.c **** 
 191:Core/Src/lis2dw12_reg.c ****   if (ret == 0)
 717              		.loc 1 191 6
 718 006a 7B69     		ldr	r3, [r7, #20]
 719 006c 002B     		cmp	r3, #0
 720 006e 10D1     		bne	.L46
 192:Core/Src/lis2dw12_reg.c ****   {
 193:Core/Src/lis2dw12_reg.c ****     ctrl6.low_noise = ((uint8_t) val & 0x10U) >> 4;
 721              		.loc 1 193 47
 722 0070 FB78     		ldrb	r3, [r7, #3]	@ zero_extendqisi2
 723 0072 1B09     		lsrs	r3, r3, #4
 724 0074 03F00103 		and	r3, r3, #1
 725 0078 DAB2     		uxtb	r2, r3
 726              		.loc 1 193 21
 727 007a 3B7B     		ldrb	r3, [r7, #12]
 728 007c 62F38203 		bfi	r3, r2, #2, #1
 729 0080 3B73     		strb	r3, [r7, #12]
 194:Core/Src/lis2dw12_reg.c ****     ret = lis2dw12_write_reg(ctx, LIS2DW12_CTRL6, (uint8_t *) &ctrl6, 1);
 730              		.loc 1 194 11
 731 0082 07F10C02 		add	r2, r7, #12
 732 0086 0123     		movs	r3, #1
 733 0088 2521     		movs	r1, #37
 734 008a 7868     		ldr	r0, [r7, #4]
 735 008c FFF7FEFF 		bl	lis2dw12_write_reg
 736 0090 7861     		str	r0, [r7, #20]
 737              	.L46:
 195:Core/Src/lis2dw12_reg.c ****   }
 196:Core/Src/lis2dw12_reg.c **** 
 197:Core/Src/lis2dw12_reg.c ****   return ret;
 738              		.loc 1 197 10
ARM GAS  C:\Users\vct344\AppData\Local\Temp\ccePc7Ac.s 			page 17


 739 0092 7B69     		ldr	r3, [r7, #20]
 198:Core/Src/lis2dw12_reg.c **** }
 740              		.loc 1 198 1
 741 0094 1846     		mov	r0, r3
 742 0096 1837     		adds	r7, r7, #24
 743              	.LCFI58:
 744              		.cfi_def_cfa_offset 8
 745 0098 BD46     		mov	sp, r7
 746              	.LCFI59:
 747              		.cfi_def_cfa_register 13
 748              		@ sp needed
 749 009a 80BD     		pop	{r7, pc}
 750              		.cfi_endproc
 751              	.LFE11:
 753              		.section	.text.lis2dw12_power_mode_get,"ax",%progbits
 754              		.align	1
 755              		.global	lis2dw12_power_mode_get
 756              		.syntax unified
 757              		.thumb
 758              		.thumb_func
 760              	lis2dw12_power_mode_get:
 761              	.LFB12:
 199:Core/Src/lis2dw12_reg.c **** 
 200:Core/Src/lis2dw12_reg.c **** /**
 201:Core/Src/lis2dw12_reg.c ****   * @brief  Select accelerometer operating modes.[get]
 202:Core/Src/lis2dw12_reg.c ****   *
 203:Core/Src/lis2dw12_reg.c ****   * @param  ctx      read / write interface definitions
 204:Core/Src/lis2dw12_reg.c ****   * @param  val      change the values of mode / lp_mode in reg CTRL1
 205:Core/Src/lis2dw12_reg.c ****   *                  and low_noise in reg CTRL6
 206:Core/Src/lis2dw12_reg.c ****   * @retval          interface status (MANDATORY: return 0 -> no Error)
 207:Core/Src/lis2dw12_reg.c ****   *
 208:Core/Src/lis2dw12_reg.c ****   */
 209:Core/Src/lis2dw12_reg.c **** int32_t lis2dw12_power_mode_get(const stmdev_ctx_t *ctx,
 210:Core/Src/lis2dw12_reg.c ****                                 lis2dw12_mode_t *val)
 211:Core/Src/lis2dw12_reg.c **** {
 762              		.loc 1 211 1
 763              		.cfi_startproc
 764              		@ args = 0, pretend = 0, frame = 24
 765              		@ frame_needed = 1, uses_anonymous_args = 0
 766 0000 80B5     		push	{r7, lr}
 767              	.LCFI60:
 768              		.cfi_def_cfa_offset 8
 769              		.cfi_offset 7, -8
 770              		.cfi_offset 14, -4
 771 0002 86B0     		sub	sp, sp, #24
 772              	.LCFI61:
 773              		.cfi_def_cfa_offset 32
 774 0004 00AF     		add	r7, sp, #0
 775              	.LCFI62:
 776              		.cfi_def_cfa_register 7
 777 0006 7860     		str	r0, [r7, #4]
 778 0008 3960     		str	r1, [r7]
 212:Core/Src/lis2dw12_reg.c ****   lis2dw12_ctrl1_t ctrl1;
 213:Core/Src/lis2dw12_reg.c ****   lis2dw12_ctrl6_t ctrl6;
 214:Core/Src/lis2dw12_reg.c ****   int32_t ret;
 215:Core/Src/lis2dw12_reg.c **** 
 216:Core/Src/lis2dw12_reg.c ****   ret = lis2dw12_read_reg(ctx, LIS2DW12_CTRL1, (uint8_t *) &ctrl1, 1);
ARM GAS  C:\Users\vct344\AppData\Local\Temp\ccePc7Ac.s 			page 18


 779              		.loc 1 216 9
 780 000a 07F11002 		add	r2, r7, #16
 781 000e 0123     		movs	r3, #1
 782 0010 2021     		movs	r1, #32
 783 0012 7868     		ldr	r0, [r7, #4]
 784 0014 FFF7FEFF 		bl	lis2dw12_read_reg
 785 0018 7861     		str	r0, [r7, #20]
 217:Core/Src/lis2dw12_reg.c **** 
 218:Core/Src/lis2dw12_reg.c ****   if (ret == 0)
 786              		.loc 1 218 6
 787 001a 7B69     		ldr	r3, [r7, #20]
 788 001c 002B     		cmp	r3, #0
 789 001e 40F0A380 		bne	.L49
 219:Core/Src/lis2dw12_reg.c ****   {
 220:Core/Src/lis2dw12_reg.c ****     ret = lis2dw12_read_reg(ctx, LIS2DW12_CTRL6, (uint8_t *) &ctrl6, 1);
 790              		.loc 1 220 11
 791 0022 07F10C02 		add	r2, r7, #12
 792 0026 0123     		movs	r3, #1
 793 0028 2521     		movs	r1, #37
 794 002a 7868     		ldr	r0, [r7, #4]
 795 002c FFF7FEFF 		bl	lis2dw12_read_reg
 796 0030 7861     		str	r0, [r7, #20]
 221:Core/Src/lis2dw12_reg.c **** 
 222:Core/Src/lis2dw12_reg.c ****     switch (((ctrl6.low_noise << 4) + (ctrl1.mode << 2) +
 797              		.loc 1 222 20
 798 0032 3B7B     		ldrb	r3, [r7, #12]
 799 0034 C3F38003 		ubfx	r3, r3, #2, #1
 800 0038 DBB2     		uxtb	r3, r3
 801              		.loc 1 222 31
 802 003a 1A01     		lsls	r2, r3, #4
 803              		.loc 1 222 45
 804 003c 3B7C     		ldrb	r3, [r7, #16]
 805 003e C3F38103 		ubfx	r3, r3, #2, #2
 806 0042 DBB2     		uxtb	r3, r3
 807              		.loc 1 222 51
 808 0044 9B00     		lsls	r3, r3, #2
 809              		.loc 1 222 37
 810 0046 1344     		add	r3, r3, r2
 223:Core/Src/lis2dw12_reg.c ****              ctrl1.lp_mode))
 811              		.loc 1 223 19
 812 0048 3A7C     		ldrb	r2, [r7, #16]
 813 004a C2F30102 		ubfx	r2, r2, #0, #2
 814 004e D2B2     		uxtb	r2, r2
 222:Core/Src/lis2dw12_reg.c ****              ctrl1.lp_mode))
 815              		.loc 1 222 57
 816 0050 1344     		add	r3, r3, r2
 222:Core/Src/lis2dw12_reg.c ****              ctrl1.lp_mode))
 817              		.loc 1 222 5
 818 0052 1B2B     		cmp	r3, #27
 819 0054 00F28480 		bhi	.L50
 820 0058 01A2     		adr	r2, .L52
 821 005a 52F823F0 		ldr	pc, [r2, r3, lsl #2]
 822 005e 00BF     		.p2align 2
 823              	.L52:
 824 0060 F1000000 		.word	.L69+1
 825 0064 E9000000 		.word	.L68+1
 826 0068 E1000000 		.word	.L67+1
ARM GAS  C:\Users\vct344\AppData\Local\Temp\ccePc7Ac.s 			page 19


 827 006c D9000000 		.word	.L66+1
 828 0070 D1000000 		.word	.L65+1
 829 0074 61010000 		.word	.L50+1
 830 0078 61010000 		.word	.L50+1
 831 007c 61010000 		.word	.L50+1
 832 0080 11010000 		.word	.L64+1
 833 0084 09010000 		.word	.L63+1
 834 0088 01010000 		.word	.L62+1
 835 008c F9000000 		.word	.L61+1
 836 0090 61010000 		.word	.L50+1
 837 0094 61010000 		.word	.L50+1
 838 0098 61010000 		.word	.L50+1
 839 009c 61010000 		.word	.L50+1
 840 00a0 39010000 		.word	.L60+1
 841 00a4 31010000 		.word	.L59+1
 842 00a8 29010000 		.word	.L58+1
 843 00ac 21010000 		.word	.L57+1
 844 00b0 19010000 		.word	.L56+1
 845 00b4 61010000 		.word	.L50+1
 846 00b8 61010000 		.word	.L50+1
 847 00bc 61010000 		.word	.L50+1
 848 00c0 59010000 		.word	.L55+1
 849 00c4 51010000 		.word	.L54+1
 850 00c8 49010000 		.word	.L53+1
 851 00cc 41010000 		.word	.L51+1
 852              		.p2align 1
 853              	.L65:
 224:Core/Src/lis2dw12_reg.c ****     {
 225:Core/Src/lis2dw12_reg.c ****       case LIS2DW12_HIGH_PERFORMANCE:
 226:Core/Src/lis2dw12_reg.c ****         *val = LIS2DW12_HIGH_PERFORMANCE;
 854              		.loc 1 226 14
 855 00d0 3B68     		ldr	r3, [r7]
 856 00d2 0422     		movs	r2, #4
 857 00d4 1A70     		strb	r2, [r3]
 227:Core/Src/lis2dw12_reg.c ****         break;
 858              		.loc 1 227 9
 859 00d6 47E0     		b	.L49
 860              	.L66:
 228:Core/Src/lis2dw12_reg.c **** 
 229:Core/Src/lis2dw12_reg.c ****       case LIS2DW12_CONT_LOW_PWR_4:
 230:Core/Src/lis2dw12_reg.c ****         *val = LIS2DW12_CONT_LOW_PWR_4;
 861              		.loc 1 230 14
 862 00d8 3B68     		ldr	r3, [r7]
 863 00da 0322     		movs	r2, #3
 864 00dc 1A70     		strb	r2, [r3]
 231:Core/Src/lis2dw12_reg.c ****         break;
 865              		.loc 1 231 9
 866 00de 43E0     		b	.L49
 867              	.L67:
 232:Core/Src/lis2dw12_reg.c **** 
 233:Core/Src/lis2dw12_reg.c ****       case LIS2DW12_CONT_LOW_PWR_3:
 234:Core/Src/lis2dw12_reg.c ****         *val = LIS2DW12_CONT_LOW_PWR_3;
 868              		.loc 1 234 14
 869 00e0 3B68     		ldr	r3, [r7]
 870 00e2 0222     		movs	r2, #2
 871 00e4 1A70     		strb	r2, [r3]
 235:Core/Src/lis2dw12_reg.c ****         break;
ARM GAS  C:\Users\vct344\AppData\Local\Temp\ccePc7Ac.s 			page 20


 872              		.loc 1 235 9
 873 00e6 3FE0     		b	.L49
 874              	.L68:
 236:Core/Src/lis2dw12_reg.c **** 
 237:Core/Src/lis2dw12_reg.c ****       case LIS2DW12_CONT_LOW_PWR_2:
 238:Core/Src/lis2dw12_reg.c ****         *val = LIS2DW12_CONT_LOW_PWR_2;
 875              		.loc 1 238 14
 876 00e8 3B68     		ldr	r3, [r7]
 877 00ea 0122     		movs	r2, #1
 878 00ec 1A70     		strb	r2, [r3]
 239:Core/Src/lis2dw12_reg.c ****         break;
 879              		.loc 1 239 9
 880 00ee 3BE0     		b	.L49
 881              	.L69:
 240:Core/Src/lis2dw12_reg.c **** 
 241:Core/Src/lis2dw12_reg.c ****       case LIS2DW12_CONT_LOW_PWR_12bit:
 242:Core/Src/lis2dw12_reg.c ****         *val = LIS2DW12_CONT_LOW_PWR_12bit;
 882              		.loc 1 242 14
 883 00f0 3B68     		ldr	r3, [r7]
 884 00f2 0022     		movs	r2, #0
 885 00f4 1A70     		strb	r2, [r3]
 243:Core/Src/lis2dw12_reg.c ****         break;
 886              		.loc 1 243 9
 887 00f6 37E0     		b	.L49
 888              	.L61:
 244:Core/Src/lis2dw12_reg.c **** 
 245:Core/Src/lis2dw12_reg.c ****       case LIS2DW12_SINGLE_LOW_PWR_4:
 246:Core/Src/lis2dw12_reg.c ****         *val = LIS2DW12_SINGLE_LOW_PWR_4;
 889              		.loc 1 246 14
 890 00f8 3B68     		ldr	r3, [r7]
 891 00fa 0B22     		movs	r2, #11
 892 00fc 1A70     		strb	r2, [r3]
 247:Core/Src/lis2dw12_reg.c ****         break;
 893              		.loc 1 247 9
 894 00fe 33E0     		b	.L49
 895              	.L62:
 248:Core/Src/lis2dw12_reg.c **** 
 249:Core/Src/lis2dw12_reg.c ****       case LIS2DW12_SINGLE_LOW_PWR_3:
 250:Core/Src/lis2dw12_reg.c ****         *val = LIS2DW12_SINGLE_LOW_PWR_3;
 896              		.loc 1 250 14
 897 0100 3B68     		ldr	r3, [r7]
 898 0102 0A22     		movs	r2, #10
 899 0104 1A70     		strb	r2, [r3]
 251:Core/Src/lis2dw12_reg.c ****         break;
 900              		.loc 1 251 9
 901 0106 2FE0     		b	.L49
 902              	.L63:
 252:Core/Src/lis2dw12_reg.c **** 
 253:Core/Src/lis2dw12_reg.c ****       case LIS2DW12_SINGLE_LOW_PWR_2:
 254:Core/Src/lis2dw12_reg.c ****         *val = LIS2DW12_SINGLE_LOW_PWR_2;
 903              		.loc 1 254 14
 904 0108 3B68     		ldr	r3, [r7]
 905 010a 0922     		movs	r2, #9
 906 010c 1A70     		strb	r2, [r3]
 255:Core/Src/lis2dw12_reg.c ****         break;
 907              		.loc 1 255 9
 908 010e 2BE0     		b	.L49
ARM GAS  C:\Users\vct344\AppData\Local\Temp\ccePc7Ac.s 			page 21


 909              	.L64:
 256:Core/Src/lis2dw12_reg.c **** 
 257:Core/Src/lis2dw12_reg.c ****       case LIS2DW12_SINGLE_LOW_PWR_12bit:
 258:Core/Src/lis2dw12_reg.c ****         *val = LIS2DW12_SINGLE_LOW_PWR_12bit;
 910              		.loc 1 258 14
 911 0110 3B68     		ldr	r3, [r7]
 912 0112 0822     		movs	r2, #8
 913 0114 1A70     		strb	r2, [r3]
 259:Core/Src/lis2dw12_reg.c ****         break;
 914              		.loc 1 259 9
 915 0116 27E0     		b	.L49
 916              	.L56:
 260:Core/Src/lis2dw12_reg.c **** 
 261:Core/Src/lis2dw12_reg.c ****       case LIS2DW12_HIGH_PERFORMANCE_LOW_NOISE:
 262:Core/Src/lis2dw12_reg.c ****         *val = LIS2DW12_HIGH_PERFORMANCE_LOW_NOISE;
 917              		.loc 1 262 14
 918 0118 3B68     		ldr	r3, [r7]
 919 011a 1422     		movs	r2, #20
 920 011c 1A70     		strb	r2, [r3]
 263:Core/Src/lis2dw12_reg.c ****         break;
 921              		.loc 1 263 9
 922 011e 23E0     		b	.L49
 923              	.L57:
 264:Core/Src/lis2dw12_reg.c **** 
 265:Core/Src/lis2dw12_reg.c ****       case LIS2DW12_CONT_LOW_PWR_LOW_NOISE_4:
 266:Core/Src/lis2dw12_reg.c ****         *val = LIS2DW12_CONT_LOW_PWR_LOW_NOISE_4;
 924              		.loc 1 266 14
 925 0120 3B68     		ldr	r3, [r7]
 926 0122 1322     		movs	r2, #19
 927 0124 1A70     		strb	r2, [r3]
 267:Core/Src/lis2dw12_reg.c ****         break;
 928              		.loc 1 267 9
 929 0126 1FE0     		b	.L49
 930              	.L58:
 268:Core/Src/lis2dw12_reg.c **** 
 269:Core/Src/lis2dw12_reg.c ****       case LIS2DW12_CONT_LOW_PWR_LOW_NOISE_3:
 270:Core/Src/lis2dw12_reg.c ****         *val = LIS2DW12_CONT_LOW_PWR_LOW_NOISE_3;
 931              		.loc 1 270 14
 932 0128 3B68     		ldr	r3, [r7]
 933 012a 1222     		movs	r2, #18
 934 012c 1A70     		strb	r2, [r3]
 271:Core/Src/lis2dw12_reg.c ****         break;
 935              		.loc 1 271 9
 936 012e 1BE0     		b	.L49
 937              	.L59:
 272:Core/Src/lis2dw12_reg.c **** 
 273:Core/Src/lis2dw12_reg.c ****       case LIS2DW12_CONT_LOW_PWR_LOW_NOISE_2:
 274:Core/Src/lis2dw12_reg.c ****         *val = LIS2DW12_CONT_LOW_PWR_LOW_NOISE_2;
 938              		.loc 1 274 14
 939 0130 3B68     		ldr	r3, [r7]
 940 0132 1122     		movs	r2, #17
 941 0134 1A70     		strb	r2, [r3]
 275:Core/Src/lis2dw12_reg.c ****         break;
 942              		.loc 1 275 9
 943 0136 17E0     		b	.L49
 944              	.L60:
 276:Core/Src/lis2dw12_reg.c **** 
ARM GAS  C:\Users\vct344\AppData\Local\Temp\ccePc7Ac.s 			page 22


 277:Core/Src/lis2dw12_reg.c ****       case LIS2DW12_CONT_LOW_PWR_LOW_NOISE_12bit:
 278:Core/Src/lis2dw12_reg.c ****         *val = LIS2DW12_CONT_LOW_PWR_LOW_NOISE_12bit;
 945              		.loc 1 278 14
 946 0138 3B68     		ldr	r3, [r7]
 947 013a 1022     		movs	r2, #16
 948 013c 1A70     		strb	r2, [r3]
 279:Core/Src/lis2dw12_reg.c ****         break;
 949              		.loc 1 279 9
 950 013e 13E0     		b	.L49
 951              	.L51:
 280:Core/Src/lis2dw12_reg.c **** 
 281:Core/Src/lis2dw12_reg.c ****       case LIS2DW12_SINGLE_LOW_PWR_LOW_NOISE_4:
 282:Core/Src/lis2dw12_reg.c ****         *val = LIS2DW12_SINGLE_LOW_PWR_LOW_NOISE_4;
 952              		.loc 1 282 14
 953 0140 3B68     		ldr	r3, [r7]
 954 0142 1B22     		movs	r2, #27
 955 0144 1A70     		strb	r2, [r3]
 283:Core/Src/lis2dw12_reg.c ****         break;
 956              		.loc 1 283 9
 957 0146 0FE0     		b	.L49
 958              	.L53:
 284:Core/Src/lis2dw12_reg.c **** 
 285:Core/Src/lis2dw12_reg.c ****       case LIS2DW12_SINGLE_LOW_PWR_LOW_NOISE_3:
 286:Core/Src/lis2dw12_reg.c ****         *val = LIS2DW12_SINGLE_LOW_PWR_LOW_NOISE_3;
 959              		.loc 1 286 14
 960 0148 3B68     		ldr	r3, [r7]
 961 014a 1A22     		movs	r2, #26
 962 014c 1A70     		strb	r2, [r3]
 287:Core/Src/lis2dw12_reg.c ****         break;
 963              		.loc 1 287 9
 964 014e 0BE0     		b	.L49
 965              	.L54:
 288:Core/Src/lis2dw12_reg.c **** 
 289:Core/Src/lis2dw12_reg.c ****       case LIS2DW12_SINGLE_LOW_PWR_LOW_NOISE_2:
 290:Core/Src/lis2dw12_reg.c ****         *val = LIS2DW12_SINGLE_LOW_PWR_LOW_NOISE_2;
 966              		.loc 1 290 14
 967 0150 3B68     		ldr	r3, [r7]
 968 0152 1922     		movs	r2, #25
 969 0154 1A70     		strb	r2, [r3]
 291:Core/Src/lis2dw12_reg.c ****         break;
 970              		.loc 1 291 9
 971 0156 07E0     		b	.L49
 972              	.L55:
 292:Core/Src/lis2dw12_reg.c **** 
 293:Core/Src/lis2dw12_reg.c ****       case LIS2DW12_SINGLE_LOW_LOW_NOISE_PWR_12bit:
 294:Core/Src/lis2dw12_reg.c ****         *val = LIS2DW12_SINGLE_LOW_LOW_NOISE_PWR_12bit;
 973              		.loc 1 294 14
 974 0158 3B68     		ldr	r3, [r7]
 975 015a 1822     		movs	r2, #24
 976 015c 1A70     		strb	r2, [r3]
 295:Core/Src/lis2dw12_reg.c ****         break;
 977              		.loc 1 295 9
 978 015e 03E0     		b	.L49
 979              	.L50:
 296:Core/Src/lis2dw12_reg.c **** 
 297:Core/Src/lis2dw12_reg.c ****       default:
 298:Core/Src/lis2dw12_reg.c ****         *val = LIS2DW12_HIGH_PERFORMANCE;
ARM GAS  C:\Users\vct344\AppData\Local\Temp\ccePc7Ac.s 			page 23


 980              		.loc 1 298 14
 981 0160 3B68     		ldr	r3, [r7]
 982 0162 0422     		movs	r2, #4
 983 0164 1A70     		strb	r2, [r3]
 299:Core/Src/lis2dw12_reg.c ****         break;
 984              		.loc 1 299 9
 985 0166 00BF     		nop
 986              	.L49:
 300:Core/Src/lis2dw12_reg.c ****     }
 301:Core/Src/lis2dw12_reg.c ****   }
 302:Core/Src/lis2dw12_reg.c **** 
 303:Core/Src/lis2dw12_reg.c ****   return ret;
 987              		.loc 1 303 10
 988 0168 7B69     		ldr	r3, [r7, #20]
 304:Core/Src/lis2dw12_reg.c **** }
 989              		.loc 1 304 1
 990 016a 1846     		mov	r0, r3
 991 016c 1837     		adds	r7, r7, #24
 992              	.LCFI63:
 993              		.cfi_def_cfa_offset 8
 994 016e BD46     		mov	sp, r7
 995              	.LCFI64:
 996              		.cfi_def_cfa_register 13
 997              		@ sp needed
 998 0170 80BD     		pop	{r7, pc}
 999              		.cfi_endproc
 1000              	.LFE12:
 1002 0172 00BF     		.section	.text.lis2dw12_data_rate_set,"ax",%progbits
 1003              		.align	1
 1004              		.global	lis2dw12_data_rate_set
 1005              		.syntax unified
 1006              		.thumb
 1007              		.thumb_func
 1009              	lis2dw12_data_rate_set:
 1010              	.LFB13:
 305:Core/Src/lis2dw12_reg.c **** 
 306:Core/Src/lis2dw12_reg.c **** /**
 307:Core/Src/lis2dw12_reg.c ****   * @brief  Accelerometer data rate selection.[set]
 308:Core/Src/lis2dw12_reg.c ****   *
 309:Core/Src/lis2dw12_reg.c ****   * @param  ctx      read / write interface definitions
 310:Core/Src/lis2dw12_reg.c ****   * @param  val      change the values of odr in reg CTRL1
 311:Core/Src/lis2dw12_reg.c ****   * @retval          interface status (MANDATORY: return 0 -> no Error)
 312:Core/Src/lis2dw12_reg.c ****   *
 313:Core/Src/lis2dw12_reg.c ****   */
 314:Core/Src/lis2dw12_reg.c **** int32_t lis2dw12_data_rate_set(const stmdev_ctx_t *ctx, lis2dw12_odr_t val)
 315:Core/Src/lis2dw12_reg.c **** {
 1011              		.loc 1 315 1
 1012              		.cfi_startproc
 1013              		@ args = 0, pretend = 0, frame = 24
 1014              		@ frame_needed = 1, uses_anonymous_args = 0
 1015 0000 80B5     		push	{r7, lr}
 1016              	.LCFI65:
 1017              		.cfi_def_cfa_offset 8
 1018              		.cfi_offset 7, -8
 1019              		.cfi_offset 14, -4
 1020 0002 86B0     		sub	sp, sp, #24
 1021              	.LCFI66:
ARM GAS  C:\Users\vct344\AppData\Local\Temp\ccePc7Ac.s 			page 24


 1022              		.cfi_def_cfa_offset 32
 1023 0004 00AF     		add	r7, sp, #0
 1024              	.LCFI67:
 1025              		.cfi_def_cfa_register 7
 1026 0006 7860     		str	r0, [r7, #4]
 1027 0008 0B46     		mov	r3, r1
 1028 000a FB70     		strb	r3, [r7, #3]
 316:Core/Src/lis2dw12_reg.c ****   lis2dw12_ctrl1_t ctrl1;
 317:Core/Src/lis2dw12_reg.c ****   lis2dw12_ctrl3_t ctrl3;
 318:Core/Src/lis2dw12_reg.c ****   int32_t ret;
 319:Core/Src/lis2dw12_reg.c **** 
 320:Core/Src/lis2dw12_reg.c ****   ret = lis2dw12_read_reg(ctx, LIS2DW12_CTRL1, (uint8_t *) &ctrl1, 1);
 1029              		.loc 1 320 9
 1030 000c 07F11002 		add	r2, r7, #16
 1031 0010 0123     		movs	r3, #1
 1032 0012 2021     		movs	r1, #32
 1033 0014 7868     		ldr	r0, [r7, #4]
 1034 0016 FFF7FEFF 		bl	lis2dw12_read_reg
 1035 001a 7861     		str	r0, [r7, #20]
 321:Core/Src/lis2dw12_reg.c **** 
 322:Core/Src/lis2dw12_reg.c ****   if (ret == 0)
 1036              		.loc 1 322 6
 1037 001c 7B69     		ldr	r3, [r7, #20]
 1038 001e 002B     		cmp	r3, #0
 1039 0020 0FD1     		bne	.L72
 323:Core/Src/lis2dw12_reg.c ****   {
 324:Core/Src/lis2dw12_reg.c ****     ctrl1.odr = (uint8_t) val;
 1040              		.loc 1 324 17
 1041 0022 FB78     		ldrb	r3, [r7, #3]
 1042 0024 03F00F03 		and	r3, r3, #15
 1043 0028 DAB2     		uxtb	r2, r3
 1044              		.loc 1 324 15
 1045 002a 3B7C     		ldrb	r3, [r7, #16]
 1046 002c 62F30713 		bfi	r3, r2, #4, #4
 1047 0030 3B74     		strb	r3, [r7, #16]
 325:Core/Src/lis2dw12_reg.c ****     ret = lis2dw12_write_reg(ctx, LIS2DW12_CTRL1, (uint8_t *) &ctrl1, 1);
 1048              		.loc 1 325 11
 1049 0032 07F11002 		add	r2, r7, #16
 1050 0036 0123     		movs	r3, #1
 1051 0038 2021     		movs	r1, #32
 1052 003a 7868     		ldr	r0, [r7, #4]
 1053 003c FFF7FEFF 		bl	lis2dw12_write_reg
 1054 0040 7861     		str	r0, [r7, #20]
 1055              	.L72:
 326:Core/Src/lis2dw12_reg.c ****   }
 327:Core/Src/lis2dw12_reg.c **** 
 328:Core/Src/lis2dw12_reg.c ****   if (ret == 0)
 1056              		.loc 1 328 6
 1057 0042 7B69     		ldr	r3, [r7, #20]
 1058 0044 002B     		cmp	r3, #0
 1059 0046 07D1     		bne	.L73
 329:Core/Src/lis2dw12_reg.c ****   {
 330:Core/Src/lis2dw12_reg.c ****     ret = lis2dw12_read_reg(ctx, LIS2DW12_CTRL3, (uint8_t *) &ctrl3, 1);
 1060              		.loc 1 330 11
 1061 0048 07F10C02 		add	r2, r7, #12
 1062 004c 0123     		movs	r3, #1
 1063 004e 2221     		movs	r1, #34
ARM GAS  C:\Users\vct344\AppData\Local\Temp\ccePc7Ac.s 			page 25


 1064 0050 7868     		ldr	r0, [r7, #4]
 1065 0052 FFF7FEFF 		bl	lis2dw12_read_reg
 1066 0056 7861     		str	r0, [r7, #20]
 1067              	.L73:
 331:Core/Src/lis2dw12_reg.c ****   }
 332:Core/Src/lis2dw12_reg.c **** 
 333:Core/Src/lis2dw12_reg.c ****   if (ret == 0)
 1068              		.loc 1 333 6
 1069 0058 7B69     		ldr	r3, [r7, #20]
 1070 005a 002B     		cmp	r3, #0
 1071 005c 10D1     		bne	.L74
 334:Core/Src/lis2dw12_reg.c ****   {
 335:Core/Src/lis2dw12_reg.c ****     ctrl3.slp_mode = ((uint8_t) val & 0x30U) >> 4;
 1072              		.loc 1 335 46
 1073 005e FB78     		ldrb	r3, [r7, #3]	@ zero_extendqisi2
 1074 0060 1B09     		lsrs	r3, r3, #4
 1075 0062 03F00303 		and	r3, r3, #3
 1076 0066 DAB2     		uxtb	r2, r3
 1077              		.loc 1 335 20
 1078 0068 3B7B     		ldrb	r3, [r7, #12]
 1079 006a 62F30103 		bfi	r3, r2, #0, #2
 1080 006e 3B73     		strb	r3, [r7, #12]
 336:Core/Src/lis2dw12_reg.c ****     ret = lis2dw12_write_reg(ctx, LIS2DW12_CTRL3, (uint8_t *) &ctrl3, 1);
 1081              		.loc 1 336 11
 1082 0070 07F10C02 		add	r2, r7, #12
 1083 0074 0123     		movs	r3, #1
 1084 0076 2221     		movs	r1, #34
 1085 0078 7868     		ldr	r0, [r7, #4]
 1086 007a FFF7FEFF 		bl	lis2dw12_write_reg
 1087 007e 7861     		str	r0, [r7, #20]
 1088              	.L74:
 337:Core/Src/lis2dw12_reg.c ****   }
 338:Core/Src/lis2dw12_reg.c **** 
 339:Core/Src/lis2dw12_reg.c ****   return ret;
 1089              		.loc 1 339 10
 1090 0080 7B69     		ldr	r3, [r7, #20]
 340:Core/Src/lis2dw12_reg.c **** }
 1091              		.loc 1 340 1
 1092 0082 1846     		mov	r0, r3
 1093 0084 1837     		adds	r7, r7, #24
 1094              	.LCFI68:
 1095              		.cfi_def_cfa_offset 8
 1096 0086 BD46     		mov	sp, r7
 1097              	.LCFI69:
 1098              		.cfi_def_cfa_register 13
 1099              		@ sp needed
 1100 0088 80BD     		pop	{r7, pc}
 1101              		.cfi_endproc
 1102              	.LFE13:
 1104              		.section	.text.lis2dw12_data_rate_get,"ax",%progbits
 1105              		.align	1
 1106              		.global	lis2dw12_data_rate_get
 1107              		.syntax unified
 1108              		.thumb
 1109              		.thumb_func
 1111              	lis2dw12_data_rate_get:
 1112              	.LFB14:
ARM GAS  C:\Users\vct344\AppData\Local\Temp\ccePc7Ac.s 			page 26


 341:Core/Src/lis2dw12_reg.c **** 
 342:Core/Src/lis2dw12_reg.c **** /**
 343:Core/Src/lis2dw12_reg.c ****   * @brief  Accelerometer data rate selection.[get]
 344:Core/Src/lis2dw12_reg.c ****   *
 345:Core/Src/lis2dw12_reg.c ****   * @param  ctx      read / write interface definitions
 346:Core/Src/lis2dw12_reg.c ****   * @param  val      Get the values of odr in reg CTRL1
 347:Core/Src/lis2dw12_reg.c ****   * @retval          interface status (MANDATORY: return 0 -> no Error)
 348:Core/Src/lis2dw12_reg.c ****   *
 349:Core/Src/lis2dw12_reg.c ****   */
 350:Core/Src/lis2dw12_reg.c **** int32_t lis2dw12_data_rate_get(const stmdev_ctx_t *ctx, lis2dw12_odr_t *val)
 351:Core/Src/lis2dw12_reg.c **** {
 1113              		.loc 1 351 1
 1114              		.cfi_startproc
 1115              		@ args = 0, pretend = 0, frame = 24
 1116              		@ frame_needed = 1, uses_anonymous_args = 0
 1117 0000 80B5     		push	{r7, lr}
 1118              	.LCFI70:
 1119              		.cfi_def_cfa_offset 8
 1120              		.cfi_offset 7, -8
 1121              		.cfi_offset 14, -4
 1122 0002 86B0     		sub	sp, sp, #24
 1123              	.LCFI71:
 1124              		.cfi_def_cfa_offset 32
 1125 0004 00AF     		add	r7, sp, #0
 1126              	.LCFI72:
 1127              		.cfi_def_cfa_register 7
 1128 0006 7860     		str	r0, [r7, #4]
 1129 0008 3960     		str	r1, [r7]
 352:Core/Src/lis2dw12_reg.c ****   lis2dw12_ctrl1_t ctrl1;
 353:Core/Src/lis2dw12_reg.c ****   lis2dw12_ctrl3_t ctrl3;
 354:Core/Src/lis2dw12_reg.c ****   int32_t ret;
 355:Core/Src/lis2dw12_reg.c **** 
 356:Core/Src/lis2dw12_reg.c ****   ret = lis2dw12_read_reg(ctx, LIS2DW12_CTRL1, (uint8_t *) &ctrl1, 1);
 1130              		.loc 1 356 9
 1131 000a 07F11002 		add	r2, r7, #16
 1132 000e 0123     		movs	r3, #1
 1133 0010 2021     		movs	r1, #32
 1134 0012 7868     		ldr	r0, [r7, #4]
 1135 0014 FFF7FEFF 		bl	lis2dw12_read_reg
 1136 0018 7861     		str	r0, [r7, #20]
 357:Core/Src/lis2dw12_reg.c **** 
 358:Core/Src/lis2dw12_reg.c ****   if (ret == 0)
 1137              		.loc 1 358 6
 1138 001a 7B69     		ldr	r3, [r7, #20]
 1139 001c 002B     		cmp	r3, #0
 1140 001e 40F0B380 		bne	.L77
 359:Core/Src/lis2dw12_reg.c ****   {
 360:Core/Src/lis2dw12_reg.c ****     ret = lis2dw12_read_reg(ctx, LIS2DW12_CTRL3, (uint8_t *) &ctrl3, 1);
 1141              		.loc 1 360 11
 1142 0022 07F10C02 		add	r2, r7, #12
 1143 0026 0123     		movs	r3, #1
 1144 0028 2221     		movs	r1, #34
 1145 002a 7868     		ldr	r0, [r7, #4]
 1146 002c FFF7FEFF 		bl	lis2dw12_read_reg
 1147 0030 7861     		str	r0, [r7, #20]
 361:Core/Src/lis2dw12_reg.c **** 
 362:Core/Src/lis2dw12_reg.c ****     switch ((ctrl3.slp_mode << 4) + ctrl1.odr)
ARM GAS  C:\Users\vct344\AppData\Local\Temp\ccePc7Ac.s 			page 27


 1148              		.loc 1 362 19
 1149 0032 3B7B     		ldrb	r3, [r7, #12]
 1150 0034 C3F30103 		ubfx	r3, r3, #0, #2
 1151 0038 DBB2     		uxtb	r3, r3
 1152              		.loc 1 362 29
 1153 003a 1B01     		lsls	r3, r3, #4
 1154              		.loc 1 362 42
 1155 003c 3A7C     		ldrb	r2, [r7, #16]
 1156 003e C2F30312 		ubfx	r2, r2, #4, #4
 1157 0042 D2B2     		uxtb	r2, r2
 1158              		.loc 1 362 35
 1159 0044 1344     		add	r3, r3, r2
 1160              		.loc 1 362 5
 1161 0046 322B     		cmp	r3, #50
 1162 0048 00F29A80 		bhi	.L78
 1163 004c 01A2     		adr	r2, .L80
 1164 004e 52F823F0 		ldr	pc, [r2, r3, lsl #2]
 1165 0052 00BF     		.p2align 2
 1166              	.L80:
 1167 0054 21010000 		.word	.L91+1
 1168 0058 29010000 		.word	.L90+1
 1169 005c 31010000 		.word	.L89+1
 1170 0060 39010000 		.word	.L88+1
 1171 0064 41010000 		.word	.L87+1
 1172 0068 49010000 		.word	.L86+1
 1173 006c 51010000 		.word	.L85+1
 1174 0070 59010000 		.word	.L84+1
 1175 0074 61010000 		.word	.L83+1
 1176 0078 69010000 		.word	.L82+1
 1177 007c 81010000 		.word	.L78+1
 1178 0080 81010000 		.word	.L78+1
 1179 0084 81010000 		.word	.L78+1
 1180 0088 81010000 		.word	.L78+1
 1181 008c 81010000 		.word	.L78+1
 1182 0090 81010000 		.word	.L78+1
 1183 0094 81010000 		.word	.L78+1
 1184 0098 81010000 		.word	.L78+1
 1185 009c 79010000 		.word	.L81+1
 1186 00a0 81010000 		.word	.L78+1
 1187 00a4 81010000 		.word	.L78+1
 1188 00a8 81010000 		.word	.L78+1
 1189 00ac 81010000 		.word	.L78+1
 1190 00b0 81010000 		.word	.L78+1
 1191 00b4 81010000 		.word	.L78+1
 1192 00b8 81010000 		.word	.L78+1
 1193 00bc 81010000 		.word	.L78+1
 1194 00c0 81010000 		.word	.L78+1
 1195 00c4 81010000 		.word	.L78+1
 1196 00c8 81010000 		.word	.L78+1
 1197 00cc 81010000 		.word	.L78+1
 1198 00d0 81010000 		.word	.L78+1
 1199 00d4 81010000 		.word	.L78+1
 1200 00d8 81010000 		.word	.L78+1
 1201 00dc 81010000 		.word	.L78+1
 1202 00e0 81010000 		.word	.L78+1
 1203 00e4 81010000 		.word	.L78+1
 1204 00e8 81010000 		.word	.L78+1
ARM GAS  C:\Users\vct344\AppData\Local\Temp\ccePc7Ac.s 			page 28


 1205 00ec 81010000 		.word	.L78+1
 1206 00f0 81010000 		.word	.L78+1
 1207 00f4 81010000 		.word	.L78+1
 1208 00f8 81010000 		.word	.L78+1
 1209 00fc 81010000 		.word	.L78+1
 1210 0100 81010000 		.word	.L78+1
 1211 0104 81010000 		.word	.L78+1
 1212 0108 81010000 		.word	.L78+1
 1213 010c 81010000 		.word	.L78+1
 1214 0110 81010000 		.word	.L78+1
 1215 0114 81010000 		.word	.L78+1
 1216 0118 81010000 		.word	.L78+1
 1217 011c 71010000 		.word	.L79+1
 1218              		.p2align 1
 1219              	.L91:
 363:Core/Src/lis2dw12_reg.c ****     {
 364:Core/Src/lis2dw12_reg.c ****       case LIS2DW12_XL_ODR_OFF:
 365:Core/Src/lis2dw12_reg.c ****         *val = LIS2DW12_XL_ODR_OFF;
 1220              		.loc 1 365 14
 1221 0120 3B68     		ldr	r3, [r7]
 1222 0122 0022     		movs	r2, #0
 1223 0124 1A70     		strb	r2, [r3]
 366:Core/Src/lis2dw12_reg.c ****         break;
 1224              		.loc 1 366 9
 1225 0126 2FE0     		b	.L77
 1226              	.L90:
 367:Core/Src/lis2dw12_reg.c **** 
 368:Core/Src/lis2dw12_reg.c ****       case LIS2DW12_XL_ODR_1Hz6_LP_ONLY:
 369:Core/Src/lis2dw12_reg.c ****         *val = LIS2DW12_XL_ODR_1Hz6_LP_ONLY;
 1227              		.loc 1 369 14
 1228 0128 3B68     		ldr	r3, [r7]
 1229 012a 0122     		movs	r2, #1
 1230 012c 1A70     		strb	r2, [r3]
 370:Core/Src/lis2dw12_reg.c ****         break;
 1231              		.loc 1 370 9
 1232 012e 2BE0     		b	.L77
 1233              	.L89:
 371:Core/Src/lis2dw12_reg.c **** 
 372:Core/Src/lis2dw12_reg.c ****       case LIS2DW12_XL_ODR_12Hz5:
 373:Core/Src/lis2dw12_reg.c ****         *val = LIS2DW12_XL_ODR_12Hz5;
 1234              		.loc 1 373 14
 1235 0130 3B68     		ldr	r3, [r7]
 1236 0132 0222     		movs	r2, #2
 1237 0134 1A70     		strb	r2, [r3]
 374:Core/Src/lis2dw12_reg.c ****         break;
 1238              		.loc 1 374 9
 1239 0136 27E0     		b	.L77
 1240              	.L88:
 375:Core/Src/lis2dw12_reg.c **** 
 376:Core/Src/lis2dw12_reg.c ****       case LIS2DW12_XL_ODR_25Hz:
 377:Core/Src/lis2dw12_reg.c ****         *val = LIS2DW12_XL_ODR_25Hz;
 1241              		.loc 1 377 14
 1242 0138 3B68     		ldr	r3, [r7]
 1243 013a 0322     		movs	r2, #3
 1244 013c 1A70     		strb	r2, [r3]
 378:Core/Src/lis2dw12_reg.c ****         break;
 1245              		.loc 1 378 9
ARM GAS  C:\Users\vct344\AppData\Local\Temp\ccePc7Ac.s 			page 29


 1246 013e 23E0     		b	.L77
 1247              	.L87:
 379:Core/Src/lis2dw12_reg.c **** 
 380:Core/Src/lis2dw12_reg.c ****       case LIS2DW12_XL_ODR_50Hz:
 381:Core/Src/lis2dw12_reg.c ****         *val = LIS2DW12_XL_ODR_50Hz;
 1248              		.loc 1 381 14
 1249 0140 3B68     		ldr	r3, [r7]
 1250 0142 0422     		movs	r2, #4
 1251 0144 1A70     		strb	r2, [r3]
 382:Core/Src/lis2dw12_reg.c ****         break;
 1252              		.loc 1 382 9
 1253 0146 1FE0     		b	.L77
 1254              	.L86:
 383:Core/Src/lis2dw12_reg.c **** 
 384:Core/Src/lis2dw12_reg.c ****       case LIS2DW12_XL_ODR_100Hz:
 385:Core/Src/lis2dw12_reg.c ****         *val = LIS2DW12_XL_ODR_100Hz;
 1255              		.loc 1 385 14
 1256 0148 3B68     		ldr	r3, [r7]
 1257 014a 0522     		movs	r2, #5
 1258 014c 1A70     		strb	r2, [r3]
 386:Core/Src/lis2dw12_reg.c ****         break;
 1259              		.loc 1 386 9
 1260 014e 1BE0     		b	.L77
 1261              	.L85:
 387:Core/Src/lis2dw12_reg.c **** 
 388:Core/Src/lis2dw12_reg.c ****       case LIS2DW12_XL_ODR_200Hz:
 389:Core/Src/lis2dw12_reg.c ****         *val = LIS2DW12_XL_ODR_200Hz;
 1262              		.loc 1 389 14
 1263 0150 3B68     		ldr	r3, [r7]
 1264 0152 0622     		movs	r2, #6
 1265 0154 1A70     		strb	r2, [r3]
 390:Core/Src/lis2dw12_reg.c ****         break;
 1266              		.loc 1 390 9
 1267 0156 17E0     		b	.L77
 1268              	.L84:
 391:Core/Src/lis2dw12_reg.c **** 
 392:Core/Src/lis2dw12_reg.c ****       case LIS2DW12_XL_ODR_400Hz:
 393:Core/Src/lis2dw12_reg.c ****         *val = LIS2DW12_XL_ODR_400Hz;
 1269              		.loc 1 393 14
 1270 0158 3B68     		ldr	r3, [r7]
 1271 015a 0722     		movs	r2, #7
 1272 015c 1A70     		strb	r2, [r3]
 394:Core/Src/lis2dw12_reg.c ****         break;
 1273              		.loc 1 394 9
 1274 015e 13E0     		b	.L77
 1275              	.L83:
 395:Core/Src/lis2dw12_reg.c **** 
 396:Core/Src/lis2dw12_reg.c ****       case LIS2DW12_XL_ODR_800Hz:
 397:Core/Src/lis2dw12_reg.c ****         *val = LIS2DW12_XL_ODR_800Hz;
 1276              		.loc 1 397 14
 1277 0160 3B68     		ldr	r3, [r7]
 1278 0162 0822     		movs	r2, #8
 1279 0164 1A70     		strb	r2, [r3]
 398:Core/Src/lis2dw12_reg.c ****         break;
 1280              		.loc 1 398 9
 1281 0166 0FE0     		b	.L77
 1282              	.L82:
ARM GAS  C:\Users\vct344\AppData\Local\Temp\ccePc7Ac.s 			page 30


 399:Core/Src/lis2dw12_reg.c **** 
 400:Core/Src/lis2dw12_reg.c ****       case LIS2DW12_XL_ODR_1k6Hz:
 401:Core/Src/lis2dw12_reg.c ****         *val = LIS2DW12_XL_ODR_1k6Hz;
 1283              		.loc 1 401 14
 1284 0168 3B68     		ldr	r3, [r7]
 1285 016a 0922     		movs	r2, #9
 1286 016c 1A70     		strb	r2, [r3]
 402:Core/Src/lis2dw12_reg.c ****         break;
 1287              		.loc 1 402 9
 1288 016e 0BE0     		b	.L77
 1289              	.L79:
 403:Core/Src/lis2dw12_reg.c **** 
 404:Core/Src/lis2dw12_reg.c ****       case LIS2DW12_XL_SET_SW_TRIG:
 405:Core/Src/lis2dw12_reg.c ****         *val = LIS2DW12_XL_SET_SW_TRIG;
 1290              		.loc 1 405 14
 1291 0170 3B68     		ldr	r3, [r7]
 1292 0172 3222     		movs	r2, #50
 1293 0174 1A70     		strb	r2, [r3]
 406:Core/Src/lis2dw12_reg.c ****         break;
 1294              		.loc 1 406 9
 1295 0176 07E0     		b	.L77
 1296              	.L81:
 407:Core/Src/lis2dw12_reg.c **** 
 408:Core/Src/lis2dw12_reg.c ****       case LIS2DW12_XL_SET_PIN_TRIG:
 409:Core/Src/lis2dw12_reg.c ****         *val = LIS2DW12_XL_SET_PIN_TRIG;
 1297              		.loc 1 409 14
 1298 0178 3B68     		ldr	r3, [r7]
 1299 017a 1222     		movs	r2, #18
 1300 017c 1A70     		strb	r2, [r3]
 410:Core/Src/lis2dw12_reg.c ****         break;
 1301              		.loc 1 410 9
 1302 017e 03E0     		b	.L77
 1303              	.L78:
 411:Core/Src/lis2dw12_reg.c **** 
 412:Core/Src/lis2dw12_reg.c ****       default:
 413:Core/Src/lis2dw12_reg.c ****         *val = LIS2DW12_XL_ODR_OFF;
 1304              		.loc 1 413 14
 1305 0180 3B68     		ldr	r3, [r7]
 1306 0182 0022     		movs	r2, #0
 1307 0184 1A70     		strb	r2, [r3]
 414:Core/Src/lis2dw12_reg.c ****         break;
 1308              		.loc 1 414 9
 1309 0186 00BF     		nop
 1310              	.L77:
 415:Core/Src/lis2dw12_reg.c ****     }
 416:Core/Src/lis2dw12_reg.c ****   }
 417:Core/Src/lis2dw12_reg.c **** 
 418:Core/Src/lis2dw12_reg.c ****   return ret;
 1311              		.loc 1 418 10
 1312 0188 7B69     		ldr	r3, [r7, #20]
 419:Core/Src/lis2dw12_reg.c **** }
 1313              		.loc 1 419 1
 1314 018a 1846     		mov	r0, r3
 1315 018c 1837     		adds	r7, r7, #24
 1316              	.LCFI73:
 1317              		.cfi_def_cfa_offset 8
 1318 018e BD46     		mov	sp, r7
ARM GAS  C:\Users\vct344\AppData\Local\Temp\ccePc7Ac.s 			page 31


 1319              	.LCFI74:
 1320              		.cfi_def_cfa_register 13
 1321              		@ sp needed
 1322 0190 80BD     		pop	{r7, pc}
 1323              		.cfi_endproc
 1324              	.LFE14:
 1326 0192 00BF     		.section	.text.lis2dw12_block_data_update_set,"ax",%progbits
 1327              		.align	1
 1328              		.global	lis2dw12_block_data_update_set
 1329              		.syntax unified
 1330              		.thumb
 1331              		.thumb_func
 1333              	lis2dw12_block_data_update_set:
 1334              	.LFB15:
 420:Core/Src/lis2dw12_reg.c **** 
 421:Core/Src/lis2dw12_reg.c **** /**
 422:Core/Src/lis2dw12_reg.c ****   * @brief  Block data update.[set]
 423:Core/Src/lis2dw12_reg.c ****   *
 424:Core/Src/lis2dw12_reg.c ****   * @param  ctx      read / write interface definitions
 425:Core/Src/lis2dw12_reg.c ****   * @param  val      change the values of bdu in reg CTRL2
 426:Core/Src/lis2dw12_reg.c ****   * @retval          interface status (MANDATORY: return 0 -> no Error)
 427:Core/Src/lis2dw12_reg.c ****   *
 428:Core/Src/lis2dw12_reg.c ****   */
 429:Core/Src/lis2dw12_reg.c **** int32_t lis2dw12_block_data_update_set(const stmdev_ctx_t *ctx, uint8_t val)
 430:Core/Src/lis2dw12_reg.c **** {
 1335              		.loc 1 430 1
 1336              		.cfi_startproc
 1337              		@ args = 0, pretend = 0, frame = 16
 1338              		@ frame_needed = 1, uses_anonymous_args = 0
 1339 0000 80B5     		push	{r7, lr}
 1340              	.LCFI75:
 1341              		.cfi_def_cfa_offset 8
 1342              		.cfi_offset 7, -8
 1343              		.cfi_offset 14, -4
 1344 0002 84B0     		sub	sp, sp, #16
 1345              	.LCFI76:
 1346              		.cfi_def_cfa_offset 24
 1347 0004 00AF     		add	r7, sp, #0
 1348              	.LCFI77:
 1349              		.cfi_def_cfa_register 7
 1350 0006 7860     		str	r0, [r7, #4]
 1351 0008 0B46     		mov	r3, r1
 1352 000a FB70     		strb	r3, [r7, #3]
 431:Core/Src/lis2dw12_reg.c ****   lis2dw12_ctrl2_t reg;
 432:Core/Src/lis2dw12_reg.c ****   int32_t ret;
 433:Core/Src/lis2dw12_reg.c **** 
 434:Core/Src/lis2dw12_reg.c ****   ret = lis2dw12_read_reg(ctx, LIS2DW12_CTRL2, (uint8_t *) &reg, 1);
 1353              		.loc 1 434 9
 1354 000c 07F10802 		add	r2, r7, #8
 1355 0010 0123     		movs	r3, #1
 1356 0012 2121     		movs	r1, #33
 1357 0014 7868     		ldr	r0, [r7, #4]
 1358 0016 FFF7FEFF 		bl	lis2dw12_read_reg
 1359 001a F860     		str	r0, [r7, #12]
 435:Core/Src/lis2dw12_reg.c **** 
 436:Core/Src/lis2dw12_reg.c ****   if (ret == 0)
 1360              		.loc 1 436 6
ARM GAS  C:\Users\vct344\AppData\Local\Temp\ccePc7Ac.s 			page 32


 1361 001c FB68     		ldr	r3, [r7, #12]
 1362 001e 002B     		cmp	r3, #0
 1363 0020 0FD1     		bne	.L94
 437:Core/Src/lis2dw12_reg.c ****   {
 438:Core/Src/lis2dw12_reg.c ****     reg.bdu = val;
 1364              		.loc 1 438 13
 1365 0022 FB78     		ldrb	r3, [r7, #3]
 1366 0024 03F00103 		and	r3, r3, #1
 1367 0028 DAB2     		uxtb	r2, r3
 1368 002a 3B7A     		ldrb	r3, [r7, #8]
 1369 002c 62F3C303 		bfi	r3, r2, #3, #1
 1370 0030 3B72     		strb	r3, [r7, #8]
 439:Core/Src/lis2dw12_reg.c ****     ret = lis2dw12_write_reg(ctx, LIS2DW12_CTRL2, (uint8_t *) &reg, 1);
 1371              		.loc 1 439 11
 1372 0032 07F10802 		add	r2, r7, #8
 1373 0036 0123     		movs	r3, #1
 1374 0038 2121     		movs	r1, #33
 1375 003a 7868     		ldr	r0, [r7, #4]
 1376 003c FFF7FEFF 		bl	lis2dw12_write_reg
 1377 0040 F860     		str	r0, [r7, #12]
 1378              	.L94:
 440:Core/Src/lis2dw12_reg.c ****   }
 441:Core/Src/lis2dw12_reg.c **** 
 442:Core/Src/lis2dw12_reg.c ****   return ret;
 1379              		.loc 1 442 10
 1380 0042 FB68     		ldr	r3, [r7, #12]
 443:Core/Src/lis2dw12_reg.c **** }
 1381              		.loc 1 443 1
 1382 0044 1846     		mov	r0, r3
 1383 0046 1037     		adds	r7, r7, #16
 1384              	.LCFI78:
 1385              		.cfi_def_cfa_offset 8
 1386 0048 BD46     		mov	sp, r7
 1387              	.LCFI79:
 1388              		.cfi_def_cfa_register 13
 1389              		@ sp needed
 1390 004a 80BD     		pop	{r7, pc}
 1391              		.cfi_endproc
 1392              	.LFE15:
 1394              		.section	.text.lis2dw12_block_data_update_get,"ax",%progbits
 1395              		.align	1
 1396              		.global	lis2dw12_block_data_update_get
 1397              		.syntax unified
 1398              		.thumb
 1399              		.thumb_func
 1401              	lis2dw12_block_data_update_get:
 1402              	.LFB16:
 444:Core/Src/lis2dw12_reg.c **** 
 445:Core/Src/lis2dw12_reg.c **** /**
 446:Core/Src/lis2dw12_reg.c ****   * @brief  Block data update.[get]
 447:Core/Src/lis2dw12_reg.c ****   *
 448:Core/Src/lis2dw12_reg.c ****   * @param  ctx      read / write interface definitions
 449:Core/Src/lis2dw12_reg.c ****   * @param  val      change the values of bdu in reg CTRL2
 450:Core/Src/lis2dw12_reg.c ****   * @retval          interface status (MANDATORY: return 0 -> no Error)
 451:Core/Src/lis2dw12_reg.c ****   *
 452:Core/Src/lis2dw12_reg.c ****   */
 453:Core/Src/lis2dw12_reg.c **** int32_t lis2dw12_block_data_update_get(const stmdev_ctx_t *ctx,
ARM GAS  C:\Users\vct344\AppData\Local\Temp\ccePc7Ac.s 			page 33


 454:Core/Src/lis2dw12_reg.c ****                                        uint8_t *val)
 455:Core/Src/lis2dw12_reg.c **** {
 1403              		.loc 1 455 1
 1404              		.cfi_startproc
 1405              		@ args = 0, pretend = 0, frame = 16
 1406              		@ frame_needed = 1, uses_anonymous_args = 0
 1407 0000 80B5     		push	{r7, lr}
 1408              	.LCFI80:
 1409              		.cfi_def_cfa_offset 8
 1410              		.cfi_offset 7, -8
 1411              		.cfi_offset 14, -4
 1412 0002 84B0     		sub	sp, sp, #16
 1413              	.LCFI81:
 1414              		.cfi_def_cfa_offset 24
 1415 0004 00AF     		add	r7, sp, #0
 1416              	.LCFI82:
 1417              		.cfi_def_cfa_register 7
 1418 0006 7860     		str	r0, [r7, #4]
 1419 0008 3960     		str	r1, [r7]
 456:Core/Src/lis2dw12_reg.c ****   lis2dw12_ctrl2_t reg;
 457:Core/Src/lis2dw12_reg.c ****   int32_t ret;
 458:Core/Src/lis2dw12_reg.c **** 
 459:Core/Src/lis2dw12_reg.c ****   ret = lis2dw12_read_reg(ctx, LIS2DW12_CTRL2, (uint8_t *) &reg, 1);
 1420              		.loc 1 459 9
 1421 000a 07F10802 		add	r2, r7, #8
 1422 000e 0123     		movs	r3, #1
 1423 0010 2121     		movs	r1, #33
 1424 0012 7868     		ldr	r0, [r7, #4]
 1425 0014 FFF7FEFF 		bl	lis2dw12_read_reg
 1426 0018 F860     		str	r0, [r7, #12]
 460:Core/Src/lis2dw12_reg.c ****   *val = reg.bdu;
 1427              		.loc 1 460 13
 1428 001a 3B7A     		ldrb	r3, [r7, #8]
 1429 001c C3F3C003 		ubfx	r3, r3, #3, #1
 1430 0020 DBB2     		uxtb	r3, r3
 1431 0022 1A46     		mov	r2, r3
 1432              		.loc 1 460 8
 1433 0024 3B68     		ldr	r3, [r7]
 1434 0026 1A70     		strb	r2, [r3]
 461:Core/Src/lis2dw12_reg.c **** 
 462:Core/Src/lis2dw12_reg.c ****   return ret;
 1435              		.loc 1 462 10
 1436 0028 FB68     		ldr	r3, [r7, #12]
 463:Core/Src/lis2dw12_reg.c **** }
 1437              		.loc 1 463 1
 1438 002a 1846     		mov	r0, r3
 1439 002c 1037     		adds	r7, r7, #16
 1440              	.LCFI83:
 1441              		.cfi_def_cfa_offset 8
 1442 002e BD46     		mov	sp, r7
 1443              	.LCFI84:
 1444              		.cfi_def_cfa_register 13
 1445              		@ sp needed
 1446 0030 80BD     		pop	{r7, pc}
 1447              		.cfi_endproc
 1448              	.LFE16:
 1450              		.section	.text.lis2dw12_full_scale_set,"ax",%progbits
ARM GAS  C:\Users\vct344\AppData\Local\Temp\ccePc7Ac.s 			page 34


 1451              		.align	1
 1452              		.global	lis2dw12_full_scale_set
 1453              		.syntax unified
 1454              		.thumb
 1455              		.thumb_func
 1457              	lis2dw12_full_scale_set:
 1458              	.LFB17:
 464:Core/Src/lis2dw12_reg.c **** 
 465:Core/Src/lis2dw12_reg.c **** /**
 466:Core/Src/lis2dw12_reg.c ****   * @brief  Accelerometer full-scale selection.[set]
 467:Core/Src/lis2dw12_reg.c ****   *
 468:Core/Src/lis2dw12_reg.c ****   * @param  ctx      read / write interface definitions
 469:Core/Src/lis2dw12_reg.c ****   * @param  val      change the values of fs in reg CTRL6
 470:Core/Src/lis2dw12_reg.c ****   * @retval          interface status (MANDATORY: return 0 -> no Error)
 471:Core/Src/lis2dw12_reg.c ****   *
 472:Core/Src/lis2dw12_reg.c ****   */
 473:Core/Src/lis2dw12_reg.c **** int32_t lis2dw12_full_scale_set(const stmdev_ctx_t *ctx, lis2dw12_fs_t val)
 474:Core/Src/lis2dw12_reg.c **** {
 1459              		.loc 1 474 1
 1460              		.cfi_startproc
 1461              		@ args = 0, pretend = 0, frame = 16
 1462              		@ frame_needed = 1, uses_anonymous_args = 0
 1463 0000 80B5     		push	{r7, lr}
 1464              	.LCFI85:
 1465              		.cfi_def_cfa_offset 8
 1466              		.cfi_offset 7, -8
 1467              		.cfi_offset 14, -4
 1468 0002 84B0     		sub	sp, sp, #16
 1469              	.LCFI86:
 1470              		.cfi_def_cfa_offset 24
 1471 0004 00AF     		add	r7, sp, #0
 1472              	.LCFI87:
 1473              		.cfi_def_cfa_register 7
 1474 0006 7860     		str	r0, [r7, #4]
 1475 0008 0B46     		mov	r3, r1
 1476 000a FB70     		strb	r3, [r7, #3]
 475:Core/Src/lis2dw12_reg.c ****   lis2dw12_ctrl6_t reg;
 476:Core/Src/lis2dw12_reg.c ****   int32_t ret;
 477:Core/Src/lis2dw12_reg.c **** 
 478:Core/Src/lis2dw12_reg.c ****   ret = lis2dw12_read_reg(ctx, LIS2DW12_CTRL6, (uint8_t *) &reg, 1);
 1477              		.loc 1 478 9
 1478 000c 07F10802 		add	r2, r7, #8
 1479 0010 0123     		movs	r3, #1
 1480 0012 2521     		movs	r1, #37
 1481 0014 7868     		ldr	r0, [r7, #4]
 1482 0016 FFF7FEFF 		bl	lis2dw12_read_reg
 1483 001a F860     		str	r0, [r7, #12]
 479:Core/Src/lis2dw12_reg.c **** 
 480:Core/Src/lis2dw12_reg.c ****   if (ret == 0)
 1484              		.loc 1 480 6
 1485 001c FB68     		ldr	r3, [r7, #12]
 1486 001e 002B     		cmp	r3, #0
 1487 0020 0FD1     		bne	.L99
 481:Core/Src/lis2dw12_reg.c ****   {
 482:Core/Src/lis2dw12_reg.c ****     reg.fs = (uint8_t) val;
 1488              		.loc 1 482 14
 1489 0022 FB78     		ldrb	r3, [r7, #3]
ARM GAS  C:\Users\vct344\AppData\Local\Temp\ccePc7Ac.s 			page 35


 1490 0024 03F00303 		and	r3, r3, #3
 1491 0028 DAB2     		uxtb	r2, r3
 1492              		.loc 1 482 12
 1493 002a 3B7A     		ldrb	r3, [r7, #8]
 1494 002c 62F30513 		bfi	r3, r2, #4, #2
 1495 0030 3B72     		strb	r3, [r7, #8]
 483:Core/Src/lis2dw12_reg.c ****     ret = lis2dw12_write_reg(ctx, LIS2DW12_CTRL6, (uint8_t *) &reg, 1);
 1496              		.loc 1 483 11
 1497 0032 07F10802 		add	r2, r7, #8
 1498 0036 0123     		movs	r3, #1
 1499 0038 2521     		movs	r1, #37
 1500 003a 7868     		ldr	r0, [r7, #4]
 1501 003c FFF7FEFF 		bl	lis2dw12_write_reg
 1502 0040 F860     		str	r0, [r7, #12]
 1503              	.L99:
 484:Core/Src/lis2dw12_reg.c ****   }
 485:Core/Src/lis2dw12_reg.c **** 
 486:Core/Src/lis2dw12_reg.c ****   return ret;
 1504              		.loc 1 486 10
 1505 0042 FB68     		ldr	r3, [r7, #12]
 487:Core/Src/lis2dw12_reg.c **** }
 1506              		.loc 1 487 1
 1507 0044 1846     		mov	r0, r3
 1508 0046 1037     		adds	r7, r7, #16
 1509              	.LCFI88:
 1510              		.cfi_def_cfa_offset 8
 1511 0048 BD46     		mov	sp, r7
 1512              	.LCFI89:
 1513              		.cfi_def_cfa_register 13
 1514              		@ sp needed
 1515 004a 80BD     		pop	{r7, pc}
 1516              		.cfi_endproc
 1517              	.LFE17:
 1519              		.section	.text.lis2dw12_full_scale_get,"ax",%progbits
 1520              		.align	1
 1521              		.global	lis2dw12_full_scale_get
 1522              		.syntax unified
 1523              		.thumb
 1524              		.thumb_func
 1526              	lis2dw12_full_scale_get:
 1527              	.LFB18:
 488:Core/Src/lis2dw12_reg.c **** 
 489:Core/Src/lis2dw12_reg.c **** /**
 490:Core/Src/lis2dw12_reg.c ****   * @brief  Accelerometer full-scale selection.[get]
 491:Core/Src/lis2dw12_reg.c ****   *
 492:Core/Src/lis2dw12_reg.c ****   * @param  ctx      read / write interface definitions
 493:Core/Src/lis2dw12_reg.c ****   * @param  val      Get the values of fs in reg CTRL6
 494:Core/Src/lis2dw12_reg.c ****   * @retval          interface status (MANDATORY: return 0 -> no Error)
 495:Core/Src/lis2dw12_reg.c ****   *
 496:Core/Src/lis2dw12_reg.c ****   */
 497:Core/Src/lis2dw12_reg.c **** int32_t lis2dw12_full_scale_get(const stmdev_ctx_t *ctx, lis2dw12_fs_t *val)
 498:Core/Src/lis2dw12_reg.c **** {
 1528              		.loc 1 498 1
 1529              		.cfi_startproc
 1530              		@ args = 0, pretend = 0, frame = 16
 1531              		@ frame_needed = 1, uses_anonymous_args = 0
 1532 0000 80B5     		push	{r7, lr}
ARM GAS  C:\Users\vct344\AppData\Local\Temp\ccePc7Ac.s 			page 36


 1533              	.LCFI90:
 1534              		.cfi_def_cfa_offset 8
 1535              		.cfi_offset 7, -8
 1536              		.cfi_offset 14, -4
 1537 0002 84B0     		sub	sp, sp, #16
 1538              	.LCFI91:
 1539              		.cfi_def_cfa_offset 24
 1540 0004 00AF     		add	r7, sp, #0
 1541              	.LCFI92:
 1542              		.cfi_def_cfa_register 7
 1543 0006 7860     		str	r0, [r7, #4]
 1544 0008 3960     		str	r1, [r7]
 499:Core/Src/lis2dw12_reg.c ****   lis2dw12_ctrl6_t reg;
 500:Core/Src/lis2dw12_reg.c ****   int32_t ret;
 501:Core/Src/lis2dw12_reg.c **** 
 502:Core/Src/lis2dw12_reg.c ****   ret = lis2dw12_read_reg(ctx, LIS2DW12_CTRL6, (uint8_t *) &reg, 1);
 1545              		.loc 1 502 9
 1546 000a 07F10802 		add	r2, r7, #8
 1547 000e 0123     		movs	r3, #1
 1548 0010 2521     		movs	r1, #37
 1549 0012 7868     		ldr	r0, [r7, #4]
 1550 0014 FFF7FEFF 		bl	lis2dw12_read_reg
 1551 0018 F860     		str	r0, [r7, #12]
 503:Core/Src/lis2dw12_reg.c **** 
 504:Core/Src/lis2dw12_reg.c ****   switch (reg.fs)
 1552              		.loc 1 504 14
 1553 001a 3B7A     		ldrb	r3, [r7, #8]
 1554 001c C3F30113 		ubfx	r3, r3, #4, #2
 1555 0020 DBB2     		uxtb	r3, r3
 1556              		.loc 1 504 3
 1557 0022 032B     		cmp	r3, #3
 1558 0024 1AD8     		bhi	.L102
 1559 0026 01A2     		adr	r2, .L104
 1560 0028 52F823F0 		ldr	pc, [r2, r3, lsl #2]
 1561              		.p2align 2
 1562              	.L104:
 1563 002c 3D000000 		.word	.L107+1
 1564 0030 45000000 		.word	.L106+1
 1565 0034 4D000000 		.word	.L105+1
 1566 0038 55000000 		.word	.L103+1
 1567              		.p2align 1
 1568              	.L107:
 505:Core/Src/lis2dw12_reg.c ****   {
 506:Core/Src/lis2dw12_reg.c ****     case LIS2DW12_2g:
 507:Core/Src/lis2dw12_reg.c ****       *val = LIS2DW12_2g;
 1569              		.loc 1 507 12
 1570 003c 3B68     		ldr	r3, [r7]
 1571 003e 0022     		movs	r2, #0
 1572 0040 1A70     		strb	r2, [r3]
 508:Core/Src/lis2dw12_reg.c ****       break;
 1573              		.loc 1 508 7
 1574 0042 0FE0     		b	.L108
 1575              	.L106:
 509:Core/Src/lis2dw12_reg.c **** 
 510:Core/Src/lis2dw12_reg.c ****     case LIS2DW12_4g:
 511:Core/Src/lis2dw12_reg.c ****       *val = LIS2DW12_4g;
 1576              		.loc 1 511 12
ARM GAS  C:\Users\vct344\AppData\Local\Temp\ccePc7Ac.s 			page 37


 1577 0044 3B68     		ldr	r3, [r7]
 1578 0046 0122     		movs	r2, #1
 1579 0048 1A70     		strb	r2, [r3]
 512:Core/Src/lis2dw12_reg.c ****       break;
 1580              		.loc 1 512 7
 1581 004a 0BE0     		b	.L108
 1582              	.L105:
 513:Core/Src/lis2dw12_reg.c **** 
 514:Core/Src/lis2dw12_reg.c ****     case LIS2DW12_8g:
 515:Core/Src/lis2dw12_reg.c ****       *val = LIS2DW12_8g;
 1583              		.loc 1 515 12
 1584 004c 3B68     		ldr	r3, [r7]
 1585 004e 0222     		movs	r2, #2
 1586 0050 1A70     		strb	r2, [r3]
 516:Core/Src/lis2dw12_reg.c ****       break;
 1587              		.loc 1 516 7
 1588 0052 07E0     		b	.L108
 1589              	.L103:
 517:Core/Src/lis2dw12_reg.c **** 
 518:Core/Src/lis2dw12_reg.c ****     case LIS2DW12_16g:
 519:Core/Src/lis2dw12_reg.c ****       *val = LIS2DW12_16g;
 1590              		.loc 1 519 12
 1591 0054 3B68     		ldr	r3, [r7]
 1592 0056 0322     		movs	r2, #3
 1593 0058 1A70     		strb	r2, [r3]
 520:Core/Src/lis2dw12_reg.c ****       break;
 1594              		.loc 1 520 7
 1595 005a 03E0     		b	.L108
 1596              	.L102:
 521:Core/Src/lis2dw12_reg.c **** 
 522:Core/Src/lis2dw12_reg.c ****     default:
 523:Core/Src/lis2dw12_reg.c ****       *val = LIS2DW12_2g;
 1597              		.loc 1 523 12
 1598 005c 3B68     		ldr	r3, [r7]
 1599 005e 0022     		movs	r2, #0
 1600 0060 1A70     		strb	r2, [r3]
 524:Core/Src/lis2dw12_reg.c ****       break;
 1601              		.loc 1 524 7
 1602 0062 00BF     		nop
 1603              	.L108:
 525:Core/Src/lis2dw12_reg.c ****   }
 526:Core/Src/lis2dw12_reg.c **** 
 527:Core/Src/lis2dw12_reg.c ****   return ret;
 1604              		.loc 1 527 10
 1605 0064 FB68     		ldr	r3, [r7, #12]
 528:Core/Src/lis2dw12_reg.c **** }
 1606              		.loc 1 528 1
 1607 0066 1846     		mov	r0, r3
 1608 0068 1037     		adds	r7, r7, #16
 1609              	.LCFI93:
 1610              		.cfi_def_cfa_offset 8
 1611 006a BD46     		mov	sp, r7
 1612              	.LCFI94:
 1613              		.cfi_def_cfa_register 13
 1614              		@ sp needed
 1615 006c 80BD     		pop	{r7, pc}
 1616              		.cfi_endproc
ARM GAS  C:\Users\vct344\AppData\Local\Temp\ccePc7Ac.s 			page 38


 1617              	.LFE18:
 1619 006e 00BF     		.section	.text.lis2dw12_status_reg_get,"ax",%progbits
 1620              		.align	1
 1621              		.global	lis2dw12_status_reg_get
 1622              		.syntax unified
 1623              		.thumb
 1624              		.thumb_func
 1626              	lis2dw12_status_reg_get:
 1627              	.LFB19:
 529:Core/Src/lis2dw12_reg.c **** 
 530:Core/Src/lis2dw12_reg.c **** /**
 531:Core/Src/lis2dw12_reg.c ****   * @brief  The STATUS_REG register of the device.[get]
 532:Core/Src/lis2dw12_reg.c ****   *
 533:Core/Src/lis2dw12_reg.c ****   * @param  ctx      read / write interface definitions
 534:Core/Src/lis2dw12_reg.c ****   * @param  val      union of registers from STATUS to
 535:Core/Src/lis2dw12_reg.c ****   * @retval          interface status (MANDATORY: return 0 -> no Error)
 536:Core/Src/lis2dw12_reg.c ****   *
 537:Core/Src/lis2dw12_reg.c ****   */
 538:Core/Src/lis2dw12_reg.c **** int32_t lis2dw12_status_reg_get(const stmdev_ctx_t *ctx,
 539:Core/Src/lis2dw12_reg.c ****                                 lis2dw12_status_t *val)
 540:Core/Src/lis2dw12_reg.c **** {
 1628              		.loc 1 540 1
 1629              		.cfi_startproc
 1630              		@ args = 0, pretend = 0, frame = 16
 1631              		@ frame_needed = 1, uses_anonymous_args = 0
 1632 0000 80B5     		push	{r7, lr}
 1633              	.LCFI95:
 1634              		.cfi_def_cfa_offset 8
 1635              		.cfi_offset 7, -8
 1636              		.cfi_offset 14, -4
 1637 0002 84B0     		sub	sp, sp, #16
 1638              	.LCFI96:
 1639              		.cfi_def_cfa_offset 24
 1640 0004 00AF     		add	r7, sp, #0
 1641              	.LCFI97:
 1642              		.cfi_def_cfa_register 7
 1643 0006 7860     		str	r0, [r7, #4]
 1644 0008 3960     		str	r1, [r7]
 541:Core/Src/lis2dw12_reg.c ****   int32_t ret;
 542:Core/Src/lis2dw12_reg.c **** 
 543:Core/Src/lis2dw12_reg.c ****   ret = lis2dw12_read_reg(ctx, LIS2DW12_STATUS, (uint8_t *) val, 1);
 1645              		.loc 1 543 9
 1646 000a 0123     		movs	r3, #1
 1647 000c 3A68     		ldr	r2, [r7]
 1648 000e 2721     		movs	r1, #39
 1649 0010 7868     		ldr	r0, [r7, #4]
 1650 0012 FFF7FEFF 		bl	lis2dw12_read_reg
 1651 0016 F860     		str	r0, [r7, #12]
 544:Core/Src/lis2dw12_reg.c **** 
 545:Core/Src/lis2dw12_reg.c ****   return ret;
 1652              		.loc 1 545 10
 1653 0018 FB68     		ldr	r3, [r7, #12]
 546:Core/Src/lis2dw12_reg.c **** }
 1654              		.loc 1 546 1
 1655 001a 1846     		mov	r0, r3
 1656 001c 1037     		adds	r7, r7, #16
 1657              	.LCFI98:
ARM GAS  C:\Users\vct344\AppData\Local\Temp\ccePc7Ac.s 			page 39


 1658              		.cfi_def_cfa_offset 8
 1659 001e BD46     		mov	sp, r7
 1660              	.LCFI99:
 1661              		.cfi_def_cfa_register 13
 1662              		@ sp needed
 1663 0020 80BD     		pop	{r7, pc}
 1664              		.cfi_endproc
 1665              	.LFE19:
 1667              		.section	.text.lis2dw12_flag_data_ready_get,"ax",%progbits
 1668              		.align	1
 1669              		.global	lis2dw12_flag_data_ready_get
 1670              		.syntax unified
 1671              		.thumb
 1672              		.thumb_func
 1674              	lis2dw12_flag_data_ready_get:
 1675              	.LFB20:
 547:Core/Src/lis2dw12_reg.c **** 
 548:Core/Src/lis2dw12_reg.c **** /**
 549:Core/Src/lis2dw12_reg.c ****   * @brief  Accelerometer new data available.[get]
 550:Core/Src/lis2dw12_reg.c ****   *
 551:Core/Src/lis2dw12_reg.c ****   * @param  ctx      read / write interface definitions
 552:Core/Src/lis2dw12_reg.c ****   * @param  val      change the values of drdy in reg STATUS
 553:Core/Src/lis2dw12_reg.c ****   * @retval          interface status (MANDATORY: return 0 -> no Error)
 554:Core/Src/lis2dw12_reg.c ****   *
 555:Core/Src/lis2dw12_reg.c ****   */
 556:Core/Src/lis2dw12_reg.c **** int32_t lis2dw12_flag_data_ready_get(const stmdev_ctx_t *ctx, uint8_t *val)
 557:Core/Src/lis2dw12_reg.c **** {
 1676              		.loc 1 557 1
 1677              		.cfi_startproc
 1678              		@ args = 0, pretend = 0, frame = 16
 1679              		@ frame_needed = 1, uses_anonymous_args = 0
 1680 0000 80B5     		push	{r7, lr}
 1681              	.LCFI100:
 1682              		.cfi_def_cfa_offset 8
 1683              		.cfi_offset 7, -8
 1684              		.cfi_offset 14, -4
 1685 0002 84B0     		sub	sp, sp, #16
 1686              	.LCFI101:
 1687              		.cfi_def_cfa_offset 24
 1688 0004 00AF     		add	r7, sp, #0
 1689              	.LCFI102:
 1690              		.cfi_def_cfa_register 7
 1691 0006 7860     		str	r0, [r7, #4]
 1692 0008 3960     		str	r1, [r7]
 558:Core/Src/lis2dw12_reg.c ****   lis2dw12_status_t reg;
 559:Core/Src/lis2dw12_reg.c ****   int32_t ret;
 560:Core/Src/lis2dw12_reg.c **** 
 561:Core/Src/lis2dw12_reg.c ****   ret = lis2dw12_read_reg(ctx, LIS2DW12_STATUS, (uint8_t *) &reg, 1);
 1693              		.loc 1 561 9
 1694 000a 07F10802 		add	r2, r7, #8
 1695 000e 0123     		movs	r3, #1
 1696 0010 2721     		movs	r1, #39
 1697 0012 7868     		ldr	r0, [r7, #4]
 1698 0014 FFF7FEFF 		bl	lis2dw12_read_reg
 1699 0018 F860     		str	r0, [r7, #12]
 562:Core/Src/lis2dw12_reg.c ****   *val = reg.drdy;
 1700              		.loc 1 562 13
ARM GAS  C:\Users\vct344\AppData\Local\Temp\ccePc7Ac.s 			page 40


 1701 001a 3B7A     		ldrb	r3, [r7, #8]
 1702 001c C3F30003 		ubfx	r3, r3, #0, #1
 1703 0020 DBB2     		uxtb	r3, r3
 1704 0022 1A46     		mov	r2, r3
 1705              		.loc 1 562 8
 1706 0024 3B68     		ldr	r3, [r7]
 1707 0026 1A70     		strb	r2, [r3]
 563:Core/Src/lis2dw12_reg.c **** 
 564:Core/Src/lis2dw12_reg.c ****   return ret;
 1708              		.loc 1 564 10
 1709 0028 FB68     		ldr	r3, [r7, #12]
 565:Core/Src/lis2dw12_reg.c **** }
 1710              		.loc 1 565 1
 1711 002a 1846     		mov	r0, r3
 1712 002c 1037     		adds	r7, r7, #16
 1713              	.LCFI103:
 1714              		.cfi_def_cfa_offset 8
 1715 002e BD46     		mov	sp, r7
 1716              	.LCFI104:
 1717              		.cfi_def_cfa_register 13
 1718              		@ sp needed
 1719 0030 80BD     		pop	{r7, pc}
 1720              		.cfi_endproc
 1721              	.LFE20:
 1723              		.section	.text.lis2dw12_all_sources_get,"ax",%progbits
 1724              		.align	1
 1725              		.global	lis2dw12_all_sources_get
 1726              		.syntax unified
 1727              		.thumb
 1728              		.thumb_func
 1730              	lis2dw12_all_sources_get:
 1731              	.LFB21:
 566:Core/Src/lis2dw12_reg.c **** /**
 567:Core/Src/lis2dw12_reg.c ****   * @brief   Read all the interrupt/status flag of the device.[get]
 568:Core/Src/lis2dw12_reg.c ****   *
 569:Core/Src/lis2dw12_reg.c ****   * @param  ctx      read / write interface definitions
 570:Core/Src/lis2dw12_reg.c ****   * @param  val      registers STATUS_DUP, WAKE_UP_SRC,
 571:Core/Src/lis2dw12_reg.c ****   *                  TAP_SRC, SIXD_SRC, ALL_INT_SRC
 572:Core/Src/lis2dw12_reg.c ****   * @retval          interface status (MANDATORY: return 0 -> no Error)
 573:Core/Src/lis2dw12_reg.c ****   *
 574:Core/Src/lis2dw12_reg.c ****   */
 575:Core/Src/lis2dw12_reg.c **** int32_t lis2dw12_all_sources_get(const stmdev_ctx_t *ctx,
 576:Core/Src/lis2dw12_reg.c ****                                  lis2dw12_all_sources_t *val)
 577:Core/Src/lis2dw12_reg.c **** {
 1732              		.loc 1 577 1
 1733              		.cfi_startproc
 1734              		@ args = 0, pretend = 0, frame = 16
 1735              		@ frame_needed = 1, uses_anonymous_args = 0
 1736 0000 80B5     		push	{r7, lr}
 1737              	.LCFI105:
 1738              		.cfi_def_cfa_offset 8
 1739              		.cfi_offset 7, -8
 1740              		.cfi_offset 14, -4
 1741 0002 84B0     		sub	sp, sp, #16
 1742              	.LCFI106:
 1743              		.cfi_def_cfa_offset 24
 1744 0004 00AF     		add	r7, sp, #0
ARM GAS  C:\Users\vct344\AppData\Local\Temp\ccePc7Ac.s 			page 41


 1745              	.LCFI107:
 1746              		.cfi_def_cfa_register 7
 1747 0006 7860     		str	r0, [r7, #4]
 1748 0008 3960     		str	r1, [r7]
 578:Core/Src/lis2dw12_reg.c ****   int32_t ret;
 579:Core/Src/lis2dw12_reg.c **** 
 580:Core/Src/lis2dw12_reg.c ****   ret = lis2dw12_read_reg(ctx, LIS2DW12_STATUS_DUP, (uint8_t *) val, 5);
 1749              		.loc 1 580 9
 1750 000a 0523     		movs	r3, #5
 1751 000c 3A68     		ldr	r2, [r7]
 1752 000e 3721     		movs	r1, #55
 1753 0010 7868     		ldr	r0, [r7, #4]
 1754 0012 FFF7FEFF 		bl	lis2dw12_read_reg
 1755 0016 F860     		str	r0, [r7, #12]
 581:Core/Src/lis2dw12_reg.c **** 
 582:Core/Src/lis2dw12_reg.c ****   return ret;
 1756              		.loc 1 582 10
 1757 0018 FB68     		ldr	r3, [r7, #12]
 583:Core/Src/lis2dw12_reg.c **** }
 1758              		.loc 1 583 1
 1759 001a 1846     		mov	r0, r3
 1760 001c 1037     		adds	r7, r7, #16
 1761              	.LCFI108:
 1762              		.cfi_def_cfa_offset 8
 1763 001e BD46     		mov	sp, r7
 1764              	.LCFI109:
 1765              		.cfi_def_cfa_register 13
 1766              		@ sp needed
 1767 0020 80BD     		pop	{r7, pc}
 1768              		.cfi_endproc
 1769              	.LFE21:
 1771              		.section	.text.lis2dw12_usr_offset_x_set,"ax",%progbits
 1772              		.align	1
 1773              		.global	lis2dw12_usr_offset_x_set
 1774              		.syntax unified
 1775              		.thumb
 1776              		.thumb_func
 1778              	lis2dw12_usr_offset_x_set:
 1779              	.LFB22:
 584:Core/Src/lis2dw12_reg.c **** 
 585:Core/Src/lis2dw12_reg.c **** /**
 586:Core/Src/lis2dw12_reg.c ****   * @brief  Accelerometer X-axis user offset correction expressed in twos
 587:Core/Src/lis2dw12_reg.c ****   *         complement, weight depends on bit USR_OFF_W. The value must be
 588:Core/Src/lis2dw12_reg.c ****   *         in the range [-127 127].[set]
 589:Core/Src/lis2dw12_reg.c ****   *
 590:Core/Src/lis2dw12_reg.c ****   * @param  ctx      read / write interface definitions
 591:Core/Src/lis2dw12_reg.c ****   * @param  buff     buffer that contains data to write
 592:Core/Src/lis2dw12_reg.c ****   * @retval          interface status (MANDATORY: return 0 -> no Error)
 593:Core/Src/lis2dw12_reg.c ****   *
 594:Core/Src/lis2dw12_reg.c ****   */
 595:Core/Src/lis2dw12_reg.c **** int32_t lis2dw12_usr_offset_x_set(const stmdev_ctx_t *ctx, uint8_t *buff)
 596:Core/Src/lis2dw12_reg.c **** {
 1780              		.loc 1 596 1
 1781              		.cfi_startproc
 1782              		@ args = 0, pretend = 0, frame = 16
 1783              		@ frame_needed = 1, uses_anonymous_args = 0
 1784 0000 80B5     		push	{r7, lr}
ARM GAS  C:\Users\vct344\AppData\Local\Temp\ccePc7Ac.s 			page 42


 1785              	.LCFI110:
 1786              		.cfi_def_cfa_offset 8
 1787              		.cfi_offset 7, -8
 1788              		.cfi_offset 14, -4
 1789 0002 84B0     		sub	sp, sp, #16
 1790              	.LCFI111:
 1791              		.cfi_def_cfa_offset 24
 1792 0004 00AF     		add	r7, sp, #0
 1793              	.LCFI112:
 1794              		.cfi_def_cfa_register 7
 1795 0006 7860     		str	r0, [r7, #4]
 1796 0008 3960     		str	r1, [r7]
 597:Core/Src/lis2dw12_reg.c ****   int32_t ret;
 598:Core/Src/lis2dw12_reg.c **** 
 599:Core/Src/lis2dw12_reg.c ****   ret = lis2dw12_write_reg(ctx, LIS2DW12_X_OFS_USR, buff, 1);
 1797              		.loc 1 599 9
 1798 000a 0123     		movs	r3, #1
 1799 000c 3A68     		ldr	r2, [r7]
 1800 000e 3C21     		movs	r1, #60
 1801 0010 7868     		ldr	r0, [r7, #4]
 1802 0012 FFF7FEFF 		bl	lis2dw12_write_reg
 1803 0016 F860     		str	r0, [r7, #12]
 600:Core/Src/lis2dw12_reg.c **** 
 601:Core/Src/lis2dw12_reg.c ****   return ret;
 1804              		.loc 1 601 10
 1805 0018 FB68     		ldr	r3, [r7, #12]
 602:Core/Src/lis2dw12_reg.c **** }
 1806              		.loc 1 602 1
 1807 001a 1846     		mov	r0, r3
 1808 001c 1037     		adds	r7, r7, #16
 1809              	.LCFI113:
 1810              		.cfi_def_cfa_offset 8
 1811 001e BD46     		mov	sp, r7
 1812              	.LCFI114:
 1813              		.cfi_def_cfa_register 13
 1814              		@ sp needed
 1815 0020 80BD     		pop	{r7, pc}
 1816              		.cfi_endproc
 1817              	.LFE22:
 1819              		.section	.text.lis2dw12_usr_offset_x_get,"ax",%progbits
 1820              		.align	1
 1821              		.global	lis2dw12_usr_offset_x_get
 1822              		.syntax unified
 1823              		.thumb
 1824              		.thumb_func
 1826              	lis2dw12_usr_offset_x_get:
 1827              	.LFB23:
 603:Core/Src/lis2dw12_reg.c **** 
 604:Core/Src/lis2dw12_reg.c **** /**
 605:Core/Src/lis2dw12_reg.c ****   * @brief  Accelerometer X-axis user offset correction expressed in twos
 606:Core/Src/lis2dw12_reg.c ****   *         complement, weight depends on bit USR_OFF_W. The value must be
 607:Core/Src/lis2dw12_reg.c ****   *         in the range [-127 127].[get]
 608:Core/Src/lis2dw12_reg.c ****   *
 609:Core/Src/lis2dw12_reg.c ****   * @param  ctx      read / write interface definitions
 610:Core/Src/lis2dw12_reg.c ****   * @param  buff     buffer that stores data read
 611:Core/Src/lis2dw12_reg.c ****   * @retval          interface status (MANDATORY: return 0 -> no Error)
 612:Core/Src/lis2dw12_reg.c ****   *
ARM GAS  C:\Users\vct344\AppData\Local\Temp\ccePc7Ac.s 			page 43


 613:Core/Src/lis2dw12_reg.c ****   */
 614:Core/Src/lis2dw12_reg.c **** int32_t lis2dw12_usr_offset_x_get(const stmdev_ctx_t *ctx, uint8_t *buff)
 615:Core/Src/lis2dw12_reg.c **** {
 1828              		.loc 1 615 1
 1829              		.cfi_startproc
 1830              		@ args = 0, pretend = 0, frame = 16
 1831              		@ frame_needed = 1, uses_anonymous_args = 0
 1832 0000 80B5     		push	{r7, lr}
 1833              	.LCFI115:
 1834              		.cfi_def_cfa_offset 8
 1835              		.cfi_offset 7, -8
 1836              		.cfi_offset 14, -4
 1837 0002 84B0     		sub	sp, sp, #16
 1838              	.LCFI116:
 1839              		.cfi_def_cfa_offset 24
 1840 0004 00AF     		add	r7, sp, #0
 1841              	.LCFI117:
 1842              		.cfi_def_cfa_register 7
 1843 0006 7860     		str	r0, [r7, #4]
 1844 0008 3960     		str	r1, [r7]
 616:Core/Src/lis2dw12_reg.c ****   int32_t ret;
 617:Core/Src/lis2dw12_reg.c **** 
 618:Core/Src/lis2dw12_reg.c ****   ret = lis2dw12_read_reg(ctx, LIS2DW12_X_OFS_USR, buff, 1);
 1845              		.loc 1 618 9
 1846 000a 0123     		movs	r3, #1
 1847 000c 3A68     		ldr	r2, [r7]
 1848 000e 3C21     		movs	r1, #60
 1849 0010 7868     		ldr	r0, [r7, #4]
 1850 0012 FFF7FEFF 		bl	lis2dw12_read_reg
 1851 0016 F860     		str	r0, [r7, #12]
 619:Core/Src/lis2dw12_reg.c **** 
 620:Core/Src/lis2dw12_reg.c ****   return ret;
 1852              		.loc 1 620 10
 1853 0018 FB68     		ldr	r3, [r7, #12]
 621:Core/Src/lis2dw12_reg.c **** }
 1854              		.loc 1 621 1
 1855 001a 1846     		mov	r0, r3
 1856 001c 1037     		adds	r7, r7, #16
 1857              	.LCFI118:
 1858              		.cfi_def_cfa_offset 8
 1859 001e BD46     		mov	sp, r7
 1860              	.LCFI119:
 1861              		.cfi_def_cfa_register 13
 1862              		@ sp needed
 1863 0020 80BD     		pop	{r7, pc}
 1864              		.cfi_endproc
 1865              	.LFE23:
 1867              		.section	.text.lis2dw12_usr_offset_y_set,"ax",%progbits
 1868              		.align	1
 1869              		.global	lis2dw12_usr_offset_y_set
 1870              		.syntax unified
 1871              		.thumb
 1872              		.thumb_func
 1874              	lis2dw12_usr_offset_y_set:
 1875              	.LFB24:
 622:Core/Src/lis2dw12_reg.c **** 
 623:Core/Src/lis2dw12_reg.c **** /**
ARM GAS  C:\Users\vct344\AppData\Local\Temp\ccePc7Ac.s 			page 44


 624:Core/Src/lis2dw12_reg.c ****   * @brief  Accelerometer Y-axis user offset correction expressed in twos
 625:Core/Src/lis2dw12_reg.c ****   *         complement, weight depends on bit USR_OFF_W. The value must be
 626:Core/Src/lis2dw12_reg.c ****   *         in the range [-127 127].[set]
 627:Core/Src/lis2dw12_reg.c ****   *
 628:Core/Src/lis2dw12_reg.c ****   * @param  ctx      read / write interface definitions
 629:Core/Src/lis2dw12_reg.c ****   * @param  buff     buffer that contains data to write
 630:Core/Src/lis2dw12_reg.c ****   * @retval          interface status (MANDATORY: return 0 -> no Error)
 631:Core/Src/lis2dw12_reg.c ****   *
 632:Core/Src/lis2dw12_reg.c ****   */
 633:Core/Src/lis2dw12_reg.c **** int32_t lis2dw12_usr_offset_y_set(const stmdev_ctx_t *ctx, uint8_t *buff)
 634:Core/Src/lis2dw12_reg.c **** {
 1876              		.loc 1 634 1
 1877              		.cfi_startproc
 1878              		@ args = 0, pretend = 0, frame = 16
 1879              		@ frame_needed = 1, uses_anonymous_args = 0
 1880 0000 80B5     		push	{r7, lr}
 1881              	.LCFI120:
 1882              		.cfi_def_cfa_offset 8
 1883              		.cfi_offset 7, -8
 1884              		.cfi_offset 14, -4
 1885 0002 84B0     		sub	sp, sp, #16
 1886              	.LCFI121:
 1887              		.cfi_def_cfa_offset 24
 1888 0004 00AF     		add	r7, sp, #0
 1889              	.LCFI122:
 1890              		.cfi_def_cfa_register 7
 1891 0006 7860     		str	r0, [r7, #4]
 1892 0008 3960     		str	r1, [r7]
 635:Core/Src/lis2dw12_reg.c ****   int32_t ret;
 636:Core/Src/lis2dw12_reg.c **** 
 637:Core/Src/lis2dw12_reg.c ****   ret = lis2dw12_write_reg(ctx, LIS2DW12_Y_OFS_USR, buff, 1);
 1893              		.loc 1 637 9
 1894 000a 0123     		movs	r3, #1
 1895 000c 3A68     		ldr	r2, [r7]
 1896 000e 3D21     		movs	r1, #61
 1897 0010 7868     		ldr	r0, [r7, #4]
 1898 0012 FFF7FEFF 		bl	lis2dw12_write_reg
 1899 0016 F860     		str	r0, [r7, #12]
 638:Core/Src/lis2dw12_reg.c **** 
 639:Core/Src/lis2dw12_reg.c ****   return ret;
 1900              		.loc 1 639 10
 1901 0018 FB68     		ldr	r3, [r7, #12]
 640:Core/Src/lis2dw12_reg.c **** }
 1902              		.loc 1 640 1
 1903 001a 1846     		mov	r0, r3
 1904 001c 1037     		adds	r7, r7, #16
 1905              	.LCFI123:
 1906              		.cfi_def_cfa_offset 8
 1907 001e BD46     		mov	sp, r7
 1908              	.LCFI124:
 1909              		.cfi_def_cfa_register 13
 1910              		@ sp needed
 1911 0020 80BD     		pop	{r7, pc}
 1912              		.cfi_endproc
 1913              	.LFE24:
 1915              		.section	.text.lis2dw12_usr_offset_y_get,"ax",%progbits
 1916              		.align	1
ARM GAS  C:\Users\vct344\AppData\Local\Temp\ccePc7Ac.s 			page 45


 1917              		.global	lis2dw12_usr_offset_y_get
 1918              		.syntax unified
 1919              		.thumb
 1920              		.thumb_func
 1922              	lis2dw12_usr_offset_y_get:
 1923              	.LFB25:
 641:Core/Src/lis2dw12_reg.c **** 
 642:Core/Src/lis2dw12_reg.c **** /**
 643:Core/Src/lis2dw12_reg.c ****   * @brief  Accelerometer Y-axis user offset correction expressed in twos
 644:Core/Src/lis2dw12_reg.c ****   *         complement, weight depends on bit USR_OFF_W. The value must be
 645:Core/Src/lis2dw12_reg.c ****   *         in the range [-127 127].[get]
 646:Core/Src/lis2dw12_reg.c ****   *
 647:Core/Src/lis2dw12_reg.c ****   * @param  ctx      read / write interface definitions
 648:Core/Src/lis2dw12_reg.c ****   * @param  buff     buffer that stores data read
 649:Core/Src/lis2dw12_reg.c ****   * @retval          interface status (MANDATORY: return 0 -> no Error)
 650:Core/Src/lis2dw12_reg.c ****   *
 651:Core/Src/lis2dw12_reg.c ****   */
 652:Core/Src/lis2dw12_reg.c **** int32_t lis2dw12_usr_offset_y_get(const stmdev_ctx_t *ctx, uint8_t *buff)
 653:Core/Src/lis2dw12_reg.c **** {
 1924              		.loc 1 653 1
 1925              		.cfi_startproc
 1926              		@ args = 0, pretend = 0, frame = 16
 1927              		@ frame_needed = 1, uses_anonymous_args = 0
 1928 0000 80B5     		push	{r7, lr}
 1929              	.LCFI125:
 1930              		.cfi_def_cfa_offset 8
 1931              		.cfi_offset 7, -8
 1932              		.cfi_offset 14, -4
 1933 0002 84B0     		sub	sp, sp, #16
 1934              	.LCFI126:
 1935              		.cfi_def_cfa_offset 24
 1936 0004 00AF     		add	r7, sp, #0
 1937              	.LCFI127:
 1938              		.cfi_def_cfa_register 7
 1939 0006 7860     		str	r0, [r7, #4]
 1940 0008 3960     		str	r1, [r7]
 654:Core/Src/lis2dw12_reg.c ****   int32_t ret;
 655:Core/Src/lis2dw12_reg.c **** 
 656:Core/Src/lis2dw12_reg.c ****   ret = lis2dw12_read_reg(ctx, LIS2DW12_Y_OFS_USR, buff, 1);
 1941              		.loc 1 656 9
 1942 000a 0123     		movs	r3, #1
 1943 000c 3A68     		ldr	r2, [r7]
 1944 000e 3D21     		movs	r1, #61
 1945 0010 7868     		ldr	r0, [r7, #4]
 1946 0012 FFF7FEFF 		bl	lis2dw12_read_reg
 1947 0016 F860     		str	r0, [r7, #12]
 657:Core/Src/lis2dw12_reg.c **** 
 658:Core/Src/lis2dw12_reg.c ****   return ret;
 1948              		.loc 1 658 10
 1949 0018 FB68     		ldr	r3, [r7, #12]
 659:Core/Src/lis2dw12_reg.c **** }
 1950              		.loc 1 659 1
 1951 001a 1846     		mov	r0, r3
 1952 001c 1037     		adds	r7, r7, #16
 1953              	.LCFI128:
 1954              		.cfi_def_cfa_offset 8
 1955 001e BD46     		mov	sp, r7
ARM GAS  C:\Users\vct344\AppData\Local\Temp\ccePc7Ac.s 			page 46


 1956              	.LCFI129:
 1957              		.cfi_def_cfa_register 13
 1958              		@ sp needed
 1959 0020 80BD     		pop	{r7, pc}
 1960              		.cfi_endproc
 1961              	.LFE25:
 1963              		.section	.text.lis2dw12_usr_offset_z_set,"ax",%progbits
 1964              		.align	1
 1965              		.global	lis2dw12_usr_offset_z_set
 1966              		.syntax unified
 1967              		.thumb
 1968              		.thumb_func
 1970              	lis2dw12_usr_offset_z_set:
 1971              	.LFB26:
 660:Core/Src/lis2dw12_reg.c **** 
 661:Core/Src/lis2dw12_reg.c **** /**
 662:Core/Src/lis2dw12_reg.c ****   * @brief  Accelerometer Z-axis user offset correction expressed in twos
 663:Core/Src/lis2dw12_reg.c ****   *         complement, weight depends on bit USR_OFF_W. The value must be
 664:Core/Src/lis2dw12_reg.c ****   *         in the range [-127 127].[set]
 665:Core/Src/lis2dw12_reg.c ****   *
 666:Core/Src/lis2dw12_reg.c ****   * @param  ctx      read / write interface definitions
 667:Core/Src/lis2dw12_reg.c ****   * @param  buff     buffer that contains data to write
 668:Core/Src/lis2dw12_reg.c ****   * @retval          interface status (MANDATORY: return 0 -> no Error)
 669:Core/Src/lis2dw12_reg.c ****   *
 670:Core/Src/lis2dw12_reg.c ****   */
 671:Core/Src/lis2dw12_reg.c **** int32_t lis2dw12_usr_offset_z_set(const stmdev_ctx_t *ctx, uint8_t *buff)
 672:Core/Src/lis2dw12_reg.c **** {
 1972              		.loc 1 672 1
 1973              		.cfi_startproc
 1974              		@ args = 0, pretend = 0, frame = 16
 1975              		@ frame_needed = 1, uses_anonymous_args = 0
 1976 0000 80B5     		push	{r7, lr}
 1977              	.LCFI130:
 1978              		.cfi_def_cfa_offset 8
 1979              		.cfi_offset 7, -8
 1980              		.cfi_offset 14, -4
 1981 0002 84B0     		sub	sp, sp, #16
 1982              	.LCFI131:
 1983              		.cfi_def_cfa_offset 24
 1984 0004 00AF     		add	r7, sp, #0
 1985              	.LCFI132:
 1986              		.cfi_def_cfa_register 7
 1987 0006 7860     		str	r0, [r7, #4]
 1988 0008 3960     		str	r1, [r7]
 673:Core/Src/lis2dw12_reg.c ****   int32_t ret;
 674:Core/Src/lis2dw12_reg.c **** 
 675:Core/Src/lis2dw12_reg.c ****   ret = lis2dw12_write_reg(ctx, LIS2DW12_Z_OFS_USR, buff, 1);
 1989              		.loc 1 675 9
 1990 000a 0123     		movs	r3, #1
 1991 000c 3A68     		ldr	r2, [r7]
 1992 000e 3E21     		movs	r1, #62
 1993 0010 7868     		ldr	r0, [r7, #4]
 1994 0012 FFF7FEFF 		bl	lis2dw12_write_reg
 1995 0016 F860     		str	r0, [r7, #12]
 676:Core/Src/lis2dw12_reg.c **** 
 677:Core/Src/lis2dw12_reg.c ****   return ret;
 1996              		.loc 1 677 10
ARM GAS  C:\Users\vct344\AppData\Local\Temp\ccePc7Ac.s 			page 47


 1997 0018 FB68     		ldr	r3, [r7, #12]
 678:Core/Src/lis2dw12_reg.c **** }
 1998              		.loc 1 678 1
 1999 001a 1846     		mov	r0, r3
 2000 001c 1037     		adds	r7, r7, #16
 2001              	.LCFI133:
 2002              		.cfi_def_cfa_offset 8
 2003 001e BD46     		mov	sp, r7
 2004              	.LCFI134:
 2005              		.cfi_def_cfa_register 13
 2006              		@ sp needed
 2007 0020 80BD     		pop	{r7, pc}
 2008              		.cfi_endproc
 2009              	.LFE26:
 2011              		.section	.text.lis2dw12_usr_offset_z_get,"ax",%progbits
 2012              		.align	1
 2013              		.global	lis2dw12_usr_offset_z_get
 2014              		.syntax unified
 2015              		.thumb
 2016              		.thumb_func
 2018              	lis2dw12_usr_offset_z_get:
 2019              	.LFB27:
 679:Core/Src/lis2dw12_reg.c **** 
 680:Core/Src/lis2dw12_reg.c **** /**
 681:Core/Src/lis2dw12_reg.c ****   * @brief  Accelerometer Z-axis user offset correction expressed in twos
 682:Core/Src/lis2dw12_reg.c ****   *         complement, weight depends on bit USR_OFF_W. The value must be
 683:Core/Src/lis2dw12_reg.c ****   *         in the range [-127 127].[get]
 684:Core/Src/lis2dw12_reg.c ****   *
 685:Core/Src/lis2dw12_reg.c ****   * @param  ctx      read / write interface definitions
 686:Core/Src/lis2dw12_reg.c ****   * @param  buff     buffer that stores data read
 687:Core/Src/lis2dw12_reg.c ****   * @retval          interface status (MANDATORY: return 0 -> no Error)
 688:Core/Src/lis2dw12_reg.c ****   *
 689:Core/Src/lis2dw12_reg.c ****   */
 690:Core/Src/lis2dw12_reg.c **** int32_t lis2dw12_usr_offset_z_get(const stmdev_ctx_t *ctx, uint8_t *buff)
 691:Core/Src/lis2dw12_reg.c **** {
 2020              		.loc 1 691 1
 2021              		.cfi_startproc
 2022              		@ args = 0, pretend = 0, frame = 16
 2023              		@ frame_needed = 1, uses_anonymous_args = 0
 2024 0000 80B5     		push	{r7, lr}
 2025              	.LCFI135:
 2026              		.cfi_def_cfa_offset 8
 2027              		.cfi_offset 7, -8
 2028              		.cfi_offset 14, -4
 2029 0002 84B0     		sub	sp, sp, #16
 2030              	.LCFI136:
 2031              		.cfi_def_cfa_offset 24
 2032 0004 00AF     		add	r7, sp, #0
 2033              	.LCFI137:
 2034              		.cfi_def_cfa_register 7
 2035 0006 7860     		str	r0, [r7, #4]
 2036 0008 3960     		str	r1, [r7]
 692:Core/Src/lis2dw12_reg.c ****   int32_t ret;
 693:Core/Src/lis2dw12_reg.c **** 
 694:Core/Src/lis2dw12_reg.c ****   ret = lis2dw12_read_reg(ctx, LIS2DW12_Z_OFS_USR, buff, 1);
 2037              		.loc 1 694 9
 2038 000a 0123     		movs	r3, #1
ARM GAS  C:\Users\vct344\AppData\Local\Temp\ccePc7Ac.s 			page 48


 2039 000c 3A68     		ldr	r2, [r7]
 2040 000e 3E21     		movs	r1, #62
 2041 0010 7868     		ldr	r0, [r7, #4]
 2042 0012 FFF7FEFF 		bl	lis2dw12_read_reg
 2043 0016 F860     		str	r0, [r7, #12]
 695:Core/Src/lis2dw12_reg.c **** 
 696:Core/Src/lis2dw12_reg.c ****   return ret;
 2044              		.loc 1 696 10
 2045 0018 FB68     		ldr	r3, [r7, #12]
 697:Core/Src/lis2dw12_reg.c **** }
 2046              		.loc 1 697 1
 2047 001a 1846     		mov	r0, r3
 2048 001c 1037     		adds	r7, r7, #16
 2049              	.LCFI138:
 2050              		.cfi_def_cfa_offset 8
 2051 001e BD46     		mov	sp, r7
 2052              	.LCFI139:
 2053              		.cfi_def_cfa_register 13
 2054              		@ sp needed
 2055 0020 80BD     		pop	{r7, pc}
 2056              		.cfi_endproc
 2057              	.LFE27:
 2059              		.section	.text.lis2dw12_offset_weight_set,"ax",%progbits
 2060              		.align	1
 2061              		.global	lis2dw12_offset_weight_set
 2062              		.syntax unified
 2063              		.thumb
 2064              		.thumb_func
 2066              	lis2dw12_offset_weight_set:
 2067              	.LFB28:
 698:Core/Src/lis2dw12_reg.c **** 
 699:Core/Src/lis2dw12_reg.c **** /**
 700:Core/Src/lis2dw12_reg.c ****   * @brief  Weight of XL user offset bits of registers X_OFS_USR,
 701:Core/Src/lis2dw12_reg.c ****   *         Y_OFS_USR, Z_OFS_USR.[set]
 702:Core/Src/lis2dw12_reg.c ****   *
 703:Core/Src/lis2dw12_reg.c ****   * @param  ctx      read / write interface definitions
 704:Core/Src/lis2dw12_reg.c ****   * @param  val      change the values of usr_off_w in
 705:Core/Src/lis2dw12_reg.c ****   *                               reg CTRL_REG7
 706:Core/Src/lis2dw12_reg.c ****   * @retval          interface status (MANDATORY: return 0 -> no Error)
 707:Core/Src/lis2dw12_reg.c ****   *
 708:Core/Src/lis2dw12_reg.c ****   */
 709:Core/Src/lis2dw12_reg.c **** int32_t lis2dw12_offset_weight_set(const stmdev_ctx_t *ctx,
 710:Core/Src/lis2dw12_reg.c ****                                    lis2dw12_usr_off_w_t val)
 711:Core/Src/lis2dw12_reg.c **** {
 2068              		.loc 1 711 1
 2069              		.cfi_startproc
 2070              		@ args = 0, pretend = 0, frame = 16
 2071              		@ frame_needed = 1, uses_anonymous_args = 0
 2072 0000 80B5     		push	{r7, lr}
 2073              	.LCFI140:
 2074              		.cfi_def_cfa_offset 8
 2075              		.cfi_offset 7, -8
 2076              		.cfi_offset 14, -4
 2077 0002 84B0     		sub	sp, sp, #16
 2078              	.LCFI141:
 2079              		.cfi_def_cfa_offset 24
 2080 0004 00AF     		add	r7, sp, #0
ARM GAS  C:\Users\vct344\AppData\Local\Temp\ccePc7Ac.s 			page 49


 2081              	.LCFI142:
 2082              		.cfi_def_cfa_register 7
 2083 0006 7860     		str	r0, [r7, #4]
 2084 0008 0B46     		mov	r3, r1
 2085 000a FB70     		strb	r3, [r7, #3]
 712:Core/Src/lis2dw12_reg.c ****   lis2dw12_ctrl_reg7_t reg;
 713:Core/Src/lis2dw12_reg.c ****   int32_t ret;
 714:Core/Src/lis2dw12_reg.c **** 
 715:Core/Src/lis2dw12_reg.c ****   ret = lis2dw12_read_reg(ctx, LIS2DW12_CTRL_REG7, (uint8_t *) &reg, 1);
 2086              		.loc 1 715 9
 2087 000c 07F10802 		add	r2, r7, #8
 2088 0010 0123     		movs	r3, #1
 2089 0012 3F21     		movs	r1, #63
 2090 0014 7868     		ldr	r0, [r7, #4]
 2091 0016 FFF7FEFF 		bl	lis2dw12_read_reg
 2092 001a F860     		str	r0, [r7, #12]
 716:Core/Src/lis2dw12_reg.c **** 
 717:Core/Src/lis2dw12_reg.c ****   if (ret == 0)
 2093              		.loc 1 717 6
 2094 001c FB68     		ldr	r3, [r7, #12]
 2095 001e 002B     		cmp	r3, #0
 2096 0020 0FD1     		bne	.L129
 718:Core/Src/lis2dw12_reg.c ****   {
 719:Core/Src/lis2dw12_reg.c ****     reg.usr_off_w = (uint8_t) val;
 2097              		.loc 1 719 21
 2098 0022 FB78     		ldrb	r3, [r7, #3]
 2099 0024 03F00103 		and	r3, r3, #1
 2100 0028 DAB2     		uxtb	r2, r3
 2101              		.loc 1 719 19
 2102 002a 3B7A     		ldrb	r3, [r7, #8]
 2103 002c 62F38203 		bfi	r3, r2, #2, #1
 2104 0030 3B72     		strb	r3, [r7, #8]
 720:Core/Src/lis2dw12_reg.c ****     ret = lis2dw12_write_reg(ctx, LIS2DW12_CTRL_REG7, (uint8_t *) &reg, 1);
 2105              		.loc 1 720 11
 2106 0032 07F10802 		add	r2, r7, #8
 2107 0036 0123     		movs	r3, #1
 2108 0038 3F21     		movs	r1, #63
 2109 003a 7868     		ldr	r0, [r7, #4]
 2110 003c FFF7FEFF 		bl	lis2dw12_write_reg
 2111 0040 F860     		str	r0, [r7, #12]
 2112              	.L129:
 721:Core/Src/lis2dw12_reg.c ****   }
 722:Core/Src/lis2dw12_reg.c **** 
 723:Core/Src/lis2dw12_reg.c ****   return ret;
 2113              		.loc 1 723 10
 2114 0042 FB68     		ldr	r3, [r7, #12]
 724:Core/Src/lis2dw12_reg.c **** }
 2115              		.loc 1 724 1
 2116 0044 1846     		mov	r0, r3
 2117 0046 1037     		adds	r7, r7, #16
 2118              	.LCFI143:
 2119              		.cfi_def_cfa_offset 8
 2120 0048 BD46     		mov	sp, r7
 2121              	.LCFI144:
 2122              		.cfi_def_cfa_register 13
 2123              		@ sp needed
 2124 004a 80BD     		pop	{r7, pc}
ARM GAS  C:\Users\vct344\AppData\Local\Temp\ccePc7Ac.s 			page 50


 2125              		.cfi_endproc
 2126              	.LFE28:
 2128              		.section	.text.lis2dw12_offset_weight_get,"ax",%progbits
 2129              		.align	1
 2130              		.global	lis2dw12_offset_weight_get
 2131              		.syntax unified
 2132              		.thumb
 2133              		.thumb_func
 2135              	lis2dw12_offset_weight_get:
 2136              	.LFB29:
 725:Core/Src/lis2dw12_reg.c **** 
 726:Core/Src/lis2dw12_reg.c **** /**
 727:Core/Src/lis2dw12_reg.c ****   * @brief  Weight of XL user offset bits of registers X_OFS_USR,
 728:Core/Src/lis2dw12_reg.c ****   *         Y_OFS_USR, Z_OFS_USR.[get]
 729:Core/Src/lis2dw12_reg.c ****   *
 730:Core/Src/lis2dw12_reg.c ****   * @param  ctx      read / write interface definitions
 731:Core/Src/lis2dw12_reg.c ****   * @param  val      Get the values of usr_off_w in reg CTRL_REG7
 732:Core/Src/lis2dw12_reg.c ****   * @retval          interface status (MANDATORY: return 0 -> no Error)
 733:Core/Src/lis2dw12_reg.c ****   *
 734:Core/Src/lis2dw12_reg.c ****   */
 735:Core/Src/lis2dw12_reg.c **** int32_t lis2dw12_offset_weight_get(const stmdev_ctx_t *ctx,
 736:Core/Src/lis2dw12_reg.c ****                                    lis2dw12_usr_off_w_t *val)
 737:Core/Src/lis2dw12_reg.c **** {
 2137              		.loc 1 737 1
 2138              		.cfi_startproc
 2139              		@ args = 0, pretend = 0, frame = 16
 2140              		@ frame_needed = 1, uses_anonymous_args = 0
 2141 0000 80B5     		push	{r7, lr}
 2142              	.LCFI145:
 2143              		.cfi_def_cfa_offset 8
 2144              		.cfi_offset 7, -8
 2145              		.cfi_offset 14, -4
 2146 0002 84B0     		sub	sp, sp, #16
 2147              	.LCFI146:
 2148              		.cfi_def_cfa_offset 24
 2149 0004 00AF     		add	r7, sp, #0
 2150              	.LCFI147:
 2151              		.cfi_def_cfa_register 7
 2152 0006 7860     		str	r0, [r7, #4]
 2153 0008 3960     		str	r1, [r7]
 738:Core/Src/lis2dw12_reg.c ****   lis2dw12_ctrl_reg7_t reg;
 739:Core/Src/lis2dw12_reg.c ****   int32_t ret;
 740:Core/Src/lis2dw12_reg.c **** 
 741:Core/Src/lis2dw12_reg.c ****   ret = lis2dw12_read_reg(ctx, LIS2DW12_CTRL_REG7, (uint8_t *) &reg, 1);
 2154              		.loc 1 741 9
 2155 000a 07F10802 		add	r2, r7, #8
 2156 000e 0123     		movs	r3, #1
 2157 0010 3F21     		movs	r1, #63
 2158 0012 7868     		ldr	r0, [r7, #4]
 2159 0014 FFF7FEFF 		bl	lis2dw12_read_reg
 2160 0018 F860     		str	r0, [r7, #12]
 742:Core/Src/lis2dw12_reg.c **** 
 743:Core/Src/lis2dw12_reg.c ****   switch (reg.usr_off_w)
 2161              		.loc 1 743 14
 2162 001a 3B7A     		ldrb	r3, [r7, #8]
 2163 001c C3F38003 		ubfx	r3, r3, #2, #1
 2164 0020 DBB2     		uxtb	r3, r3
ARM GAS  C:\Users\vct344\AppData\Local\Temp\ccePc7Ac.s 			page 51


 2165              		.loc 1 743 3
 2166 0022 002B     		cmp	r3, #0
 2167 0024 02D0     		beq	.L132
 2168 0026 012B     		cmp	r3, #1
 2169 0028 04D0     		beq	.L133
 2170 002a 07E0     		b	.L137
 2171              	.L132:
 744:Core/Src/lis2dw12_reg.c ****   {
 745:Core/Src/lis2dw12_reg.c ****     case LIS2DW12_LSb_977ug:
 746:Core/Src/lis2dw12_reg.c ****       *val = LIS2DW12_LSb_977ug;
 2172              		.loc 1 746 12
 2173 002c 3B68     		ldr	r3, [r7]
 2174 002e 0022     		movs	r2, #0
 2175 0030 1A70     		strb	r2, [r3]
 747:Core/Src/lis2dw12_reg.c ****       break;
 2176              		.loc 1 747 7
 2177 0032 07E0     		b	.L135
 2178              	.L133:
 748:Core/Src/lis2dw12_reg.c **** 
 749:Core/Src/lis2dw12_reg.c ****     case LIS2DW12_LSb_15mg6:
 750:Core/Src/lis2dw12_reg.c ****       *val = LIS2DW12_LSb_15mg6;
 2179              		.loc 1 750 12
 2180 0034 3B68     		ldr	r3, [r7]
 2181 0036 0122     		movs	r2, #1
 2182 0038 1A70     		strb	r2, [r3]
 751:Core/Src/lis2dw12_reg.c ****       break;
 2183              		.loc 1 751 7
 2184 003a 03E0     		b	.L135
 2185              	.L137:
 752:Core/Src/lis2dw12_reg.c **** 
 753:Core/Src/lis2dw12_reg.c ****     default:
 754:Core/Src/lis2dw12_reg.c ****       *val = LIS2DW12_LSb_977ug;
 2186              		.loc 1 754 12
 2187 003c 3B68     		ldr	r3, [r7]
 2188 003e 0022     		movs	r2, #0
 2189 0040 1A70     		strb	r2, [r3]
 755:Core/Src/lis2dw12_reg.c ****       break;
 2190              		.loc 1 755 7
 2191 0042 00BF     		nop
 2192              	.L135:
 756:Core/Src/lis2dw12_reg.c ****   }
 757:Core/Src/lis2dw12_reg.c **** 
 758:Core/Src/lis2dw12_reg.c ****   return ret;
 2193              		.loc 1 758 10
 2194 0044 FB68     		ldr	r3, [r7, #12]
 759:Core/Src/lis2dw12_reg.c **** }
 2195              		.loc 1 759 1
 2196 0046 1846     		mov	r0, r3
 2197 0048 1037     		adds	r7, r7, #16
 2198              	.LCFI148:
 2199              		.cfi_def_cfa_offset 8
 2200 004a BD46     		mov	sp, r7
 2201              	.LCFI149:
 2202              		.cfi_def_cfa_register 13
 2203              		@ sp needed
 2204 004c 80BD     		pop	{r7, pc}
 2205              		.cfi_endproc
ARM GAS  C:\Users\vct344\AppData\Local\Temp\ccePc7Ac.s 			page 52


 2206              	.LFE29:
 2208              		.section	.text.lis2dw12_temperature_raw_get,"ax",%progbits
 2209              		.align	1
 2210              		.global	lis2dw12_temperature_raw_get
 2211              		.syntax unified
 2212              		.thumb
 2213              		.thumb_func
 2215              	lis2dw12_temperature_raw_get:
 2216              	.LFB30:
 760:Core/Src/lis2dw12_reg.c **** 
 761:Core/Src/lis2dw12_reg.c **** /**
 762:Core/Src/lis2dw12_reg.c ****   * @}
 763:Core/Src/lis2dw12_reg.c ****   *
 764:Core/Src/lis2dw12_reg.c ****   */
 765:Core/Src/lis2dw12_reg.c **** 
 766:Core/Src/lis2dw12_reg.c **** /**
 767:Core/Src/lis2dw12_reg.c ****   * @defgroup  LIS2DW12_Data_Output
 768:Core/Src/lis2dw12_reg.c ****   * @brief     This section groups all the data output functions.
 769:Core/Src/lis2dw12_reg.c ****   * @{
 770:Core/Src/lis2dw12_reg.c ****   *
 771:Core/Src/lis2dw12_reg.c ****   */
 772:Core/Src/lis2dw12_reg.c **** 
 773:Core/Src/lis2dw12_reg.c **** /**
 774:Core/Src/lis2dw12_reg.c ****   * @brief  Temperature data output register (r). L and H registers
 775:Core/Src/lis2dw12_reg.c ****   *         together express a 16-bit word in twos complement.[get]
 776:Core/Src/lis2dw12_reg.c ****   *
 777:Core/Src/lis2dw12_reg.c ****   * @param  ctx      read / write interface definitions
 778:Core/Src/lis2dw12_reg.c ****   * @param  val      buffer that stores data read
 779:Core/Src/lis2dw12_reg.c ****   * @retval          interface status (MANDATORY: return 0 -> no Error)
 780:Core/Src/lis2dw12_reg.c ****   *
 781:Core/Src/lis2dw12_reg.c ****   */
 782:Core/Src/lis2dw12_reg.c **** int32_t lis2dw12_temperature_raw_get(const stmdev_ctx_t *ctx, int16_t *val)
 783:Core/Src/lis2dw12_reg.c **** {
 2217              		.loc 1 783 1
 2218              		.cfi_startproc
 2219              		@ args = 0, pretend = 0, frame = 16
 2220              		@ frame_needed = 1, uses_anonymous_args = 0
 2221 0000 80B5     		push	{r7, lr}
 2222              	.LCFI150:
 2223              		.cfi_def_cfa_offset 8
 2224              		.cfi_offset 7, -8
 2225              		.cfi_offset 14, -4
 2226 0002 84B0     		sub	sp, sp, #16
 2227              	.LCFI151:
 2228              		.cfi_def_cfa_offset 24
 2229 0004 00AF     		add	r7, sp, #0
 2230              	.LCFI152:
 2231              		.cfi_def_cfa_register 7
 2232 0006 7860     		str	r0, [r7, #4]
 2233 0008 3960     		str	r1, [r7]
 784:Core/Src/lis2dw12_reg.c ****   uint8_t buff[2];
 785:Core/Src/lis2dw12_reg.c ****   int32_t ret;
 786:Core/Src/lis2dw12_reg.c **** 
 787:Core/Src/lis2dw12_reg.c ****   ret = lis2dw12_read_reg(ctx, LIS2DW12_OUT_T_L, buff, 2);
 2234              		.loc 1 787 9
 2235 000a 07F10802 		add	r2, r7, #8
 2236 000e 0223     		movs	r3, #2
ARM GAS  C:\Users\vct344\AppData\Local\Temp\ccePc7Ac.s 			page 53


 2237 0010 0D21     		movs	r1, #13
 2238 0012 7868     		ldr	r0, [r7, #4]
 2239 0014 FFF7FEFF 		bl	lis2dw12_read_reg
 2240 0018 F860     		str	r0, [r7, #12]
 788:Core/Src/lis2dw12_reg.c ****   *val = (int16_t)buff[1];
 2241              		.loc 1 788 23
 2242 001a 7B7A     		ldrb	r3, [r7, #9]	@ zero_extendqisi2
 2243              		.loc 1 788 10
 2244 001c 1AB2     		sxth	r2, r3
 2245              		.loc 1 788 8
 2246 001e 3B68     		ldr	r3, [r7]
 2247 0020 1A80     		strh	r2, [r3]	@ movhi
 789:Core/Src/lis2dw12_reg.c ****   *val = (*val * 256) + (int16_t)buff[0];
 2248              		.loc 1 789 11
 2249 0022 3B68     		ldr	r3, [r7]
 2250 0024 B3F90030 		ldrsh	r3, [r3]
 2251 0028 9BB2     		uxth	r3, r3
 2252              		.loc 1 789 16
 2253 002a 1B02     		lsls	r3, r3, #8
 2254 002c 9BB2     		uxth	r3, r3
 2255              		.loc 1 789 38
 2256 002e 3A7A     		ldrb	r2, [r7, #8]	@ zero_extendqisi2
 2257              		.loc 1 789 23
 2258 0030 1344     		add	r3, r3, r2
 2259 0032 9BB2     		uxth	r3, r3
 2260 0034 1AB2     		sxth	r2, r3
 2261              		.loc 1 789 8
 2262 0036 3B68     		ldr	r3, [r7]
 2263 0038 1A80     		strh	r2, [r3]	@ movhi
 790:Core/Src/lis2dw12_reg.c **** 
 791:Core/Src/lis2dw12_reg.c ****   return ret;
 2264              		.loc 1 791 10
 2265 003a FB68     		ldr	r3, [r7, #12]
 792:Core/Src/lis2dw12_reg.c **** }
 2266              		.loc 1 792 1
 2267 003c 1846     		mov	r0, r3
 2268 003e 1037     		adds	r7, r7, #16
 2269              	.LCFI153:
 2270              		.cfi_def_cfa_offset 8
 2271 0040 BD46     		mov	sp, r7
 2272              	.LCFI154:
 2273              		.cfi_def_cfa_register 13
 2274              		@ sp needed
 2275 0042 80BD     		pop	{r7, pc}
 2276              		.cfi_endproc
 2277              	.LFE30:
 2279              		.section	.text.lis2dw12_acceleration_raw_get,"ax",%progbits
 2280              		.align	1
 2281              		.global	lis2dw12_acceleration_raw_get
 2282              		.syntax unified
 2283              		.thumb
 2284              		.thumb_func
 2286              	lis2dw12_acceleration_raw_get:
 2287              	.LFB31:
 793:Core/Src/lis2dw12_reg.c **** 
 794:Core/Src/lis2dw12_reg.c **** /**
 795:Core/Src/lis2dw12_reg.c ****   * @brief  Linear acceleration output register. The value is expressed as
ARM GAS  C:\Users\vct344\AppData\Local\Temp\ccePc7Ac.s 			page 54


 796:Core/Src/lis2dw12_reg.c ****   *         a 16-bit word in twos complement.[get]
 797:Core/Src/lis2dw12_reg.c ****   *
 798:Core/Src/lis2dw12_reg.c ****   * @param  ctx      read / write interface definitions
 799:Core/Src/lis2dw12_reg.c ****   * @param  val      buffer that stores data read
 800:Core/Src/lis2dw12_reg.c ****   * @retval          interface status (MANDATORY: return 0 -> no Error)
 801:Core/Src/lis2dw12_reg.c ****   *
 802:Core/Src/lis2dw12_reg.c ****   */
 803:Core/Src/lis2dw12_reg.c **** int32_t lis2dw12_acceleration_raw_get(const stmdev_ctx_t *ctx, int16_t *val)
 804:Core/Src/lis2dw12_reg.c **** {
 2288              		.loc 1 804 1
 2289              		.cfi_startproc
 2290              		@ args = 0, pretend = 0, frame = 24
 2291              		@ frame_needed = 1, uses_anonymous_args = 0
 2292 0000 80B5     		push	{r7, lr}
 2293              	.LCFI155:
 2294              		.cfi_def_cfa_offset 8
 2295              		.cfi_offset 7, -8
 2296              		.cfi_offset 14, -4
 2297 0002 86B0     		sub	sp, sp, #24
 2298              	.LCFI156:
 2299              		.cfi_def_cfa_offset 32
 2300 0004 00AF     		add	r7, sp, #0
 2301              	.LCFI157:
 2302              		.cfi_def_cfa_register 7
 2303 0006 7860     		str	r0, [r7, #4]
 2304 0008 3960     		str	r1, [r7]
 805:Core/Src/lis2dw12_reg.c ****   uint8_t buff[6];
 806:Core/Src/lis2dw12_reg.c ****   int32_t ret;
 807:Core/Src/lis2dw12_reg.c **** 
 808:Core/Src/lis2dw12_reg.c ****   ret = lis2dw12_read_reg(ctx, LIS2DW12_OUT_X_L, buff, 6);
 2305              		.loc 1 808 9
 2306 000a 07F10C02 		add	r2, r7, #12
 2307 000e 0623     		movs	r3, #6
 2308 0010 2821     		movs	r1, #40
 2309 0012 7868     		ldr	r0, [r7, #4]
 2310 0014 FFF7FEFF 		bl	lis2dw12_read_reg
 2311 0018 7861     		str	r0, [r7, #20]
 809:Core/Src/lis2dw12_reg.c ****   val[0] = (int16_t)buff[1];
 2312              		.loc 1 809 25
 2313 001a 7B7B     		ldrb	r3, [r7, #13]	@ zero_extendqisi2
 2314              		.loc 1 809 12
 2315 001c 1AB2     		sxth	r2, r3
 2316              		.loc 1 809 10
 2317 001e 3B68     		ldr	r3, [r7]
 2318 0020 1A80     		strh	r2, [r3]	@ movhi
 810:Core/Src/lis2dw12_reg.c ****   val[0] = (val[0] * 256) + (int16_t)buff[0];
 2319              		.loc 1 810 16
 2320 0022 3B68     		ldr	r3, [r7]
 2321 0024 B3F90030 		ldrsh	r3, [r3]
 2322 0028 9BB2     		uxth	r3, r3
 2323              		.loc 1 810 20
 2324 002a 1B02     		lsls	r3, r3, #8
 2325 002c 9BB2     		uxth	r3, r3
 2326              		.loc 1 810 42
 2327 002e 3A7B     		ldrb	r2, [r7, #12]	@ zero_extendqisi2
 2328              		.loc 1 810 27
 2329 0030 1344     		add	r3, r3, r2
ARM GAS  C:\Users\vct344\AppData\Local\Temp\ccePc7Ac.s 			page 55


 2330 0032 9BB2     		uxth	r3, r3
 2331 0034 1AB2     		sxth	r2, r3
 2332              		.loc 1 810 10
 2333 0036 3B68     		ldr	r3, [r7]
 2334 0038 1A80     		strh	r2, [r3]	@ movhi
 811:Core/Src/lis2dw12_reg.c ****   val[1] = (int16_t)buff[3];
 2335              		.loc 1 811 25
 2336 003a FA7B     		ldrb	r2, [r7, #15]	@ zero_extendqisi2
 2337              		.loc 1 811 6
 2338 003c 3B68     		ldr	r3, [r7]
 2339 003e 0233     		adds	r3, r3, #2
 2340              		.loc 1 811 12
 2341 0040 12B2     		sxth	r2, r2
 2342              		.loc 1 811 10
 2343 0042 1A80     		strh	r2, [r3]	@ movhi
 812:Core/Src/lis2dw12_reg.c ****   val[1] = (val[1] * 256) + (int16_t)buff[2];
 2344              		.loc 1 812 16
 2345 0044 3B68     		ldr	r3, [r7]
 2346 0046 0233     		adds	r3, r3, #2
 2347 0048 B3F90030 		ldrsh	r3, [r3]
 2348 004c 9BB2     		uxth	r3, r3
 2349              		.loc 1 812 20
 2350 004e 1B02     		lsls	r3, r3, #8
 2351 0050 9BB2     		uxth	r3, r3
 2352              		.loc 1 812 42
 2353 0052 BA7B     		ldrb	r2, [r7, #14]	@ zero_extendqisi2
 2354              		.loc 1 812 27
 2355 0054 1344     		add	r3, r3, r2
 2356 0056 9AB2     		uxth	r2, r3
 2357              		.loc 1 812 6
 2358 0058 3B68     		ldr	r3, [r7]
 2359 005a 0233     		adds	r3, r3, #2
 2360              		.loc 1 812 27
 2361 005c 12B2     		sxth	r2, r2
 2362              		.loc 1 812 10
 2363 005e 1A80     		strh	r2, [r3]	@ movhi
 813:Core/Src/lis2dw12_reg.c ****   val[2] = (int16_t)buff[5];
 2364              		.loc 1 813 25
 2365 0060 7A7C     		ldrb	r2, [r7, #17]	@ zero_extendqisi2
 2366              		.loc 1 813 6
 2367 0062 3B68     		ldr	r3, [r7]
 2368 0064 0433     		adds	r3, r3, #4
 2369              		.loc 1 813 12
 2370 0066 12B2     		sxth	r2, r2
 2371              		.loc 1 813 10
 2372 0068 1A80     		strh	r2, [r3]	@ movhi
 814:Core/Src/lis2dw12_reg.c ****   val[2] = (val[2] * 256) + (int16_t)buff[4];
 2373              		.loc 1 814 16
 2374 006a 3B68     		ldr	r3, [r7]
 2375 006c 0433     		adds	r3, r3, #4
 2376 006e B3F90030 		ldrsh	r3, [r3]
 2377 0072 9BB2     		uxth	r3, r3
 2378              		.loc 1 814 20
 2379 0074 1B02     		lsls	r3, r3, #8
 2380 0076 9BB2     		uxth	r3, r3
 2381              		.loc 1 814 42
 2382 0078 3A7C     		ldrb	r2, [r7, #16]	@ zero_extendqisi2
ARM GAS  C:\Users\vct344\AppData\Local\Temp\ccePc7Ac.s 			page 56


 2383              		.loc 1 814 27
 2384 007a 1344     		add	r3, r3, r2
 2385 007c 9AB2     		uxth	r2, r3
 2386              		.loc 1 814 6
 2387 007e 3B68     		ldr	r3, [r7]
 2388 0080 0433     		adds	r3, r3, #4
 2389              		.loc 1 814 27
 2390 0082 12B2     		sxth	r2, r2
 2391              		.loc 1 814 10
 2392 0084 1A80     		strh	r2, [r3]	@ movhi
 815:Core/Src/lis2dw12_reg.c **** 
 816:Core/Src/lis2dw12_reg.c ****   return ret;
 2393              		.loc 1 816 10
 2394 0086 7B69     		ldr	r3, [r7, #20]
 817:Core/Src/lis2dw12_reg.c **** }
 2395              		.loc 1 817 1
 2396 0088 1846     		mov	r0, r3
 2397 008a 1837     		adds	r7, r7, #24
 2398              	.LCFI158:
 2399              		.cfi_def_cfa_offset 8
 2400 008c BD46     		mov	sp, r7
 2401              	.LCFI159:
 2402              		.cfi_def_cfa_register 13
 2403              		@ sp needed
 2404 008e 80BD     		pop	{r7, pc}
 2405              		.cfi_endproc
 2406              	.LFE31:
 2408              		.section	.text.lis2dw12_device_id_get,"ax",%progbits
 2409              		.align	1
 2410              		.global	lis2dw12_device_id_get
 2411              		.syntax unified
 2412              		.thumb
 2413              		.thumb_func
 2415              	lis2dw12_device_id_get:
 2416              	.LFB32:
 818:Core/Src/lis2dw12_reg.c **** 
 819:Core/Src/lis2dw12_reg.c **** /**
 820:Core/Src/lis2dw12_reg.c ****   * @}
 821:Core/Src/lis2dw12_reg.c ****   *
 822:Core/Src/lis2dw12_reg.c ****   */
 823:Core/Src/lis2dw12_reg.c **** 
 824:Core/Src/lis2dw12_reg.c **** /**
 825:Core/Src/lis2dw12_reg.c ****   * @defgroup  LIS2DW12_Common
 826:Core/Src/lis2dw12_reg.c ****   * @brief     This section groups common useful functions.
 827:Core/Src/lis2dw12_reg.c ****   * @{
 828:Core/Src/lis2dw12_reg.c ****   *
 829:Core/Src/lis2dw12_reg.c ****   */
 830:Core/Src/lis2dw12_reg.c **** 
 831:Core/Src/lis2dw12_reg.c **** /**
 832:Core/Src/lis2dw12_reg.c ****   * @brief  Device Who am I.[get]
 833:Core/Src/lis2dw12_reg.c ****   *
 834:Core/Src/lis2dw12_reg.c ****   * @param  ctx      read / write interface definitions
 835:Core/Src/lis2dw12_reg.c ****   * @param  buff     buffer that stores data read
 836:Core/Src/lis2dw12_reg.c ****   * @retval          interface status (MANDATORY: return 0 -> no Error)
 837:Core/Src/lis2dw12_reg.c ****   *
 838:Core/Src/lis2dw12_reg.c ****   */
 839:Core/Src/lis2dw12_reg.c **** int32_t lis2dw12_device_id_get(const stmdev_ctx_t *ctx, uint8_t *buff)
ARM GAS  C:\Users\vct344\AppData\Local\Temp\ccePc7Ac.s 			page 57


 840:Core/Src/lis2dw12_reg.c **** {
 2417              		.loc 1 840 1
 2418              		.cfi_startproc
 2419              		@ args = 0, pretend = 0, frame = 16
 2420              		@ frame_needed = 1, uses_anonymous_args = 0
 2421 0000 80B5     		push	{r7, lr}
 2422              	.LCFI160:
 2423              		.cfi_def_cfa_offset 8
 2424              		.cfi_offset 7, -8
 2425              		.cfi_offset 14, -4
 2426 0002 84B0     		sub	sp, sp, #16
 2427              	.LCFI161:
 2428              		.cfi_def_cfa_offset 24
 2429 0004 00AF     		add	r7, sp, #0
 2430              	.LCFI162:
 2431              		.cfi_def_cfa_register 7
 2432 0006 7860     		str	r0, [r7, #4]
 2433 0008 3960     		str	r1, [r7]
 841:Core/Src/lis2dw12_reg.c ****   int32_t ret;
 842:Core/Src/lis2dw12_reg.c **** 
 843:Core/Src/lis2dw12_reg.c ****   ret = lis2dw12_read_reg(ctx, LIS2DW12_WHO_AM_I, buff, 1);
 2434              		.loc 1 843 9
 2435 000a 0123     		movs	r3, #1
 2436 000c 3A68     		ldr	r2, [r7]
 2437 000e 0F21     		movs	r1, #15
 2438 0010 7868     		ldr	r0, [r7, #4]
 2439 0012 FFF7FEFF 		bl	lis2dw12_read_reg
 2440 0016 F860     		str	r0, [r7, #12]
 844:Core/Src/lis2dw12_reg.c **** 
 845:Core/Src/lis2dw12_reg.c ****   return ret;
 2441              		.loc 1 845 10
 2442 0018 FB68     		ldr	r3, [r7, #12]
 846:Core/Src/lis2dw12_reg.c **** }
 2443              		.loc 1 846 1
 2444 001a 1846     		mov	r0, r3
 2445 001c 1037     		adds	r7, r7, #16
 2446              	.LCFI163:
 2447              		.cfi_def_cfa_offset 8
 2448 001e BD46     		mov	sp, r7
 2449              	.LCFI164:
 2450              		.cfi_def_cfa_register 13
 2451              		@ sp needed
 2452 0020 80BD     		pop	{r7, pc}
 2453              		.cfi_endproc
 2454              	.LFE32:
 2456              		.section	.text.lis2dw12_auto_increment_set,"ax",%progbits
 2457              		.align	1
 2458              		.global	lis2dw12_auto_increment_set
 2459              		.syntax unified
 2460              		.thumb
 2461              		.thumb_func
 2463              	lis2dw12_auto_increment_set:
 2464              	.LFB33:
 847:Core/Src/lis2dw12_reg.c **** 
 848:Core/Src/lis2dw12_reg.c **** /**
 849:Core/Src/lis2dw12_reg.c ****   * @brief  Register address automatically incremented during multiple byte
 850:Core/Src/lis2dw12_reg.c ****   *         access with a serial interface.[set]
ARM GAS  C:\Users\vct344\AppData\Local\Temp\ccePc7Ac.s 			page 58


 851:Core/Src/lis2dw12_reg.c ****   *
 852:Core/Src/lis2dw12_reg.c ****   * @param  ctx      read / write interface definitions
 853:Core/Src/lis2dw12_reg.c ****   * @param  val      change the values of if_add_inc in reg CTRL2
 854:Core/Src/lis2dw12_reg.c ****   * @retval          interface status (MANDATORY: return 0 -> no Error)
 855:Core/Src/lis2dw12_reg.c ****   *
 856:Core/Src/lis2dw12_reg.c ****   */
 857:Core/Src/lis2dw12_reg.c **** int32_t lis2dw12_auto_increment_set(const stmdev_ctx_t *ctx, uint8_t val)
 858:Core/Src/lis2dw12_reg.c **** {
 2465              		.loc 1 858 1
 2466              		.cfi_startproc
 2467              		@ args = 0, pretend = 0, frame = 16
 2468              		@ frame_needed = 1, uses_anonymous_args = 0
 2469 0000 80B5     		push	{r7, lr}
 2470              	.LCFI165:
 2471              		.cfi_def_cfa_offset 8
 2472              		.cfi_offset 7, -8
 2473              		.cfi_offset 14, -4
 2474 0002 84B0     		sub	sp, sp, #16
 2475              	.LCFI166:
 2476              		.cfi_def_cfa_offset 24
 2477 0004 00AF     		add	r7, sp, #0
 2478              	.LCFI167:
 2479              		.cfi_def_cfa_register 7
 2480 0006 7860     		str	r0, [r7, #4]
 2481 0008 0B46     		mov	r3, r1
 2482 000a FB70     		strb	r3, [r7, #3]
 859:Core/Src/lis2dw12_reg.c ****   lis2dw12_ctrl2_t reg;
 860:Core/Src/lis2dw12_reg.c ****   int32_t ret;
 861:Core/Src/lis2dw12_reg.c **** 
 862:Core/Src/lis2dw12_reg.c ****   ret = lis2dw12_read_reg(ctx, LIS2DW12_CTRL2, (uint8_t *) &reg, 1);
 2483              		.loc 1 862 9
 2484 000c 07F10802 		add	r2, r7, #8
 2485 0010 0123     		movs	r3, #1
 2486 0012 2121     		movs	r1, #33
 2487 0014 7868     		ldr	r0, [r7, #4]
 2488 0016 FFF7FEFF 		bl	lis2dw12_read_reg
 2489 001a F860     		str	r0, [r7, #12]
 863:Core/Src/lis2dw12_reg.c **** 
 864:Core/Src/lis2dw12_reg.c ****   if (ret == 0)
 2490              		.loc 1 864 6
 2491 001c FB68     		ldr	r3, [r7, #12]
 2492 001e 002B     		cmp	r3, #0
 2493 0020 0FD1     		bne	.L145
 865:Core/Src/lis2dw12_reg.c ****   {
 866:Core/Src/lis2dw12_reg.c ****     reg.if_add_inc = val;
 2494              		.loc 1 866 20
 2495 0022 FB78     		ldrb	r3, [r7, #3]
 2496 0024 03F00103 		and	r3, r3, #1
 2497 0028 DAB2     		uxtb	r2, r3
 2498 002a 3B7A     		ldrb	r3, [r7, #8]
 2499 002c 62F38203 		bfi	r3, r2, #2, #1
 2500 0030 3B72     		strb	r3, [r7, #8]
 867:Core/Src/lis2dw12_reg.c ****     ret = lis2dw12_write_reg(ctx, LIS2DW12_CTRL2, (uint8_t *) &reg, 1);
 2501              		.loc 1 867 11
 2502 0032 07F10802 		add	r2, r7, #8
 2503 0036 0123     		movs	r3, #1
 2504 0038 2121     		movs	r1, #33
ARM GAS  C:\Users\vct344\AppData\Local\Temp\ccePc7Ac.s 			page 59


 2505 003a 7868     		ldr	r0, [r7, #4]
 2506 003c FFF7FEFF 		bl	lis2dw12_write_reg
 2507 0040 F860     		str	r0, [r7, #12]
 2508              	.L145:
 868:Core/Src/lis2dw12_reg.c ****   }
 869:Core/Src/lis2dw12_reg.c **** 
 870:Core/Src/lis2dw12_reg.c ****   return ret;
 2509              		.loc 1 870 10
 2510 0042 FB68     		ldr	r3, [r7, #12]
 871:Core/Src/lis2dw12_reg.c **** }
 2511              		.loc 1 871 1
 2512 0044 1846     		mov	r0, r3
 2513 0046 1037     		adds	r7, r7, #16
 2514              	.LCFI168:
 2515              		.cfi_def_cfa_offset 8
 2516 0048 BD46     		mov	sp, r7
 2517              	.LCFI169:
 2518              		.cfi_def_cfa_register 13
 2519              		@ sp needed
 2520 004a 80BD     		pop	{r7, pc}
 2521              		.cfi_endproc
 2522              	.LFE33:
 2524              		.section	.text.lis2dw12_auto_increment_get,"ax",%progbits
 2525              		.align	1
 2526              		.global	lis2dw12_auto_increment_get
 2527              		.syntax unified
 2528              		.thumb
 2529              		.thumb_func
 2531              	lis2dw12_auto_increment_get:
 2532              	.LFB34:
 872:Core/Src/lis2dw12_reg.c **** 
 873:Core/Src/lis2dw12_reg.c **** /**
 874:Core/Src/lis2dw12_reg.c ****   * @brief  Register address automatically incremented during multiple
 875:Core/Src/lis2dw12_reg.c ****   *         byte access with a serial interface.[get]
 876:Core/Src/lis2dw12_reg.c ****   *
 877:Core/Src/lis2dw12_reg.c ****   * @param  ctx      read / write interface definitions
 878:Core/Src/lis2dw12_reg.c ****   * @param  val      change the values of if_add_inc in reg CTRL2
 879:Core/Src/lis2dw12_reg.c ****   * @retval          interface status (MANDATORY: return 0 -> no Error)
 880:Core/Src/lis2dw12_reg.c ****   *
 881:Core/Src/lis2dw12_reg.c ****   */
 882:Core/Src/lis2dw12_reg.c **** int32_t lis2dw12_auto_increment_get(const stmdev_ctx_t *ctx, uint8_t *val)
 883:Core/Src/lis2dw12_reg.c **** {
 2533              		.loc 1 883 1
 2534              		.cfi_startproc
 2535              		@ args = 0, pretend = 0, frame = 16
 2536              		@ frame_needed = 1, uses_anonymous_args = 0
 2537 0000 80B5     		push	{r7, lr}
 2538              	.LCFI170:
 2539              		.cfi_def_cfa_offset 8
 2540              		.cfi_offset 7, -8
 2541              		.cfi_offset 14, -4
 2542 0002 84B0     		sub	sp, sp, #16
 2543              	.LCFI171:
 2544              		.cfi_def_cfa_offset 24
 2545 0004 00AF     		add	r7, sp, #0
 2546              	.LCFI172:
 2547              		.cfi_def_cfa_register 7
ARM GAS  C:\Users\vct344\AppData\Local\Temp\ccePc7Ac.s 			page 60


 2548 0006 7860     		str	r0, [r7, #4]
 2549 0008 3960     		str	r1, [r7]
 884:Core/Src/lis2dw12_reg.c ****   lis2dw12_ctrl2_t reg;
 885:Core/Src/lis2dw12_reg.c ****   int32_t ret;
 886:Core/Src/lis2dw12_reg.c **** 
 887:Core/Src/lis2dw12_reg.c ****   ret = lis2dw12_read_reg(ctx, LIS2DW12_CTRL2, (uint8_t *) &reg, 1);
 2550              		.loc 1 887 9
 2551 000a 07F10802 		add	r2, r7, #8
 2552 000e 0123     		movs	r3, #1
 2553 0010 2121     		movs	r1, #33
 2554 0012 7868     		ldr	r0, [r7, #4]
 2555 0014 FFF7FEFF 		bl	lis2dw12_read_reg
 2556 0018 F860     		str	r0, [r7, #12]
 888:Core/Src/lis2dw12_reg.c ****   *val = reg.if_add_inc;
 2557              		.loc 1 888 13
 2558 001a 3B7A     		ldrb	r3, [r7, #8]
 2559 001c C3F38003 		ubfx	r3, r3, #2, #1
 2560 0020 DBB2     		uxtb	r3, r3
 2561 0022 1A46     		mov	r2, r3
 2562              		.loc 1 888 8
 2563 0024 3B68     		ldr	r3, [r7]
 2564 0026 1A70     		strb	r2, [r3]
 889:Core/Src/lis2dw12_reg.c **** 
 890:Core/Src/lis2dw12_reg.c ****   return ret;
 2565              		.loc 1 890 10
 2566 0028 FB68     		ldr	r3, [r7, #12]
 891:Core/Src/lis2dw12_reg.c **** }
 2567              		.loc 1 891 1
 2568 002a 1846     		mov	r0, r3
 2569 002c 1037     		adds	r7, r7, #16
 2570              	.LCFI173:
 2571              		.cfi_def_cfa_offset 8
 2572 002e BD46     		mov	sp, r7
 2573              	.LCFI174:
 2574              		.cfi_def_cfa_register 13
 2575              		@ sp needed
 2576 0030 80BD     		pop	{r7, pc}
 2577              		.cfi_endproc
 2578              	.LFE34:
 2580              		.section	.text.lis2dw12_reset_set,"ax",%progbits
 2581              		.align	1
 2582              		.global	lis2dw12_reset_set
 2583              		.syntax unified
 2584              		.thumb
 2585              		.thumb_func
 2587              	lis2dw12_reset_set:
 2588              	.LFB35:
 892:Core/Src/lis2dw12_reg.c **** 
 893:Core/Src/lis2dw12_reg.c **** /**
 894:Core/Src/lis2dw12_reg.c ****   * @brief  Software reset. Restore the default values in user registers.[set]
 895:Core/Src/lis2dw12_reg.c ****   *
 896:Core/Src/lis2dw12_reg.c ****   * @param  ctx      read / write interface definitions
 897:Core/Src/lis2dw12_reg.c ****   * @param  val      change the values of soft_reset in reg CTRL2
 898:Core/Src/lis2dw12_reg.c ****   * @retval          interface status (MANDATORY: return 0 -> no Error)
 899:Core/Src/lis2dw12_reg.c ****   *
 900:Core/Src/lis2dw12_reg.c ****   */
 901:Core/Src/lis2dw12_reg.c **** int32_t lis2dw12_reset_set(const stmdev_ctx_t *ctx, uint8_t val)
ARM GAS  C:\Users\vct344\AppData\Local\Temp\ccePc7Ac.s 			page 61


 902:Core/Src/lis2dw12_reg.c **** {
 2589              		.loc 1 902 1
 2590              		.cfi_startproc
 2591              		@ args = 0, pretend = 0, frame = 16
 2592              		@ frame_needed = 1, uses_anonymous_args = 0
 2593 0000 80B5     		push	{r7, lr}
 2594              	.LCFI175:
 2595              		.cfi_def_cfa_offset 8
 2596              		.cfi_offset 7, -8
 2597              		.cfi_offset 14, -4
 2598 0002 84B0     		sub	sp, sp, #16
 2599              	.LCFI176:
 2600              		.cfi_def_cfa_offset 24
 2601 0004 00AF     		add	r7, sp, #0
 2602              	.LCFI177:
 2603              		.cfi_def_cfa_register 7
 2604 0006 7860     		str	r0, [r7, #4]
 2605 0008 0B46     		mov	r3, r1
 2606 000a FB70     		strb	r3, [r7, #3]
 903:Core/Src/lis2dw12_reg.c ****   lis2dw12_ctrl2_t reg;
 904:Core/Src/lis2dw12_reg.c ****   int32_t ret;
 905:Core/Src/lis2dw12_reg.c **** 
 906:Core/Src/lis2dw12_reg.c ****   ret = lis2dw12_read_reg(ctx, LIS2DW12_CTRL2, (uint8_t *) &reg, 1);
 2607              		.loc 1 906 9
 2608 000c 07F10802 		add	r2, r7, #8
 2609 0010 0123     		movs	r3, #1
 2610 0012 2121     		movs	r1, #33
 2611 0014 7868     		ldr	r0, [r7, #4]
 2612 0016 FFF7FEFF 		bl	lis2dw12_read_reg
 2613 001a F860     		str	r0, [r7, #12]
 907:Core/Src/lis2dw12_reg.c **** 
 908:Core/Src/lis2dw12_reg.c ****   if (ret == 0)
 2614              		.loc 1 908 6
 2615 001c FB68     		ldr	r3, [r7, #12]
 2616 001e 002B     		cmp	r3, #0
 2617 0020 0FD1     		bne	.L150
 909:Core/Src/lis2dw12_reg.c ****   {
 910:Core/Src/lis2dw12_reg.c ****     reg.soft_reset = val;
 2618              		.loc 1 910 20
 2619 0022 FB78     		ldrb	r3, [r7, #3]
 2620 0024 03F00103 		and	r3, r3, #1
 2621 0028 DAB2     		uxtb	r2, r3
 2622 002a 3B7A     		ldrb	r3, [r7, #8]
 2623 002c 62F38613 		bfi	r3, r2, #6, #1
 2624 0030 3B72     		strb	r3, [r7, #8]
 911:Core/Src/lis2dw12_reg.c ****     ret = lis2dw12_write_reg(ctx, LIS2DW12_CTRL2, (uint8_t *) &reg, 1);
 2625              		.loc 1 911 11
 2626 0032 07F10802 		add	r2, r7, #8
 2627 0036 0123     		movs	r3, #1
 2628 0038 2121     		movs	r1, #33
 2629 003a 7868     		ldr	r0, [r7, #4]
 2630 003c FFF7FEFF 		bl	lis2dw12_write_reg
 2631 0040 F860     		str	r0, [r7, #12]
 2632              	.L150:
 912:Core/Src/lis2dw12_reg.c ****   }
 913:Core/Src/lis2dw12_reg.c **** 
 914:Core/Src/lis2dw12_reg.c ****   return ret;
ARM GAS  C:\Users\vct344\AppData\Local\Temp\ccePc7Ac.s 			page 62


 2633              		.loc 1 914 10
 2634 0042 FB68     		ldr	r3, [r7, #12]
 915:Core/Src/lis2dw12_reg.c **** }
 2635              		.loc 1 915 1
 2636 0044 1846     		mov	r0, r3
 2637 0046 1037     		adds	r7, r7, #16
 2638              	.LCFI178:
 2639              		.cfi_def_cfa_offset 8
 2640 0048 BD46     		mov	sp, r7
 2641              	.LCFI179:
 2642              		.cfi_def_cfa_register 13
 2643              		@ sp needed
 2644 004a 80BD     		pop	{r7, pc}
 2645              		.cfi_endproc
 2646              	.LFE35:
 2648              		.section	.text.lis2dw12_reset_get,"ax",%progbits
 2649              		.align	1
 2650              		.global	lis2dw12_reset_get
 2651              		.syntax unified
 2652              		.thumb
 2653              		.thumb_func
 2655              	lis2dw12_reset_get:
 2656              	.LFB36:
 916:Core/Src/lis2dw12_reg.c **** 
 917:Core/Src/lis2dw12_reg.c **** /**
 918:Core/Src/lis2dw12_reg.c ****   * @brief  Software reset. Restore the default values in user registers.[get]
 919:Core/Src/lis2dw12_reg.c ****   *
 920:Core/Src/lis2dw12_reg.c ****   * @param  ctx      read / write interface definitions
 921:Core/Src/lis2dw12_reg.c ****   * @param  val      change the values of soft_reset in reg CTRL2
 922:Core/Src/lis2dw12_reg.c ****   * @retval          interface status (MANDATORY: return 0 -> no Error)
 923:Core/Src/lis2dw12_reg.c ****   *
 924:Core/Src/lis2dw12_reg.c ****   */
 925:Core/Src/lis2dw12_reg.c **** int32_t lis2dw12_reset_get(const stmdev_ctx_t *ctx, uint8_t *val)
 926:Core/Src/lis2dw12_reg.c **** {
 2657              		.loc 1 926 1
 2658              		.cfi_startproc
 2659              		@ args = 0, pretend = 0, frame = 16
 2660              		@ frame_needed = 1, uses_anonymous_args = 0
 2661 0000 80B5     		push	{r7, lr}
 2662              	.LCFI180:
 2663              		.cfi_def_cfa_offset 8
 2664              		.cfi_offset 7, -8
 2665              		.cfi_offset 14, -4
 2666 0002 84B0     		sub	sp, sp, #16
 2667              	.LCFI181:
 2668              		.cfi_def_cfa_offset 24
 2669 0004 00AF     		add	r7, sp, #0
 2670              	.LCFI182:
 2671              		.cfi_def_cfa_register 7
 2672 0006 7860     		str	r0, [r7, #4]
 2673 0008 3960     		str	r1, [r7]
 927:Core/Src/lis2dw12_reg.c ****   lis2dw12_ctrl2_t reg;
 928:Core/Src/lis2dw12_reg.c ****   int32_t ret;
 929:Core/Src/lis2dw12_reg.c **** 
 930:Core/Src/lis2dw12_reg.c ****   ret = lis2dw12_read_reg(ctx, LIS2DW12_CTRL2, (uint8_t *) &reg, 1);
 2674              		.loc 1 930 9
 2675 000a 07F10802 		add	r2, r7, #8
ARM GAS  C:\Users\vct344\AppData\Local\Temp\ccePc7Ac.s 			page 63


 2676 000e 0123     		movs	r3, #1
 2677 0010 2121     		movs	r1, #33
 2678 0012 7868     		ldr	r0, [r7, #4]
 2679 0014 FFF7FEFF 		bl	lis2dw12_read_reg
 2680 0018 F860     		str	r0, [r7, #12]
 931:Core/Src/lis2dw12_reg.c ****   *val = reg.soft_reset;
 2681              		.loc 1 931 13
 2682 001a 3B7A     		ldrb	r3, [r7, #8]
 2683 001c C3F38013 		ubfx	r3, r3, #6, #1
 2684 0020 DBB2     		uxtb	r3, r3
 2685 0022 1A46     		mov	r2, r3
 2686              		.loc 1 931 8
 2687 0024 3B68     		ldr	r3, [r7]
 2688 0026 1A70     		strb	r2, [r3]
 932:Core/Src/lis2dw12_reg.c **** 
 933:Core/Src/lis2dw12_reg.c ****   return ret;
 2689              		.loc 1 933 10
 2690 0028 FB68     		ldr	r3, [r7, #12]
 934:Core/Src/lis2dw12_reg.c **** }
 2691              		.loc 1 934 1
 2692 002a 1846     		mov	r0, r3
 2693 002c 1037     		adds	r7, r7, #16
 2694              	.LCFI183:
 2695              		.cfi_def_cfa_offset 8
 2696 002e BD46     		mov	sp, r7
 2697              	.LCFI184:
 2698              		.cfi_def_cfa_register 13
 2699              		@ sp needed
 2700 0030 80BD     		pop	{r7, pc}
 2701              		.cfi_endproc
 2702              	.LFE36:
 2704              		.section	.text.lis2dw12_boot_set,"ax",%progbits
 2705              		.align	1
 2706              		.global	lis2dw12_boot_set
 2707              		.syntax unified
 2708              		.thumb
 2709              		.thumb_func
 2711              	lis2dw12_boot_set:
 2712              	.LFB37:
 935:Core/Src/lis2dw12_reg.c **** 
 936:Core/Src/lis2dw12_reg.c **** /**
 937:Core/Src/lis2dw12_reg.c ****   * @brief  Reboot memory content. Reload the calibration parameters.[set]
 938:Core/Src/lis2dw12_reg.c ****   *
 939:Core/Src/lis2dw12_reg.c ****   * @param  ctx      read / write interface definitions
 940:Core/Src/lis2dw12_reg.c ****   * @param  val      change the values of boot in reg CTRL2
 941:Core/Src/lis2dw12_reg.c ****   * @retval          interface status (MANDATORY: return 0 -> no Error)
 942:Core/Src/lis2dw12_reg.c ****   *
 943:Core/Src/lis2dw12_reg.c ****   */
 944:Core/Src/lis2dw12_reg.c **** int32_t lis2dw12_boot_set(const stmdev_ctx_t *ctx, uint8_t val)
 945:Core/Src/lis2dw12_reg.c **** {
 2713              		.loc 1 945 1
 2714              		.cfi_startproc
 2715              		@ args = 0, pretend = 0, frame = 16
 2716              		@ frame_needed = 1, uses_anonymous_args = 0
 2717 0000 80B5     		push	{r7, lr}
 2718              	.LCFI185:
 2719              		.cfi_def_cfa_offset 8
ARM GAS  C:\Users\vct344\AppData\Local\Temp\ccePc7Ac.s 			page 64


 2720              		.cfi_offset 7, -8
 2721              		.cfi_offset 14, -4
 2722 0002 84B0     		sub	sp, sp, #16
 2723              	.LCFI186:
 2724              		.cfi_def_cfa_offset 24
 2725 0004 00AF     		add	r7, sp, #0
 2726              	.LCFI187:
 2727              		.cfi_def_cfa_register 7
 2728 0006 7860     		str	r0, [r7, #4]
 2729 0008 0B46     		mov	r3, r1
 2730 000a FB70     		strb	r3, [r7, #3]
 946:Core/Src/lis2dw12_reg.c ****   lis2dw12_ctrl2_t reg;
 947:Core/Src/lis2dw12_reg.c ****   int32_t ret;
 948:Core/Src/lis2dw12_reg.c **** 
 949:Core/Src/lis2dw12_reg.c ****   ret = lis2dw12_read_reg(ctx, LIS2DW12_CTRL2, (uint8_t *) &reg, 1);
 2731              		.loc 1 949 9
 2732 000c 07F10802 		add	r2, r7, #8
 2733 0010 0123     		movs	r3, #1
 2734 0012 2121     		movs	r1, #33
 2735 0014 7868     		ldr	r0, [r7, #4]
 2736 0016 FFF7FEFF 		bl	lis2dw12_read_reg
 2737 001a F860     		str	r0, [r7, #12]
 950:Core/Src/lis2dw12_reg.c **** 
 951:Core/Src/lis2dw12_reg.c ****   if (ret == 0)
 2738              		.loc 1 951 6
 2739 001c FB68     		ldr	r3, [r7, #12]
 2740 001e 002B     		cmp	r3, #0
 2741 0020 0FD1     		bne	.L155
 952:Core/Src/lis2dw12_reg.c ****   {
 953:Core/Src/lis2dw12_reg.c ****     reg.boot = val;
 2742              		.loc 1 953 14
 2743 0022 FB78     		ldrb	r3, [r7, #3]
 2744 0024 03F00103 		and	r3, r3, #1
 2745 0028 DAB2     		uxtb	r2, r3
 2746 002a 3B7A     		ldrb	r3, [r7, #8]
 2747 002c 62F3C713 		bfi	r3, r2, #7, #1
 2748 0030 3B72     		strb	r3, [r7, #8]
 954:Core/Src/lis2dw12_reg.c ****     ret = lis2dw12_write_reg(ctx, LIS2DW12_CTRL2, (uint8_t *) &reg, 1);
 2749              		.loc 1 954 11
 2750 0032 07F10802 		add	r2, r7, #8
 2751 0036 0123     		movs	r3, #1
 2752 0038 2121     		movs	r1, #33
 2753 003a 7868     		ldr	r0, [r7, #4]
 2754 003c FFF7FEFF 		bl	lis2dw12_write_reg
 2755 0040 F860     		str	r0, [r7, #12]
 2756              	.L155:
 955:Core/Src/lis2dw12_reg.c ****   }
 956:Core/Src/lis2dw12_reg.c **** 
 957:Core/Src/lis2dw12_reg.c ****   return ret;
 2757              		.loc 1 957 10
 2758 0042 FB68     		ldr	r3, [r7, #12]
 958:Core/Src/lis2dw12_reg.c **** }
 2759              		.loc 1 958 1
 2760 0044 1846     		mov	r0, r3
 2761 0046 1037     		adds	r7, r7, #16
 2762              	.LCFI188:
 2763              		.cfi_def_cfa_offset 8
ARM GAS  C:\Users\vct344\AppData\Local\Temp\ccePc7Ac.s 			page 65


 2764 0048 BD46     		mov	sp, r7
 2765              	.LCFI189:
 2766              		.cfi_def_cfa_register 13
 2767              		@ sp needed
 2768 004a 80BD     		pop	{r7, pc}
 2769              		.cfi_endproc
 2770              	.LFE37:
 2772              		.section	.text.lis2dw12_boot_get,"ax",%progbits
 2773              		.align	1
 2774              		.global	lis2dw12_boot_get
 2775              		.syntax unified
 2776              		.thumb
 2777              		.thumb_func
 2779              	lis2dw12_boot_get:
 2780              	.LFB38:
 959:Core/Src/lis2dw12_reg.c **** 
 960:Core/Src/lis2dw12_reg.c **** /**
 961:Core/Src/lis2dw12_reg.c ****   * @brief  Reboot memory content. Reload the calibration parameters.[get]
 962:Core/Src/lis2dw12_reg.c ****   *
 963:Core/Src/lis2dw12_reg.c ****   * @param  ctx      read / write interface definitions
 964:Core/Src/lis2dw12_reg.c ****   * @param  val      change the values of boot in reg CTRL2
 965:Core/Src/lis2dw12_reg.c ****   * @retval          interface status (MANDATORY: return 0 -> no Error)
 966:Core/Src/lis2dw12_reg.c ****   *
 967:Core/Src/lis2dw12_reg.c ****   */
 968:Core/Src/lis2dw12_reg.c **** int32_t lis2dw12_boot_get(const stmdev_ctx_t *ctx, uint8_t *val)
 969:Core/Src/lis2dw12_reg.c **** {
 2781              		.loc 1 969 1
 2782              		.cfi_startproc
 2783              		@ args = 0, pretend = 0, frame = 16
 2784              		@ frame_needed = 1, uses_anonymous_args = 0
 2785 0000 80B5     		push	{r7, lr}
 2786              	.LCFI190:
 2787              		.cfi_def_cfa_offset 8
 2788              		.cfi_offset 7, -8
 2789              		.cfi_offset 14, -4
 2790 0002 84B0     		sub	sp, sp, #16
 2791              	.LCFI191:
 2792              		.cfi_def_cfa_offset 24
 2793 0004 00AF     		add	r7, sp, #0
 2794              	.LCFI192:
 2795              		.cfi_def_cfa_register 7
 2796 0006 7860     		str	r0, [r7, #4]
 2797 0008 3960     		str	r1, [r7]
 970:Core/Src/lis2dw12_reg.c ****   lis2dw12_ctrl2_t reg;
 971:Core/Src/lis2dw12_reg.c ****   int32_t ret;
 972:Core/Src/lis2dw12_reg.c **** 
 973:Core/Src/lis2dw12_reg.c ****   ret = lis2dw12_read_reg(ctx, LIS2DW12_CTRL2, (uint8_t *) &reg, 1);
 2798              		.loc 1 973 9
 2799 000a 07F10802 		add	r2, r7, #8
 2800 000e 0123     		movs	r3, #1
 2801 0010 2121     		movs	r1, #33
 2802 0012 7868     		ldr	r0, [r7, #4]
 2803 0014 FFF7FEFF 		bl	lis2dw12_read_reg
 2804 0018 F860     		str	r0, [r7, #12]
 974:Core/Src/lis2dw12_reg.c ****   *val = reg.boot;
 2805              		.loc 1 974 13
 2806 001a 3B7A     		ldrb	r3, [r7, #8]
ARM GAS  C:\Users\vct344\AppData\Local\Temp\ccePc7Ac.s 			page 66


 2807 001c C3F3C013 		ubfx	r3, r3, #7, #1
 2808 0020 DBB2     		uxtb	r3, r3
 2809 0022 1A46     		mov	r2, r3
 2810              		.loc 1 974 8
 2811 0024 3B68     		ldr	r3, [r7]
 2812 0026 1A70     		strb	r2, [r3]
 975:Core/Src/lis2dw12_reg.c **** 
 976:Core/Src/lis2dw12_reg.c ****   return ret;
 2813              		.loc 1 976 10
 2814 0028 FB68     		ldr	r3, [r7, #12]
 977:Core/Src/lis2dw12_reg.c **** }
 2815              		.loc 1 977 1
 2816 002a 1846     		mov	r0, r3
 2817 002c 1037     		adds	r7, r7, #16
 2818              	.LCFI193:
 2819              		.cfi_def_cfa_offset 8
 2820 002e BD46     		mov	sp, r7
 2821              	.LCFI194:
 2822              		.cfi_def_cfa_register 13
 2823              		@ sp needed
 2824 0030 80BD     		pop	{r7, pc}
 2825              		.cfi_endproc
 2826              	.LFE38:
 2828              		.section	.text.lis2dw12_self_test_set,"ax",%progbits
 2829              		.align	1
 2830              		.global	lis2dw12_self_test_set
 2831              		.syntax unified
 2832              		.thumb
 2833              		.thumb_func
 2835              	lis2dw12_self_test_set:
 2836              	.LFB39:
 978:Core/Src/lis2dw12_reg.c **** 
 979:Core/Src/lis2dw12_reg.c **** /**
 980:Core/Src/lis2dw12_reg.c ****   * @brief  Sensor self-test enable.[set]
 981:Core/Src/lis2dw12_reg.c ****   *
 982:Core/Src/lis2dw12_reg.c ****   * @param  ctx      read / write interface definitions
 983:Core/Src/lis2dw12_reg.c ****   * @param  val      change the values of st in reg CTRL3
 984:Core/Src/lis2dw12_reg.c ****   * @retval          interface status (MANDATORY: return 0 -> no Error)
 985:Core/Src/lis2dw12_reg.c ****   *
 986:Core/Src/lis2dw12_reg.c ****   */
 987:Core/Src/lis2dw12_reg.c **** int32_t lis2dw12_self_test_set(const stmdev_ctx_t *ctx, lis2dw12_st_t val)
 988:Core/Src/lis2dw12_reg.c **** {
 2837              		.loc 1 988 1
 2838              		.cfi_startproc
 2839              		@ args = 0, pretend = 0, frame = 16
 2840              		@ frame_needed = 1, uses_anonymous_args = 0
 2841 0000 80B5     		push	{r7, lr}
 2842              	.LCFI195:
 2843              		.cfi_def_cfa_offset 8
 2844              		.cfi_offset 7, -8
 2845              		.cfi_offset 14, -4
 2846 0002 84B0     		sub	sp, sp, #16
 2847              	.LCFI196:
 2848              		.cfi_def_cfa_offset 24
 2849 0004 00AF     		add	r7, sp, #0
 2850              	.LCFI197:
 2851              		.cfi_def_cfa_register 7
ARM GAS  C:\Users\vct344\AppData\Local\Temp\ccePc7Ac.s 			page 67


 2852 0006 7860     		str	r0, [r7, #4]
 2853 0008 0B46     		mov	r3, r1
 2854 000a FB70     		strb	r3, [r7, #3]
 989:Core/Src/lis2dw12_reg.c ****   lis2dw12_ctrl3_t reg;
 990:Core/Src/lis2dw12_reg.c ****   int32_t ret;
 991:Core/Src/lis2dw12_reg.c **** 
 992:Core/Src/lis2dw12_reg.c ****   ret = lis2dw12_read_reg(ctx, LIS2DW12_CTRL3, (uint8_t *) &reg, 1);
 2855              		.loc 1 992 9
 2856 000c 07F10802 		add	r2, r7, #8
 2857 0010 0123     		movs	r3, #1
 2858 0012 2221     		movs	r1, #34
 2859 0014 7868     		ldr	r0, [r7, #4]
 2860 0016 FFF7FEFF 		bl	lis2dw12_read_reg
 2861 001a F860     		str	r0, [r7, #12]
 993:Core/Src/lis2dw12_reg.c **** 
 994:Core/Src/lis2dw12_reg.c ****   if (ret == 0)
 2862              		.loc 1 994 6
 2863 001c FB68     		ldr	r3, [r7, #12]
 2864 001e 002B     		cmp	r3, #0
 2865 0020 0FD1     		bne	.L160
 995:Core/Src/lis2dw12_reg.c ****   {
 996:Core/Src/lis2dw12_reg.c ****     reg.st = (uint8_t) val;
 2866              		.loc 1 996 14
 2867 0022 FB78     		ldrb	r3, [r7, #3]
 2868 0024 03F00303 		and	r3, r3, #3
 2869 0028 DAB2     		uxtb	r2, r3
 2870              		.loc 1 996 12
 2871 002a 3B7A     		ldrb	r3, [r7, #8]
 2872 002c 62F38713 		bfi	r3, r2, #6, #2
 2873 0030 3B72     		strb	r3, [r7, #8]
 997:Core/Src/lis2dw12_reg.c ****     ret = lis2dw12_write_reg(ctx, LIS2DW12_CTRL3, (uint8_t *) &reg, 1);
 2874              		.loc 1 997 11
 2875 0032 07F10802 		add	r2, r7, #8
 2876 0036 0123     		movs	r3, #1
 2877 0038 2221     		movs	r1, #34
 2878 003a 7868     		ldr	r0, [r7, #4]
 2879 003c FFF7FEFF 		bl	lis2dw12_write_reg
 2880 0040 F860     		str	r0, [r7, #12]
 2881              	.L160:
 998:Core/Src/lis2dw12_reg.c ****   }
 999:Core/Src/lis2dw12_reg.c **** 
1000:Core/Src/lis2dw12_reg.c ****   return ret;
 2882              		.loc 1 1000 10
 2883 0042 FB68     		ldr	r3, [r7, #12]
1001:Core/Src/lis2dw12_reg.c **** }
 2884              		.loc 1 1001 1
 2885 0044 1846     		mov	r0, r3
 2886 0046 1037     		adds	r7, r7, #16
 2887              	.LCFI198:
 2888              		.cfi_def_cfa_offset 8
 2889 0048 BD46     		mov	sp, r7
 2890              	.LCFI199:
 2891              		.cfi_def_cfa_register 13
 2892              		@ sp needed
 2893 004a 80BD     		pop	{r7, pc}
 2894              		.cfi_endproc
 2895              	.LFE39:
ARM GAS  C:\Users\vct344\AppData\Local\Temp\ccePc7Ac.s 			page 68


 2897              		.section	.text.lis2dw12_self_test_get,"ax",%progbits
 2898              		.align	1
 2899              		.global	lis2dw12_self_test_get
 2900              		.syntax unified
 2901              		.thumb
 2902              		.thumb_func
 2904              	lis2dw12_self_test_get:
 2905              	.LFB40:
1002:Core/Src/lis2dw12_reg.c **** 
1003:Core/Src/lis2dw12_reg.c **** /**
1004:Core/Src/lis2dw12_reg.c ****   * @brief  Sensor self-test enable.[get]
1005:Core/Src/lis2dw12_reg.c ****   *
1006:Core/Src/lis2dw12_reg.c ****   * @param  ctx      read / write interface definitions
1007:Core/Src/lis2dw12_reg.c ****   * @param  val      Get the values of st in reg CTRL3
1008:Core/Src/lis2dw12_reg.c ****   * @retval          interface status (MANDATORY: return 0 -> no Error)
1009:Core/Src/lis2dw12_reg.c ****   *
1010:Core/Src/lis2dw12_reg.c ****   */
1011:Core/Src/lis2dw12_reg.c **** int32_t lis2dw12_self_test_get(const stmdev_ctx_t *ctx, lis2dw12_st_t *val)
1012:Core/Src/lis2dw12_reg.c **** {
 2906              		.loc 1 1012 1
 2907              		.cfi_startproc
 2908              		@ args = 0, pretend = 0, frame = 16
 2909              		@ frame_needed = 1, uses_anonymous_args = 0
 2910 0000 80B5     		push	{r7, lr}
 2911              	.LCFI200:
 2912              		.cfi_def_cfa_offset 8
 2913              		.cfi_offset 7, -8
 2914              		.cfi_offset 14, -4
 2915 0002 84B0     		sub	sp, sp, #16
 2916              	.LCFI201:
 2917              		.cfi_def_cfa_offset 24
 2918 0004 00AF     		add	r7, sp, #0
 2919              	.LCFI202:
 2920              		.cfi_def_cfa_register 7
 2921 0006 7860     		str	r0, [r7, #4]
 2922 0008 3960     		str	r1, [r7]
1013:Core/Src/lis2dw12_reg.c ****   lis2dw12_ctrl3_t reg;
1014:Core/Src/lis2dw12_reg.c ****   int32_t ret;
1015:Core/Src/lis2dw12_reg.c **** 
1016:Core/Src/lis2dw12_reg.c ****   ret = lis2dw12_read_reg(ctx, LIS2DW12_CTRL3, (uint8_t *) &reg, 1);
 2923              		.loc 1 1016 9
 2924 000a 07F10802 		add	r2, r7, #8
 2925 000e 0123     		movs	r3, #1
 2926 0010 2221     		movs	r1, #34
 2927 0012 7868     		ldr	r0, [r7, #4]
 2928 0014 FFF7FEFF 		bl	lis2dw12_read_reg
 2929 0018 F860     		str	r0, [r7, #12]
1017:Core/Src/lis2dw12_reg.c **** 
1018:Core/Src/lis2dw12_reg.c ****   switch (reg.st)
 2930              		.loc 1 1018 14
 2931 001a 3B7A     		ldrb	r3, [r7, #8]
 2932 001c C3F38113 		ubfx	r3, r3, #6, #2
 2933 0020 DBB2     		uxtb	r3, r3
 2934              		.loc 1 1018 3
 2935 0022 022B     		cmp	r3, #2
 2936 0024 0ED0     		beq	.L163
 2937 0026 022B     		cmp	r3, #2
ARM GAS  C:\Users\vct344\AppData\Local\Temp\ccePc7Ac.s 			page 69


 2938 0028 10DC     		bgt	.L164
 2939 002a 002B     		cmp	r3, #0
 2940 002c 02D0     		beq	.L165
 2941 002e 012B     		cmp	r3, #1
 2942 0030 04D0     		beq	.L166
 2943 0032 0BE0     		b	.L164
 2944              	.L165:
1019:Core/Src/lis2dw12_reg.c ****   {
1020:Core/Src/lis2dw12_reg.c ****     case LIS2DW12_XL_ST_DISABLE:
1021:Core/Src/lis2dw12_reg.c ****       *val = LIS2DW12_XL_ST_DISABLE;
 2945              		.loc 1 1021 12
 2946 0034 3B68     		ldr	r3, [r7]
 2947 0036 0022     		movs	r2, #0
 2948 0038 1A70     		strb	r2, [r3]
1022:Core/Src/lis2dw12_reg.c ****       break;
 2949              		.loc 1 1022 7
 2950 003a 0BE0     		b	.L167
 2951              	.L166:
1023:Core/Src/lis2dw12_reg.c **** 
1024:Core/Src/lis2dw12_reg.c ****     case LIS2DW12_XL_ST_POSITIVE:
1025:Core/Src/lis2dw12_reg.c ****       *val = LIS2DW12_XL_ST_POSITIVE;
 2952              		.loc 1 1025 12
 2953 003c 3B68     		ldr	r3, [r7]
 2954 003e 0122     		movs	r2, #1
 2955 0040 1A70     		strb	r2, [r3]
1026:Core/Src/lis2dw12_reg.c ****       break;
 2956              		.loc 1 1026 7
 2957 0042 07E0     		b	.L167
 2958              	.L163:
1027:Core/Src/lis2dw12_reg.c **** 
1028:Core/Src/lis2dw12_reg.c ****     case LIS2DW12_XL_ST_NEGATIVE:
1029:Core/Src/lis2dw12_reg.c ****       *val = LIS2DW12_XL_ST_NEGATIVE;
 2959              		.loc 1 1029 12
 2960 0044 3B68     		ldr	r3, [r7]
 2961 0046 0222     		movs	r2, #2
 2962 0048 1A70     		strb	r2, [r3]
1030:Core/Src/lis2dw12_reg.c ****       break;
 2963              		.loc 1 1030 7
 2964 004a 03E0     		b	.L167
 2965              	.L164:
1031:Core/Src/lis2dw12_reg.c **** 
1032:Core/Src/lis2dw12_reg.c ****     default:
1033:Core/Src/lis2dw12_reg.c ****       *val = LIS2DW12_XL_ST_DISABLE;
 2966              		.loc 1 1033 12
 2967 004c 3B68     		ldr	r3, [r7]
 2968 004e 0022     		movs	r2, #0
 2969 0050 1A70     		strb	r2, [r3]
1034:Core/Src/lis2dw12_reg.c ****       break;
 2970              		.loc 1 1034 7
 2971 0052 00BF     		nop
 2972              	.L167:
1035:Core/Src/lis2dw12_reg.c ****   }
1036:Core/Src/lis2dw12_reg.c **** 
1037:Core/Src/lis2dw12_reg.c ****   return ret;
 2973              		.loc 1 1037 10
 2974 0054 FB68     		ldr	r3, [r7, #12]
1038:Core/Src/lis2dw12_reg.c **** }
ARM GAS  C:\Users\vct344\AppData\Local\Temp\ccePc7Ac.s 			page 70


 2975              		.loc 1 1038 1
 2976 0056 1846     		mov	r0, r3
 2977 0058 1037     		adds	r7, r7, #16
 2978              	.LCFI203:
 2979              		.cfi_def_cfa_offset 8
 2980 005a BD46     		mov	sp, r7
 2981              	.LCFI204:
 2982              		.cfi_def_cfa_register 13
 2983              		@ sp needed
 2984 005c 80BD     		pop	{r7, pc}
 2985              		.cfi_endproc
 2986              	.LFE40:
 2988              		.section	.text.lis2dw12_data_ready_mode_set,"ax",%progbits
 2989              		.align	1
 2990              		.global	lis2dw12_data_ready_mode_set
 2991              		.syntax unified
 2992              		.thumb
 2993              		.thumb_func
 2995              	lis2dw12_data_ready_mode_set:
 2996              	.LFB41:
1039:Core/Src/lis2dw12_reg.c **** 
1040:Core/Src/lis2dw12_reg.c **** /**
1041:Core/Src/lis2dw12_reg.c ****   * @brief  Data-ready pulsed / letched mode.[set]
1042:Core/Src/lis2dw12_reg.c ****   *
1043:Core/Src/lis2dw12_reg.c ****   * @param  ctx      read / write interface definitions
1044:Core/Src/lis2dw12_reg.c ****   * @param  val      change the values of drdy_pulsed in reg CTRL_REG7
1045:Core/Src/lis2dw12_reg.c ****   * @retval          interface status (MANDATORY: return 0 -> no Error)
1046:Core/Src/lis2dw12_reg.c ****   *
1047:Core/Src/lis2dw12_reg.c ****   */
1048:Core/Src/lis2dw12_reg.c **** int32_t lis2dw12_data_ready_mode_set(const stmdev_ctx_t *ctx,
1049:Core/Src/lis2dw12_reg.c ****                                      lis2dw12_drdy_pulsed_t val)
1050:Core/Src/lis2dw12_reg.c **** {
 2997              		.loc 1 1050 1
 2998              		.cfi_startproc
 2999              		@ args = 0, pretend = 0, frame = 16
 3000              		@ frame_needed = 1, uses_anonymous_args = 0
 3001 0000 80B5     		push	{r7, lr}
 3002              	.LCFI205:
 3003              		.cfi_def_cfa_offset 8
 3004              		.cfi_offset 7, -8
 3005              		.cfi_offset 14, -4
 3006 0002 84B0     		sub	sp, sp, #16
 3007              	.LCFI206:
 3008              		.cfi_def_cfa_offset 24
 3009 0004 00AF     		add	r7, sp, #0
 3010              	.LCFI207:
 3011              		.cfi_def_cfa_register 7
 3012 0006 7860     		str	r0, [r7, #4]
 3013 0008 0B46     		mov	r3, r1
 3014 000a FB70     		strb	r3, [r7, #3]
1051:Core/Src/lis2dw12_reg.c ****   lis2dw12_ctrl_reg7_t reg;
1052:Core/Src/lis2dw12_reg.c ****   int32_t ret;
1053:Core/Src/lis2dw12_reg.c **** 
1054:Core/Src/lis2dw12_reg.c ****   ret = lis2dw12_read_reg(ctx, LIS2DW12_CTRL_REG7, (uint8_t *) &reg, 1);
 3015              		.loc 1 1054 9
 3016 000c 07F10802 		add	r2, r7, #8
 3017 0010 0123     		movs	r3, #1
ARM GAS  C:\Users\vct344\AppData\Local\Temp\ccePc7Ac.s 			page 71


 3018 0012 3F21     		movs	r1, #63
 3019 0014 7868     		ldr	r0, [r7, #4]
 3020 0016 FFF7FEFF 		bl	lis2dw12_read_reg
 3021 001a F860     		str	r0, [r7, #12]
1055:Core/Src/lis2dw12_reg.c **** 
1056:Core/Src/lis2dw12_reg.c ****   if (ret == 0)
 3022              		.loc 1 1056 6
 3023 001c FB68     		ldr	r3, [r7, #12]
 3024 001e 002B     		cmp	r3, #0
 3025 0020 0FD1     		bne	.L170
1057:Core/Src/lis2dw12_reg.c ****   {
1058:Core/Src/lis2dw12_reg.c ****     reg.drdy_pulsed = (uint8_t) val;
 3026              		.loc 1 1058 23
 3027 0022 FB78     		ldrb	r3, [r7, #3]
 3028 0024 03F00103 		and	r3, r3, #1
 3029 0028 DAB2     		uxtb	r2, r3
 3030              		.loc 1 1058 21
 3031 002a 3B7A     		ldrb	r3, [r7, #8]
 3032 002c 62F3C713 		bfi	r3, r2, #7, #1
 3033 0030 3B72     		strb	r3, [r7, #8]
1059:Core/Src/lis2dw12_reg.c ****     ret = lis2dw12_write_reg(ctx, LIS2DW12_CTRL_REG7, (uint8_t *) &reg, 1);
 3034              		.loc 1 1059 11
 3035 0032 07F10802 		add	r2, r7, #8
 3036 0036 0123     		movs	r3, #1
 3037 0038 3F21     		movs	r1, #63
 3038 003a 7868     		ldr	r0, [r7, #4]
 3039 003c FFF7FEFF 		bl	lis2dw12_write_reg
 3040 0040 F860     		str	r0, [r7, #12]
 3041              	.L170:
1060:Core/Src/lis2dw12_reg.c ****   }
1061:Core/Src/lis2dw12_reg.c **** 
1062:Core/Src/lis2dw12_reg.c ****   return ret;
 3042              		.loc 1 1062 10
 3043 0042 FB68     		ldr	r3, [r7, #12]
1063:Core/Src/lis2dw12_reg.c **** }
 3044              		.loc 1 1063 1
 3045 0044 1846     		mov	r0, r3
 3046 0046 1037     		adds	r7, r7, #16
 3047              	.LCFI208:
 3048              		.cfi_def_cfa_offset 8
 3049 0048 BD46     		mov	sp, r7
 3050              	.LCFI209:
 3051              		.cfi_def_cfa_register 13
 3052              		@ sp needed
 3053 004a 80BD     		pop	{r7, pc}
 3054              		.cfi_endproc
 3055              	.LFE41:
 3057              		.section	.text.lis2dw12_data_ready_mode_get,"ax",%progbits
 3058              		.align	1
 3059              		.global	lis2dw12_data_ready_mode_get
 3060              		.syntax unified
 3061              		.thumb
 3062              		.thumb_func
 3064              	lis2dw12_data_ready_mode_get:
 3065              	.LFB42:
1064:Core/Src/lis2dw12_reg.c **** 
1065:Core/Src/lis2dw12_reg.c **** /**
ARM GAS  C:\Users\vct344\AppData\Local\Temp\ccePc7Ac.s 			page 72


1066:Core/Src/lis2dw12_reg.c ****   * @brief  Data-ready pulsed / letched mode.[get]
1067:Core/Src/lis2dw12_reg.c ****   *
1068:Core/Src/lis2dw12_reg.c ****   * @param  ctx      read / write interface definitions
1069:Core/Src/lis2dw12_reg.c ****   * @param  val      Get the values of drdy_pulsed in reg CTRL_REG7
1070:Core/Src/lis2dw12_reg.c ****   * @retval          interface status (MANDATORY: return 0 -> no Error)
1071:Core/Src/lis2dw12_reg.c ****   *
1072:Core/Src/lis2dw12_reg.c ****   */
1073:Core/Src/lis2dw12_reg.c **** int32_t lis2dw12_data_ready_mode_get(const stmdev_ctx_t *ctx,
1074:Core/Src/lis2dw12_reg.c ****                                      lis2dw12_drdy_pulsed_t *val)
1075:Core/Src/lis2dw12_reg.c **** {
 3066              		.loc 1 1075 1
 3067              		.cfi_startproc
 3068              		@ args = 0, pretend = 0, frame = 16
 3069              		@ frame_needed = 1, uses_anonymous_args = 0
 3070 0000 80B5     		push	{r7, lr}
 3071              	.LCFI210:
 3072              		.cfi_def_cfa_offset 8
 3073              		.cfi_offset 7, -8
 3074              		.cfi_offset 14, -4
 3075 0002 84B0     		sub	sp, sp, #16
 3076              	.LCFI211:
 3077              		.cfi_def_cfa_offset 24
 3078 0004 00AF     		add	r7, sp, #0
 3079              	.LCFI212:
 3080              		.cfi_def_cfa_register 7
 3081 0006 7860     		str	r0, [r7, #4]
 3082 0008 3960     		str	r1, [r7]
1076:Core/Src/lis2dw12_reg.c ****   lis2dw12_ctrl_reg7_t reg;
1077:Core/Src/lis2dw12_reg.c ****   int32_t ret;
1078:Core/Src/lis2dw12_reg.c **** 
1079:Core/Src/lis2dw12_reg.c ****   ret = lis2dw12_read_reg(ctx, LIS2DW12_CTRL_REG7, (uint8_t *) &reg, 1);
 3083              		.loc 1 1079 9
 3084 000a 07F10802 		add	r2, r7, #8
 3085 000e 0123     		movs	r3, #1
 3086 0010 3F21     		movs	r1, #63
 3087 0012 7868     		ldr	r0, [r7, #4]
 3088 0014 FFF7FEFF 		bl	lis2dw12_read_reg
 3089 0018 F860     		str	r0, [r7, #12]
1080:Core/Src/lis2dw12_reg.c **** 
1081:Core/Src/lis2dw12_reg.c ****   switch (reg.drdy_pulsed)
 3090              		.loc 1 1081 14
 3091 001a 3B7A     		ldrb	r3, [r7, #8]
 3092 001c C3F3C013 		ubfx	r3, r3, #7, #1
 3093 0020 DBB2     		uxtb	r3, r3
 3094              		.loc 1 1081 3
 3095 0022 002B     		cmp	r3, #0
 3096 0024 02D0     		beq	.L173
 3097 0026 012B     		cmp	r3, #1
 3098 0028 04D0     		beq	.L174
 3099 002a 07E0     		b	.L178
 3100              	.L173:
1082:Core/Src/lis2dw12_reg.c ****   {
1083:Core/Src/lis2dw12_reg.c ****     case LIS2DW12_DRDY_LATCHED:
1084:Core/Src/lis2dw12_reg.c ****       *val = LIS2DW12_DRDY_LATCHED;
 3101              		.loc 1 1084 12
 3102 002c 3B68     		ldr	r3, [r7]
 3103 002e 0022     		movs	r2, #0
ARM GAS  C:\Users\vct344\AppData\Local\Temp\ccePc7Ac.s 			page 73


 3104 0030 1A70     		strb	r2, [r3]
1085:Core/Src/lis2dw12_reg.c ****       break;
 3105              		.loc 1 1085 7
 3106 0032 07E0     		b	.L176
 3107              	.L174:
1086:Core/Src/lis2dw12_reg.c **** 
1087:Core/Src/lis2dw12_reg.c ****     case LIS2DW12_DRDY_PULSED:
1088:Core/Src/lis2dw12_reg.c ****       *val = LIS2DW12_DRDY_PULSED;
 3108              		.loc 1 1088 12
 3109 0034 3B68     		ldr	r3, [r7]
 3110 0036 0122     		movs	r2, #1
 3111 0038 1A70     		strb	r2, [r3]
1089:Core/Src/lis2dw12_reg.c ****       break;
 3112              		.loc 1 1089 7
 3113 003a 03E0     		b	.L176
 3114              	.L178:
1090:Core/Src/lis2dw12_reg.c **** 
1091:Core/Src/lis2dw12_reg.c ****     default:
1092:Core/Src/lis2dw12_reg.c ****       *val = LIS2DW12_DRDY_LATCHED;
 3115              		.loc 1 1092 12
 3116 003c 3B68     		ldr	r3, [r7]
 3117 003e 0022     		movs	r2, #0
 3118 0040 1A70     		strb	r2, [r3]
1093:Core/Src/lis2dw12_reg.c ****       break;
 3119              		.loc 1 1093 7
 3120 0042 00BF     		nop
 3121              	.L176:
1094:Core/Src/lis2dw12_reg.c ****   }
1095:Core/Src/lis2dw12_reg.c **** 
1096:Core/Src/lis2dw12_reg.c ****   return ret;
 3122              		.loc 1 1096 10
 3123 0044 FB68     		ldr	r3, [r7, #12]
1097:Core/Src/lis2dw12_reg.c **** }
 3124              		.loc 1 1097 1
 3125 0046 1846     		mov	r0, r3
 3126 0048 1037     		adds	r7, r7, #16
 3127              	.LCFI213:
 3128              		.cfi_def_cfa_offset 8
 3129 004a BD46     		mov	sp, r7
 3130              	.LCFI214:
 3131              		.cfi_def_cfa_register 13
 3132              		@ sp needed
 3133 004c 80BD     		pop	{r7, pc}
 3134              		.cfi_endproc
 3135              	.LFE42:
 3137              		.section	.text.lis2dw12_filter_path_set,"ax",%progbits
 3138              		.align	1
 3139              		.global	lis2dw12_filter_path_set
 3140              		.syntax unified
 3141              		.thumb
 3142              		.thumb_func
 3144              	lis2dw12_filter_path_set:
 3145              	.LFB43:
1098:Core/Src/lis2dw12_reg.c **** 
1099:Core/Src/lis2dw12_reg.c **** /**
1100:Core/Src/lis2dw12_reg.c ****   * @}
1101:Core/Src/lis2dw12_reg.c ****   *
ARM GAS  C:\Users\vct344\AppData\Local\Temp\ccePc7Ac.s 			page 74


1102:Core/Src/lis2dw12_reg.c ****   */
1103:Core/Src/lis2dw12_reg.c **** 
1104:Core/Src/lis2dw12_reg.c **** /**
1105:Core/Src/lis2dw12_reg.c ****   * @defgroup  LIS2DW12_Filters
1106:Core/Src/lis2dw12_reg.c ****   * @brief     This section group all the functions concerning the filters
1107:Core/Src/lis2dw12_reg.c ****   *            configuration.
1108:Core/Src/lis2dw12_reg.c ****   * @{
1109:Core/Src/lis2dw12_reg.c ****   *
1110:Core/Src/lis2dw12_reg.c ****   */
1111:Core/Src/lis2dw12_reg.c **** 
1112:Core/Src/lis2dw12_reg.c **** /**
1113:Core/Src/lis2dw12_reg.c ****   * @brief  Accelerometer filtering path for outputs.[set]
1114:Core/Src/lis2dw12_reg.c ****   *
1115:Core/Src/lis2dw12_reg.c ****   * @param  ctx      read / write interface definitions
1116:Core/Src/lis2dw12_reg.c ****   * @param  val      change the values of fds in reg CTRL6
1117:Core/Src/lis2dw12_reg.c ****   * @retval          interface status (MANDATORY: return 0 -> no Error)
1118:Core/Src/lis2dw12_reg.c ****   *
1119:Core/Src/lis2dw12_reg.c ****   */
1120:Core/Src/lis2dw12_reg.c **** int32_t lis2dw12_filter_path_set(const stmdev_ctx_t *ctx,
1121:Core/Src/lis2dw12_reg.c ****                                  lis2dw12_fds_t val)
1122:Core/Src/lis2dw12_reg.c **** {
 3146              		.loc 1 1122 1
 3147              		.cfi_startproc
 3148              		@ args = 0, pretend = 0, frame = 24
 3149              		@ frame_needed = 1, uses_anonymous_args = 0
 3150 0000 80B5     		push	{r7, lr}
 3151              	.LCFI215:
 3152              		.cfi_def_cfa_offset 8
 3153              		.cfi_offset 7, -8
 3154              		.cfi_offset 14, -4
 3155 0002 86B0     		sub	sp, sp, #24
 3156              	.LCFI216:
 3157              		.cfi_def_cfa_offset 32
 3158 0004 00AF     		add	r7, sp, #0
 3159              	.LCFI217:
 3160              		.cfi_def_cfa_register 7
 3161 0006 7860     		str	r0, [r7, #4]
 3162 0008 0B46     		mov	r3, r1
 3163 000a FB70     		strb	r3, [r7, #3]
1123:Core/Src/lis2dw12_reg.c ****   lis2dw12_ctrl6_t ctrl6;
1124:Core/Src/lis2dw12_reg.c ****   lis2dw12_ctrl_reg7_t ctrl_reg7;
1125:Core/Src/lis2dw12_reg.c ****   int32_t ret;
1126:Core/Src/lis2dw12_reg.c **** 
1127:Core/Src/lis2dw12_reg.c ****   ret = lis2dw12_read_reg(ctx, LIS2DW12_CTRL6, (uint8_t *) &ctrl6, 1);
 3164              		.loc 1 1127 9
 3165 000c 07F11002 		add	r2, r7, #16
 3166 0010 0123     		movs	r3, #1
 3167 0012 2521     		movs	r1, #37
 3168 0014 7868     		ldr	r0, [r7, #4]
 3169 0016 FFF7FEFF 		bl	lis2dw12_read_reg
 3170 001a 7861     		str	r0, [r7, #20]
1128:Core/Src/lis2dw12_reg.c **** 
1129:Core/Src/lis2dw12_reg.c ****   if (ret == 0)
 3171              		.loc 1 1129 6
 3172 001c 7B69     		ldr	r3, [r7, #20]
 3173 001e 002B     		cmp	r3, #0
 3174 0020 10D1     		bne	.L180
ARM GAS  C:\Users\vct344\AppData\Local\Temp\ccePc7Ac.s 			page 75


1130:Core/Src/lis2dw12_reg.c ****   {
1131:Core/Src/lis2dw12_reg.c ****     ctrl6.fds = ((uint8_t) val & 0x10U) >> 4;
 3175              		.loc 1 1131 41
 3176 0022 FB78     		ldrb	r3, [r7, #3]	@ zero_extendqisi2
 3177 0024 1B09     		lsrs	r3, r3, #4
 3178 0026 03F00103 		and	r3, r3, #1
 3179 002a DAB2     		uxtb	r2, r3
 3180              		.loc 1 1131 15
 3181 002c 3B7C     		ldrb	r3, [r7, #16]
 3182 002e 62F3C303 		bfi	r3, r2, #3, #1
 3183 0032 3B74     		strb	r3, [r7, #16]
1132:Core/Src/lis2dw12_reg.c ****     ret = lis2dw12_write_reg(ctx, LIS2DW12_CTRL6, (uint8_t *) &ctrl6, 1);
 3184              		.loc 1 1132 11
 3185 0034 07F11002 		add	r2, r7, #16
 3186 0038 0123     		movs	r3, #1
 3187 003a 2521     		movs	r1, #37
 3188 003c 7868     		ldr	r0, [r7, #4]
 3189 003e FFF7FEFF 		bl	lis2dw12_write_reg
 3190 0042 7861     		str	r0, [r7, #20]
 3191              	.L180:
1133:Core/Src/lis2dw12_reg.c ****   }
1134:Core/Src/lis2dw12_reg.c **** 
1135:Core/Src/lis2dw12_reg.c ****   if (ret == 0)
 3192              		.loc 1 1135 6
 3193 0044 7B69     		ldr	r3, [r7, #20]
 3194 0046 002B     		cmp	r3, #0
 3195 0048 07D1     		bne	.L181
1136:Core/Src/lis2dw12_reg.c ****   {
1137:Core/Src/lis2dw12_reg.c ****     ret = lis2dw12_read_reg(ctx, LIS2DW12_CTRL_REG7,
 3196              		.loc 1 1137 11
 3197 004a 07F10C02 		add	r2, r7, #12
 3198 004e 0123     		movs	r3, #1
 3199 0050 3F21     		movs	r1, #63
 3200 0052 7868     		ldr	r0, [r7, #4]
 3201 0054 FFF7FEFF 		bl	lis2dw12_read_reg
 3202 0058 7861     		str	r0, [r7, #20]
 3203              	.L181:
1138:Core/Src/lis2dw12_reg.c ****                             (uint8_t *) &ctrl_reg7, 1);
1139:Core/Src/lis2dw12_reg.c ****   }
1140:Core/Src/lis2dw12_reg.c **** 
1141:Core/Src/lis2dw12_reg.c ****   if (ret == 0)
 3204              		.loc 1 1141 6
 3205 005a 7B69     		ldr	r3, [r7, #20]
 3206 005c 002B     		cmp	r3, #0
 3207 005e 0FD1     		bne	.L182
1142:Core/Src/lis2dw12_reg.c ****   {
1143:Core/Src/lis2dw12_reg.c ****     ctrl_reg7.usr_off_on_out = (uint8_t) val & 0x01U;
 3208              		.loc 1 1143 46
 3209 0060 FB78     		ldrb	r3, [r7, #3]
 3210 0062 03F00103 		and	r3, r3, #1
 3211 0066 DAB2     		uxtb	r2, r3
 3212              		.loc 1 1143 30
 3213 0068 3B7B     		ldrb	r3, [r7, #12]
 3214 006a 62F30413 		bfi	r3, r2, #4, #1
 3215 006e 3B73     		strb	r3, [r7, #12]
1144:Core/Src/lis2dw12_reg.c ****     ret = lis2dw12_write_reg(ctx, LIS2DW12_CTRL_REG7,
 3216              		.loc 1 1144 11
ARM GAS  C:\Users\vct344\AppData\Local\Temp\ccePc7Ac.s 			page 76


 3217 0070 07F10C02 		add	r2, r7, #12
 3218 0074 0123     		movs	r3, #1
 3219 0076 3F21     		movs	r1, #63
 3220 0078 7868     		ldr	r0, [r7, #4]
 3221 007a FFF7FEFF 		bl	lis2dw12_write_reg
 3222 007e 7861     		str	r0, [r7, #20]
 3223              	.L182:
1145:Core/Src/lis2dw12_reg.c ****                              (uint8_t *) &ctrl_reg7, 1);
1146:Core/Src/lis2dw12_reg.c ****   }
1147:Core/Src/lis2dw12_reg.c **** 
1148:Core/Src/lis2dw12_reg.c ****   return ret;
 3224              		.loc 1 1148 10
 3225 0080 7B69     		ldr	r3, [r7, #20]
1149:Core/Src/lis2dw12_reg.c **** }
 3226              		.loc 1 1149 1
 3227 0082 1846     		mov	r0, r3
 3228 0084 1837     		adds	r7, r7, #24
 3229              	.LCFI218:
 3230              		.cfi_def_cfa_offset 8
 3231 0086 BD46     		mov	sp, r7
 3232              	.LCFI219:
 3233              		.cfi_def_cfa_register 13
 3234              		@ sp needed
 3235 0088 80BD     		pop	{r7, pc}
 3236              		.cfi_endproc
 3237              	.LFE43:
 3239              		.section	.text.lis2dw12_filter_path_get,"ax",%progbits
 3240              		.align	1
 3241              		.global	lis2dw12_filter_path_get
 3242              		.syntax unified
 3243              		.thumb
 3244              		.thumb_func
 3246              	lis2dw12_filter_path_get:
 3247              	.LFB44:
1150:Core/Src/lis2dw12_reg.c **** 
1151:Core/Src/lis2dw12_reg.c **** /**
1152:Core/Src/lis2dw12_reg.c ****   * @brief  Accelerometer filtering path for outputs.[get]
1153:Core/Src/lis2dw12_reg.c ****   *
1154:Core/Src/lis2dw12_reg.c ****   * @param  ctx      read / write interface definitions
1155:Core/Src/lis2dw12_reg.c ****   * @param  val      Get the values of fds in reg CTRL6
1156:Core/Src/lis2dw12_reg.c ****   * @retval          interface status (MANDATORY: return 0 -> no Error)
1157:Core/Src/lis2dw12_reg.c ****   *
1158:Core/Src/lis2dw12_reg.c ****   */
1159:Core/Src/lis2dw12_reg.c **** int32_t lis2dw12_filter_path_get(const stmdev_ctx_t *ctx,
1160:Core/Src/lis2dw12_reg.c ****                                  lis2dw12_fds_t *val)
1161:Core/Src/lis2dw12_reg.c **** {
 3248              		.loc 1 1161 1
 3249              		.cfi_startproc
 3250              		@ args = 0, pretend = 0, frame = 24
 3251              		@ frame_needed = 1, uses_anonymous_args = 0
 3252 0000 80B5     		push	{r7, lr}
 3253              	.LCFI220:
 3254              		.cfi_def_cfa_offset 8
 3255              		.cfi_offset 7, -8
 3256              		.cfi_offset 14, -4
 3257 0002 86B0     		sub	sp, sp, #24
 3258              	.LCFI221:
ARM GAS  C:\Users\vct344\AppData\Local\Temp\ccePc7Ac.s 			page 77


 3259              		.cfi_def_cfa_offset 32
 3260 0004 00AF     		add	r7, sp, #0
 3261              	.LCFI222:
 3262              		.cfi_def_cfa_register 7
 3263 0006 7860     		str	r0, [r7, #4]
 3264 0008 3960     		str	r1, [r7]
1162:Core/Src/lis2dw12_reg.c ****   lis2dw12_ctrl6_t ctrl6;
1163:Core/Src/lis2dw12_reg.c ****   lis2dw12_ctrl_reg7_t ctrl_reg7;
1164:Core/Src/lis2dw12_reg.c ****   int32_t ret;
1165:Core/Src/lis2dw12_reg.c **** 
1166:Core/Src/lis2dw12_reg.c ****   ret = lis2dw12_read_reg(ctx, LIS2DW12_CTRL6, (uint8_t *) &ctrl6, 1);
 3265              		.loc 1 1166 9
 3266 000a 07F11002 		add	r2, r7, #16
 3267 000e 0123     		movs	r3, #1
 3268 0010 2521     		movs	r1, #37
 3269 0012 7868     		ldr	r0, [r7, #4]
 3270 0014 FFF7FEFF 		bl	lis2dw12_read_reg
 3271 0018 7861     		str	r0, [r7, #20]
1167:Core/Src/lis2dw12_reg.c **** 
1168:Core/Src/lis2dw12_reg.c ****   if (ret == 0)
 3272              		.loc 1 1168 6
 3273 001a 7B69     		ldr	r3, [r7, #20]
 3274 001c 002B     		cmp	r3, #0
 3275 001e 2AD1     		bne	.L185
1169:Core/Src/lis2dw12_reg.c ****   {
1170:Core/Src/lis2dw12_reg.c ****     ret = lis2dw12_read_reg(ctx, LIS2DW12_CTRL_REG7,
 3276              		.loc 1 1170 11
 3277 0020 07F10C02 		add	r2, r7, #12
 3278 0024 0123     		movs	r3, #1
 3279 0026 3F21     		movs	r1, #63
 3280 0028 7868     		ldr	r0, [r7, #4]
 3281 002a FFF7FEFF 		bl	lis2dw12_read_reg
 3282 002e 7861     		str	r0, [r7, #20]
1171:Core/Src/lis2dw12_reg.c ****                             (uint8_t *) &ctrl_reg7, 1);
1172:Core/Src/lis2dw12_reg.c **** 
1173:Core/Src/lis2dw12_reg.c ****     switch ((ctrl6.fds << 4) + ctrl_reg7.usr_off_on_out)
 3283              		.loc 1 1173 19
 3284 0030 3B7C     		ldrb	r3, [r7, #16]
 3285 0032 C3F3C003 		ubfx	r3, r3, #3, #1
 3286 0036 DBB2     		uxtb	r3, r3
 3287              		.loc 1 1173 24
 3288 0038 1B01     		lsls	r3, r3, #4
 3289              		.loc 1 1173 41
 3290 003a 3A7B     		ldrb	r2, [r7, #12]
 3291 003c C2F30012 		ubfx	r2, r2, #4, #1
 3292 0040 D2B2     		uxtb	r2, r2
 3293              		.loc 1 1173 30
 3294 0042 1344     		add	r3, r3, r2
 3295              		.loc 1 1173 5
 3296 0044 102B     		cmp	r3, #16
 3297 0046 0ED0     		beq	.L186
 3298 0048 102B     		cmp	r3, #16
 3299 004a 10DC     		bgt	.L187
 3300 004c 002B     		cmp	r3, #0
 3301 004e 02D0     		beq	.L188
 3302 0050 012B     		cmp	r3, #1
 3303 0052 04D0     		beq	.L189
ARM GAS  C:\Users\vct344\AppData\Local\Temp\ccePc7Ac.s 			page 78


 3304 0054 0BE0     		b	.L187
 3305              	.L188:
1174:Core/Src/lis2dw12_reg.c ****     {
1175:Core/Src/lis2dw12_reg.c ****       case LIS2DW12_LPF_ON_OUT:
1176:Core/Src/lis2dw12_reg.c ****         *val = LIS2DW12_LPF_ON_OUT;
 3306              		.loc 1 1176 14
 3307 0056 3B68     		ldr	r3, [r7]
 3308 0058 0022     		movs	r2, #0
 3309 005a 1A70     		strb	r2, [r3]
1177:Core/Src/lis2dw12_reg.c ****         break;
 3310              		.loc 1 1177 9
 3311 005c 0BE0     		b	.L185
 3312              	.L189:
1178:Core/Src/lis2dw12_reg.c **** 
1179:Core/Src/lis2dw12_reg.c ****       case LIS2DW12_USER_OFFSET_ON_OUT:
1180:Core/Src/lis2dw12_reg.c ****         *val = LIS2DW12_USER_OFFSET_ON_OUT;
 3313              		.loc 1 1180 14
 3314 005e 3B68     		ldr	r3, [r7]
 3315 0060 0122     		movs	r2, #1
 3316 0062 1A70     		strb	r2, [r3]
1181:Core/Src/lis2dw12_reg.c ****         break;
 3317              		.loc 1 1181 9
 3318 0064 07E0     		b	.L185
 3319              	.L186:
1182:Core/Src/lis2dw12_reg.c **** 
1183:Core/Src/lis2dw12_reg.c ****       case LIS2DW12_HIGH_PASS_ON_OUT:
1184:Core/Src/lis2dw12_reg.c ****         *val = LIS2DW12_HIGH_PASS_ON_OUT;
 3320              		.loc 1 1184 14
 3321 0066 3B68     		ldr	r3, [r7]
 3322 0068 1022     		movs	r2, #16
 3323 006a 1A70     		strb	r2, [r3]
1185:Core/Src/lis2dw12_reg.c ****         break;
 3324              		.loc 1 1185 9
 3325 006c 03E0     		b	.L185
 3326              	.L187:
1186:Core/Src/lis2dw12_reg.c **** 
1187:Core/Src/lis2dw12_reg.c ****       default:
1188:Core/Src/lis2dw12_reg.c ****         *val = LIS2DW12_LPF_ON_OUT;
 3327              		.loc 1 1188 14
 3328 006e 3B68     		ldr	r3, [r7]
 3329 0070 0022     		movs	r2, #0
 3330 0072 1A70     		strb	r2, [r3]
1189:Core/Src/lis2dw12_reg.c ****         break;
 3331              		.loc 1 1189 9
 3332 0074 00BF     		nop
 3333              	.L185:
1190:Core/Src/lis2dw12_reg.c ****     }
1191:Core/Src/lis2dw12_reg.c ****   }
1192:Core/Src/lis2dw12_reg.c **** 
1193:Core/Src/lis2dw12_reg.c ****   return ret;
 3334              		.loc 1 1193 10
 3335 0076 7B69     		ldr	r3, [r7, #20]
1194:Core/Src/lis2dw12_reg.c **** }
 3336              		.loc 1 1194 1
 3337 0078 1846     		mov	r0, r3
 3338 007a 1837     		adds	r7, r7, #24
 3339              	.LCFI223:
ARM GAS  C:\Users\vct344\AppData\Local\Temp\ccePc7Ac.s 			page 79


 3340              		.cfi_def_cfa_offset 8
 3341 007c BD46     		mov	sp, r7
 3342              	.LCFI224:
 3343              		.cfi_def_cfa_register 13
 3344              		@ sp needed
 3345 007e 80BD     		pop	{r7, pc}
 3346              		.cfi_endproc
 3347              	.LFE44:
 3349              		.section	.text.lis2dw12_filter_bandwidth_set,"ax",%progbits
 3350              		.align	1
 3351              		.global	lis2dw12_filter_bandwidth_set
 3352              		.syntax unified
 3353              		.thumb
 3354              		.thumb_func
 3356              	lis2dw12_filter_bandwidth_set:
 3357              	.LFB45:
1195:Core/Src/lis2dw12_reg.c **** 
1196:Core/Src/lis2dw12_reg.c **** /**
1197:Core/Src/lis2dw12_reg.c ****   * @brief   Accelerometer cutoff filter frequency. Valid for low and high
1198:Core/Src/lis2dw12_reg.c ****   *          pass filter.[set]
1199:Core/Src/lis2dw12_reg.c ****   *
1200:Core/Src/lis2dw12_reg.c ****   * @param  ctx      read / write interface definitions
1201:Core/Src/lis2dw12_reg.c ****   * @param  val      change the values of bw_filt in reg CTRL6
1202:Core/Src/lis2dw12_reg.c ****   * @retval          interface status (MANDATORY: return 0 -> no Error)
1203:Core/Src/lis2dw12_reg.c ****   *
1204:Core/Src/lis2dw12_reg.c ****   */
1205:Core/Src/lis2dw12_reg.c **** int32_t lis2dw12_filter_bandwidth_set(const stmdev_ctx_t *ctx,
1206:Core/Src/lis2dw12_reg.c ****                                       lis2dw12_bw_filt_t val)
1207:Core/Src/lis2dw12_reg.c **** {
 3358              		.loc 1 1207 1
 3359              		.cfi_startproc
 3360              		@ args = 0, pretend = 0, frame = 16
 3361              		@ frame_needed = 1, uses_anonymous_args = 0
 3362 0000 80B5     		push	{r7, lr}
 3363              	.LCFI225:
 3364              		.cfi_def_cfa_offset 8
 3365              		.cfi_offset 7, -8
 3366              		.cfi_offset 14, -4
 3367 0002 84B0     		sub	sp, sp, #16
 3368              	.LCFI226:
 3369              		.cfi_def_cfa_offset 24
 3370 0004 00AF     		add	r7, sp, #0
 3371              	.LCFI227:
 3372              		.cfi_def_cfa_register 7
 3373 0006 7860     		str	r0, [r7, #4]
 3374 0008 0B46     		mov	r3, r1
 3375 000a FB70     		strb	r3, [r7, #3]
1208:Core/Src/lis2dw12_reg.c ****   lis2dw12_ctrl6_t reg;
1209:Core/Src/lis2dw12_reg.c ****   int32_t ret;
1210:Core/Src/lis2dw12_reg.c **** 
1211:Core/Src/lis2dw12_reg.c ****   ret = lis2dw12_read_reg(ctx, LIS2DW12_CTRL6, (uint8_t *) &reg, 1);
 3376              		.loc 1 1211 9
 3377 000c 07F10802 		add	r2, r7, #8
 3378 0010 0123     		movs	r3, #1
 3379 0012 2521     		movs	r1, #37
 3380 0014 7868     		ldr	r0, [r7, #4]
 3381 0016 FFF7FEFF 		bl	lis2dw12_read_reg
ARM GAS  C:\Users\vct344\AppData\Local\Temp\ccePc7Ac.s 			page 80


 3382 001a F860     		str	r0, [r7, #12]
1212:Core/Src/lis2dw12_reg.c **** 
1213:Core/Src/lis2dw12_reg.c ****   if (ret == 0)
 3383              		.loc 1 1213 6
 3384 001c FB68     		ldr	r3, [r7, #12]
 3385 001e 002B     		cmp	r3, #0
 3386 0020 0FD1     		bne	.L192
1214:Core/Src/lis2dw12_reg.c ****   {
1215:Core/Src/lis2dw12_reg.c ****     reg.bw_filt = (uint8_t) val;
 3387              		.loc 1 1215 19
 3388 0022 FB78     		ldrb	r3, [r7, #3]
 3389 0024 03F00303 		and	r3, r3, #3
 3390 0028 DAB2     		uxtb	r2, r3
 3391              		.loc 1 1215 17
 3392 002a 3B7A     		ldrb	r3, [r7, #8]
 3393 002c 62F38713 		bfi	r3, r2, #6, #2
 3394 0030 3B72     		strb	r3, [r7, #8]
1216:Core/Src/lis2dw12_reg.c ****     ret = lis2dw12_write_reg(ctx, LIS2DW12_CTRL6, (uint8_t *) &reg, 1);
 3395              		.loc 1 1216 11
 3396 0032 07F10802 		add	r2, r7, #8
 3397 0036 0123     		movs	r3, #1
 3398 0038 2521     		movs	r1, #37
 3399 003a 7868     		ldr	r0, [r7, #4]
 3400 003c FFF7FEFF 		bl	lis2dw12_write_reg
 3401 0040 F860     		str	r0, [r7, #12]
 3402              	.L192:
1217:Core/Src/lis2dw12_reg.c ****   }
1218:Core/Src/lis2dw12_reg.c **** 
1219:Core/Src/lis2dw12_reg.c ****   return ret;
 3403              		.loc 1 1219 10
 3404 0042 FB68     		ldr	r3, [r7, #12]
1220:Core/Src/lis2dw12_reg.c **** }
 3405              		.loc 1 1220 1
 3406 0044 1846     		mov	r0, r3
 3407 0046 1037     		adds	r7, r7, #16
 3408              	.LCFI228:
 3409              		.cfi_def_cfa_offset 8
 3410 0048 BD46     		mov	sp, r7
 3411              	.LCFI229:
 3412              		.cfi_def_cfa_register 13
 3413              		@ sp needed
 3414 004a 80BD     		pop	{r7, pc}
 3415              		.cfi_endproc
 3416              	.LFE45:
 3418              		.section	.text.lis2dw12_filter_bandwidth_get,"ax",%progbits
 3419              		.align	1
 3420              		.global	lis2dw12_filter_bandwidth_get
 3421              		.syntax unified
 3422              		.thumb
 3423              		.thumb_func
 3425              	lis2dw12_filter_bandwidth_get:
 3426              	.LFB46:
1221:Core/Src/lis2dw12_reg.c **** 
1222:Core/Src/lis2dw12_reg.c **** /**
1223:Core/Src/lis2dw12_reg.c ****   * @brief   Accelerometer cutoff filter frequency. Valid for low and
1224:Core/Src/lis2dw12_reg.c ****   *          high pass filter.[get]
1225:Core/Src/lis2dw12_reg.c ****   *
ARM GAS  C:\Users\vct344\AppData\Local\Temp\ccePc7Ac.s 			page 81


1226:Core/Src/lis2dw12_reg.c ****   * @param  ctx      read / write interface definitions
1227:Core/Src/lis2dw12_reg.c ****   * @param  val      Get the values of bw_filt in reg CTRL6
1228:Core/Src/lis2dw12_reg.c ****   * @retval          interface status (MANDATORY: return 0 -> no Error)
1229:Core/Src/lis2dw12_reg.c ****   *
1230:Core/Src/lis2dw12_reg.c ****   */
1231:Core/Src/lis2dw12_reg.c **** int32_t lis2dw12_filter_bandwidth_get(const stmdev_ctx_t *ctx,
1232:Core/Src/lis2dw12_reg.c ****                                       lis2dw12_bw_filt_t *val)
1233:Core/Src/lis2dw12_reg.c **** {
 3427              		.loc 1 1233 1
 3428              		.cfi_startproc
 3429              		@ args = 0, pretend = 0, frame = 16
 3430              		@ frame_needed = 1, uses_anonymous_args = 0
 3431 0000 80B5     		push	{r7, lr}
 3432              	.LCFI230:
 3433              		.cfi_def_cfa_offset 8
 3434              		.cfi_offset 7, -8
 3435              		.cfi_offset 14, -4
 3436 0002 84B0     		sub	sp, sp, #16
 3437              	.LCFI231:
 3438              		.cfi_def_cfa_offset 24
 3439 0004 00AF     		add	r7, sp, #0
 3440              	.LCFI232:
 3441              		.cfi_def_cfa_register 7
 3442 0006 7860     		str	r0, [r7, #4]
 3443 0008 3960     		str	r1, [r7]
1234:Core/Src/lis2dw12_reg.c ****   lis2dw12_ctrl6_t reg;
1235:Core/Src/lis2dw12_reg.c ****   int32_t ret;
1236:Core/Src/lis2dw12_reg.c **** 
1237:Core/Src/lis2dw12_reg.c ****   ret = lis2dw12_read_reg(ctx, LIS2DW12_CTRL6, (uint8_t *) &reg, 1);
 3444              		.loc 1 1237 9
 3445 000a 07F10802 		add	r2, r7, #8
 3446 000e 0123     		movs	r3, #1
 3447 0010 2521     		movs	r1, #37
 3448 0012 7868     		ldr	r0, [r7, #4]
 3449 0014 FFF7FEFF 		bl	lis2dw12_read_reg
 3450 0018 F860     		str	r0, [r7, #12]
1238:Core/Src/lis2dw12_reg.c **** 
1239:Core/Src/lis2dw12_reg.c ****   switch (reg.bw_filt)
 3451              		.loc 1 1239 14
 3452 001a 3B7A     		ldrb	r3, [r7, #8]
 3453 001c C3F38113 		ubfx	r3, r3, #6, #2
 3454 0020 DBB2     		uxtb	r3, r3
 3455              		.loc 1 1239 3
 3456 0022 032B     		cmp	r3, #3
 3457 0024 1AD8     		bhi	.L195
 3458 0026 01A2     		adr	r2, .L197
 3459 0028 52F823F0 		ldr	pc, [r2, r3, lsl #2]
 3460              		.p2align 2
 3461              	.L197:
 3462 002c 3D000000 		.word	.L200+1
 3463 0030 45000000 		.word	.L199+1
 3464 0034 4D000000 		.word	.L198+1
 3465 0038 55000000 		.word	.L196+1
 3466              		.p2align 1
 3467              	.L200:
1240:Core/Src/lis2dw12_reg.c ****   {
1241:Core/Src/lis2dw12_reg.c ****     case LIS2DW12_ODR_DIV_2:
ARM GAS  C:\Users\vct344\AppData\Local\Temp\ccePc7Ac.s 			page 82


1242:Core/Src/lis2dw12_reg.c ****       *val = LIS2DW12_ODR_DIV_2;
 3468              		.loc 1 1242 12
 3469 003c 3B68     		ldr	r3, [r7]
 3470 003e 0022     		movs	r2, #0
 3471 0040 1A70     		strb	r2, [r3]
1243:Core/Src/lis2dw12_reg.c ****       break;
 3472              		.loc 1 1243 7
 3473 0042 0FE0     		b	.L201
 3474              	.L199:
1244:Core/Src/lis2dw12_reg.c **** 
1245:Core/Src/lis2dw12_reg.c ****     case LIS2DW12_ODR_DIV_4:
1246:Core/Src/lis2dw12_reg.c ****       *val = LIS2DW12_ODR_DIV_4;
 3475              		.loc 1 1246 12
 3476 0044 3B68     		ldr	r3, [r7]
 3477 0046 0122     		movs	r2, #1
 3478 0048 1A70     		strb	r2, [r3]
1247:Core/Src/lis2dw12_reg.c ****       break;
 3479              		.loc 1 1247 7
 3480 004a 0BE0     		b	.L201
 3481              	.L198:
1248:Core/Src/lis2dw12_reg.c **** 
1249:Core/Src/lis2dw12_reg.c ****     case LIS2DW12_ODR_DIV_10:
1250:Core/Src/lis2dw12_reg.c ****       *val = LIS2DW12_ODR_DIV_10;
 3482              		.loc 1 1250 12
 3483 004c 3B68     		ldr	r3, [r7]
 3484 004e 0222     		movs	r2, #2
 3485 0050 1A70     		strb	r2, [r3]
1251:Core/Src/lis2dw12_reg.c ****       break;
 3486              		.loc 1 1251 7
 3487 0052 07E0     		b	.L201
 3488              	.L196:
1252:Core/Src/lis2dw12_reg.c **** 
1253:Core/Src/lis2dw12_reg.c ****     case LIS2DW12_ODR_DIV_20:
1254:Core/Src/lis2dw12_reg.c ****       *val = LIS2DW12_ODR_DIV_20;
 3489              		.loc 1 1254 12
 3490 0054 3B68     		ldr	r3, [r7]
 3491 0056 0322     		movs	r2, #3
 3492 0058 1A70     		strb	r2, [r3]
1255:Core/Src/lis2dw12_reg.c ****       break;
 3493              		.loc 1 1255 7
 3494 005a 03E0     		b	.L201
 3495              	.L195:
1256:Core/Src/lis2dw12_reg.c **** 
1257:Core/Src/lis2dw12_reg.c ****     default:
1258:Core/Src/lis2dw12_reg.c ****       *val = LIS2DW12_ODR_DIV_2;
 3496              		.loc 1 1258 12
 3497 005c 3B68     		ldr	r3, [r7]
 3498 005e 0022     		movs	r2, #0
 3499 0060 1A70     		strb	r2, [r3]
1259:Core/Src/lis2dw12_reg.c ****       break;
 3500              		.loc 1 1259 7
 3501 0062 00BF     		nop
 3502              	.L201:
1260:Core/Src/lis2dw12_reg.c ****   }
1261:Core/Src/lis2dw12_reg.c **** 
1262:Core/Src/lis2dw12_reg.c ****   return ret;
 3503              		.loc 1 1262 10
ARM GAS  C:\Users\vct344\AppData\Local\Temp\ccePc7Ac.s 			page 83


 3504 0064 FB68     		ldr	r3, [r7, #12]
1263:Core/Src/lis2dw12_reg.c **** }
 3505              		.loc 1 1263 1
 3506 0066 1846     		mov	r0, r3
 3507 0068 1037     		adds	r7, r7, #16
 3508              	.LCFI233:
 3509              		.cfi_def_cfa_offset 8
 3510 006a BD46     		mov	sp, r7
 3511              	.LCFI234:
 3512              		.cfi_def_cfa_register 13
 3513              		@ sp needed
 3514 006c 80BD     		pop	{r7, pc}
 3515              		.cfi_endproc
 3516              	.LFE46:
 3518 006e 00BF     		.section	.text.lis2dw12_reference_mode_set,"ax",%progbits
 3519              		.align	1
 3520              		.global	lis2dw12_reference_mode_set
 3521              		.syntax unified
 3522              		.thumb
 3523              		.thumb_func
 3525              	lis2dw12_reference_mode_set:
 3526              	.LFB47:
1264:Core/Src/lis2dw12_reg.c **** 
1265:Core/Src/lis2dw12_reg.c **** /**
1266:Core/Src/lis2dw12_reg.c ****   * @brief  Enable HP filter reference mode.[set]
1267:Core/Src/lis2dw12_reg.c ****   *
1268:Core/Src/lis2dw12_reg.c ****   * @param  ctx      read / write interface definitions
1269:Core/Src/lis2dw12_reg.c ****   * @param  val      change the values of hp_ref_mode in reg CTRL_REG7
1270:Core/Src/lis2dw12_reg.c ****   * @retval          interface status (MANDATORY: return 0 -> no Error)
1271:Core/Src/lis2dw12_reg.c ****   *
1272:Core/Src/lis2dw12_reg.c ****   */
1273:Core/Src/lis2dw12_reg.c **** int32_t lis2dw12_reference_mode_set(const stmdev_ctx_t *ctx, uint8_t val)
1274:Core/Src/lis2dw12_reg.c **** {
 3527              		.loc 1 1274 1
 3528              		.cfi_startproc
 3529              		@ args = 0, pretend = 0, frame = 16
 3530              		@ frame_needed = 1, uses_anonymous_args = 0
 3531 0000 80B5     		push	{r7, lr}
 3532              	.LCFI235:
 3533              		.cfi_def_cfa_offset 8
 3534              		.cfi_offset 7, -8
 3535              		.cfi_offset 14, -4
 3536 0002 84B0     		sub	sp, sp, #16
 3537              	.LCFI236:
 3538              		.cfi_def_cfa_offset 24
 3539 0004 00AF     		add	r7, sp, #0
 3540              	.LCFI237:
 3541              		.cfi_def_cfa_register 7
 3542 0006 7860     		str	r0, [r7, #4]
 3543 0008 0B46     		mov	r3, r1
 3544 000a FB70     		strb	r3, [r7, #3]
1275:Core/Src/lis2dw12_reg.c ****   lis2dw12_ctrl_reg7_t reg;
1276:Core/Src/lis2dw12_reg.c ****   int32_t ret;
1277:Core/Src/lis2dw12_reg.c **** 
1278:Core/Src/lis2dw12_reg.c ****   ret = lis2dw12_read_reg(ctx, LIS2DW12_CTRL_REG7, (uint8_t *) &reg, 1);
 3545              		.loc 1 1278 9
 3546 000c 07F10802 		add	r2, r7, #8
ARM GAS  C:\Users\vct344\AppData\Local\Temp\ccePc7Ac.s 			page 84


 3547 0010 0123     		movs	r3, #1
 3548 0012 3F21     		movs	r1, #63
 3549 0014 7868     		ldr	r0, [r7, #4]
 3550 0016 FFF7FEFF 		bl	lis2dw12_read_reg
 3551 001a F860     		str	r0, [r7, #12]
1279:Core/Src/lis2dw12_reg.c **** 
1280:Core/Src/lis2dw12_reg.c ****   if (ret == 0)
 3552              		.loc 1 1280 6
 3553 001c FB68     		ldr	r3, [r7, #12]
 3554 001e 002B     		cmp	r3, #0
 3555 0020 0FD1     		bne	.L204
1281:Core/Src/lis2dw12_reg.c ****   {
1282:Core/Src/lis2dw12_reg.c ****     reg.hp_ref_mode = val;
 3556              		.loc 1 1282 21
 3557 0022 FB78     		ldrb	r3, [r7, #3]
 3558 0024 03F00103 		and	r3, r3, #1
 3559 0028 DAB2     		uxtb	r2, r3
 3560 002a 3B7A     		ldrb	r3, [r7, #8]
 3561 002c 62F34103 		bfi	r3, r2, #1, #1
 3562 0030 3B72     		strb	r3, [r7, #8]
1283:Core/Src/lis2dw12_reg.c ****     ret = lis2dw12_write_reg(ctx, LIS2DW12_CTRL_REG7, (uint8_t *) &reg, 1);
 3563              		.loc 1 1283 11
 3564 0032 07F10802 		add	r2, r7, #8
 3565 0036 0123     		movs	r3, #1
 3566 0038 3F21     		movs	r1, #63
 3567 003a 7868     		ldr	r0, [r7, #4]
 3568 003c FFF7FEFF 		bl	lis2dw12_write_reg
 3569 0040 F860     		str	r0, [r7, #12]
 3570              	.L204:
1284:Core/Src/lis2dw12_reg.c ****   }
1285:Core/Src/lis2dw12_reg.c **** 
1286:Core/Src/lis2dw12_reg.c ****   return ret;
 3571              		.loc 1 1286 10
 3572 0042 FB68     		ldr	r3, [r7, #12]
1287:Core/Src/lis2dw12_reg.c **** }
 3573              		.loc 1 1287 1
 3574 0044 1846     		mov	r0, r3
 3575 0046 1037     		adds	r7, r7, #16
 3576              	.LCFI238:
 3577              		.cfi_def_cfa_offset 8
 3578 0048 BD46     		mov	sp, r7
 3579              	.LCFI239:
 3580              		.cfi_def_cfa_register 13
 3581              		@ sp needed
 3582 004a 80BD     		pop	{r7, pc}
 3583              		.cfi_endproc
 3584              	.LFE47:
 3586              		.section	.text.lis2dw12_reference_mode_get,"ax",%progbits
 3587              		.align	1
 3588              		.global	lis2dw12_reference_mode_get
 3589              		.syntax unified
 3590              		.thumb
 3591              		.thumb_func
 3593              	lis2dw12_reference_mode_get:
 3594              	.LFB48:
1288:Core/Src/lis2dw12_reg.c **** 
1289:Core/Src/lis2dw12_reg.c **** /**
ARM GAS  C:\Users\vct344\AppData\Local\Temp\ccePc7Ac.s 			page 85


1290:Core/Src/lis2dw12_reg.c ****   * @brief  Enable HP filter reference mode.[get]
1291:Core/Src/lis2dw12_reg.c ****   *
1292:Core/Src/lis2dw12_reg.c ****   * @param  ctx      read / write interface definitions
1293:Core/Src/lis2dw12_reg.c ****   * @param  val      change the values of hp_ref_mode in reg CTRL_REG7
1294:Core/Src/lis2dw12_reg.c ****   * @retval          interface status (MANDATORY: return 0 -> no Error)
1295:Core/Src/lis2dw12_reg.c ****   *
1296:Core/Src/lis2dw12_reg.c ****   */
1297:Core/Src/lis2dw12_reg.c **** int32_t lis2dw12_reference_mode_get(const stmdev_ctx_t *ctx, uint8_t *val)
1298:Core/Src/lis2dw12_reg.c **** {
 3595              		.loc 1 1298 1
 3596              		.cfi_startproc
 3597              		@ args = 0, pretend = 0, frame = 16
 3598              		@ frame_needed = 1, uses_anonymous_args = 0
 3599 0000 80B5     		push	{r7, lr}
 3600              	.LCFI240:
 3601              		.cfi_def_cfa_offset 8
 3602              		.cfi_offset 7, -8
 3603              		.cfi_offset 14, -4
 3604 0002 84B0     		sub	sp, sp, #16
 3605              	.LCFI241:
 3606              		.cfi_def_cfa_offset 24
 3607 0004 00AF     		add	r7, sp, #0
 3608              	.LCFI242:
 3609              		.cfi_def_cfa_register 7
 3610 0006 7860     		str	r0, [r7, #4]
 3611 0008 3960     		str	r1, [r7]
1299:Core/Src/lis2dw12_reg.c ****   lis2dw12_ctrl_reg7_t reg;
1300:Core/Src/lis2dw12_reg.c ****   int32_t ret;
1301:Core/Src/lis2dw12_reg.c **** 
1302:Core/Src/lis2dw12_reg.c ****   ret = lis2dw12_read_reg(ctx, LIS2DW12_CTRL_REG7, (uint8_t *) &reg, 1);
 3612              		.loc 1 1302 9
 3613 000a 07F10802 		add	r2, r7, #8
 3614 000e 0123     		movs	r3, #1
 3615 0010 3F21     		movs	r1, #63
 3616 0012 7868     		ldr	r0, [r7, #4]
 3617 0014 FFF7FEFF 		bl	lis2dw12_read_reg
 3618 0018 F860     		str	r0, [r7, #12]
1303:Core/Src/lis2dw12_reg.c ****   *val = reg.hp_ref_mode;
 3619              		.loc 1 1303 13
 3620 001a 3B7A     		ldrb	r3, [r7, #8]
 3621 001c C3F34003 		ubfx	r3, r3, #1, #1
 3622 0020 DBB2     		uxtb	r3, r3
 3623 0022 1A46     		mov	r2, r3
 3624              		.loc 1 1303 8
 3625 0024 3B68     		ldr	r3, [r7]
 3626 0026 1A70     		strb	r2, [r3]
1304:Core/Src/lis2dw12_reg.c **** 
1305:Core/Src/lis2dw12_reg.c ****   return ret;
 3627              		.loc 1 1305 10
 3628 0028 FB68     		ldr	r3, [r7, #12]
1306:Core/Src/lis2dw12_reg.c **** }
 3629              		.loc 1 1306 1
 3630 002a 1846     		mov	r0, r3
 3631 002c 1037     		adds	r7, r7, #16
 3632              	.LCFI243:
 3633              		.cfi_def_cfa_offset 8
 3634 002e BD46     		mov	sp, r7
ARM GAS  C:\Users\vct344\AppData\Local\Temp\ccePc7Ac.s 			page 86


 3635              	.LCFI244:
 3636              		.cfi_def_cfa_register 13
 3637              		@ sp needed
 3638 0030 80BD     		pop	{r7, pc}
 3639              		.cfi_endproc
 3640              	.LFE48:
 3642              		.section	.text.lis2dw12_spi_mode_set,"ax",%progbits
 3643              		.align	1
 3644              		.global	lis2dw12_spi_mode_set
 3645              		.syntax unified
 3646              		.thumb
 3647              		.thumb_func
 3649              	lis2dw12_spi_mode_set:
 3650              	.LFB49:
1307:Core/Src/lis2dw12_reg.c **** 
1308:Core/Src/lis2dw12_reg.c **** /**
1309:Core/Src/lis2dw12_reg.c ****   * @}
1310:Core/Src/lis2dw12_reg.c ****   *
1311:Core/Src/lis2dw12_reg.c ****   */
1312:Core/Src/lis2dw12_reg.c **** 
1313:Core/Src/lis2dw12_reg.c **** /**
1314:Core/Src/lis2dw12_reg.c ****   * @defgroup   LIS2DW12_Serial_Interface
1315:Core/Src/lis2dw12_reg.c ****   * @brief      This section groups all the functions concerning main serial
1316:Core/Src/lis2dw12_reg.c ****   *             interface management (not auxiliary)
1317:Core/Src/lis2dw12_reg.c ****   * @{
1318:Core/Src/lis2dw12_reg.c ****   *
1319:Core/Src/lis2dw12_reg.c ****   */
1320:Core/Src/lis2dw12_reg.c **** 
1321:Core/Src/lis2dw12_reg.c **** /**
1322:Core/Src/lis2dw12_reg.c ****   * @brief  SPI Serial Interface Mode selection.[set]
1323:Core/Src/lis2dw12_reg.c ****   *
1324:Core/Src/lis2dw12_reg.c ****   * @param  ctx      read / write interface definitions
1325:Core/Src/lis2dw12_reg.c ****   * @param  val      change the values of sim in reg CTRL2
1326:Core/Src/lis2dw12_reg.c ****   * @retval          interface status (MANDATORY: return 0 -> no Error)
1327:Core/Src/lis2dw12_reg.c ****   *
1328:Core/Src/lis2dw12_reg.c ****   */
1329:Core/Src/lis2dw12_reg.c **** int32_t lis2dw12_spi_mode_set(const stmdev_ctx_t *ctx, lis2dw12_sim_t val)
1330:Core/Src/lis2dw12_reg.c **** {
 3651              		.loc 1 1330 1
 3652              		.cfi_startproc
 3653              		@ args = 0, pretend = 0, frame = 16
 3654              		@ frame_needed = 1, uses_anonymous_args = 0
 3655 0000 80B5     		push	{r7, lr}
 3656              	.LCFI245:
 3657              		.cfi_def_cfa_offset 8
 3658              		.cfi_offset 7, -8
 3659              		.cfi_offset 14, -4
 3660 0002 84B0     		sub	sp, sp, #16
 3661              	.LCFI246:
 3662              		.cfi_def_cfa_offset 24
 3663 0004 00AF     		add	r7, sp, #0
 3664              	.LCFI247:
 3665              		.cfi_def_cfa_register 7
 3666 0006 7860     		str	r0, [r7, #4]
 3667 0008 0B46     		mov	r3, r1
 3668 000a FB70     		strb	r3, [r7, #3]
1331:Core/Src/lis2dw12_reg.c ****   lis2dw12_ctrl2_t reg;
ARM GAS  C:\Users\vct344\AppData\Local\Temp\ccePc7Ac.s 			page 87


1332:Core/Src/lis2dw12_reg.c ****   int32_t ret;
1333:Core/Src/lis2dw12_reg.c **** 
1334:Core/Src/lis2dw12_reg.c ****   ret = lis2dw12_read_reg(ctx, LIS2DW12_CTRL2, (uint8_t *) &reg, 1);
 3669              		.loc 1 1334 9
 3670 000c 07F10802 		add	r2, r7, #8
 3671 0010 0123     		movs	r3, #1
 3672 0012 2121     		movs	r1, #33
 3673 0014 7868     		ldr	r0, [r7, #4]
 3674 0016 FFF7FEFF 		bl	lis2dw12_read_reg
 3675 001a F860     		str	r0, [r7, #12]
1335:Core/Src/lis2dw12_reg.c **** 
1336:Core/Src/lis2dw12_reg.c ****   if (ret == 0)
 3676              		.loc 1 1336 6
 3677 001c FB68     		ldr	r3, [r7, #12]
 3678 001e 002B     		cmp	r3, #0
 3679 0020 0FD1     		bne	.L209
1337:Core/Src/lis2dw12_reg.c ****   {
1338:Core/Src/lis2dw12_reg.c ****     reg.sim = (uint8_t) val;
 3680              		.loc 1 1338 15
 3681 0022 FB78     		ldrb	r3, [r7, #3]
 3682 0024 03F00103 		and	r3, r3, #1
 3683 0028 DAB2     		uxtb	r2, r3
 3684              		.loc 1 1338 13
 3685 002a 3B7A     		ldrb	r3, [r7, #8]
 3686 002c 62F30003 		bfi	r3, r2, #0, #1
 3687 0030 3B72     		strb	r3, [r7, #8]
1339:Core/Src/lis2dw12_reg.c ****     ret = lis2dw12_write_reg(ctx, LIS2DW12_CTRL2, (uint8_t *) &reg, 1);
 3688              		.loc 1 1339 11
 3689 0032 07F10802 		add	r2, r7, #8
 3690 0036 0123     		movs	r3, #1
 3691 0038 2121     		movs	r1, #33
 3692 003a 7868     		ldr	r0, [r7, #4]
 3693 003c FFF7FEFF 		bl	lis2dw12_write_reg
 3694 0040 F860     		str	r0, [r7, #12]
 3695              	.L209:
1340:Core/Src/lis2dw12_reg.c ****   }
1341:Core/Src/lis2dw12_reg.c **** 
1342:Core/Src/lis2dw12_reg.c ****   return ret;
 3696              		.loc 1 1342 10
 3697 0042 FB68     		ldr	r3, [r7, #12]
1343:Core/Src/lis2dw12_reg.c **** }
 3698              		.loc 1 1343 1
 3699 0044 1846     		mov	r0, r3
 3700 0046 1037     		adds	r7, r7, #16
 3701              	.LCFI248:
 3702              		.cfi_def_cfa_offset 8
 3703 0048 BD46     		mov	sp, r7
 3704              	.LCFI249:
 3705              		.cfi_def_cfa_register 13
 3706              		@ sp needed
 3707 004a 80BD     		pop	{r7, pc}
 3708              		.cfi_endproc
 3709              	.LFE49:
 3711              		.section	.text.lis2dw12_spi_mode_get,"ax",%progbits
 3712              		.align	1
 3713              		.global	lis2dw12_spi_mode_get
 3714              		.syntax unified
ARM GAS  C:\Users\vct344\AppData\Local\Temp\ccePc7Ac.s 			page 88


 3715              		.thumb
 3716              		.thumb_func
 3718              	lis2dw12_spi_mode_get:
 3719              	.LFB50:
1344:Core/Src/lis2dw12_reg.c **** 
1345:Core/Src/lis2dw12_reg.c **** /**
1346:Core/Src/lis2dw12_reg.c ****   * @brief  SPI Serial Interface Mode selection.[get]
1347:Core/Src/lis2dw12_reg.c ****   *
1348:Core/Src/lis2dw12_reg.c ****   * @param  ctx      read / write interface definitions
1349:Core/Src/lis2dw12_reg.c ****   * @param  val      Get the values of sim in reg CTRL2
1350:Core/Src/lis2dw12_reg.c ****   * @retval          interface status (MANDATORY: return 0 -> no Error)
1351:Core/Src/lis2dw12_reg.c ****   *
1352:Core/Src/lis2dw12_reg.c ****   */
1353:Core/Src/lis2dw12_reg.c **** int32_t lis2dw12_spi_mode_get(const stmdev_ctx_t *ctx, lis2dw12_sim_t *val)
1354:Core/Src/lis2dw12_reg.c **** {
 3720              		.loc 1 1354 1
 3721              		.cfi_startproc
 3722              		@ args = 0, pretend = 0, frame = 16
 3723              		@ frame_needed = 1, uses_anonymous_args = 0
 3724 0000 80B5     		push	{r7, lr}
 3725              	.LCFI250:
 3726              		.cfi_def_cfa_offset 8
 3727              		.cfi_offset 7, -8
 3728              		.cfi_offset 14, -4
 3729 0002 84B0     		sub	sp, sp, #16
 3730              	.LCFI251:
 3731              		.cfi_def_cfa_offset 24
 3732 0004 00AF     		add	r7, sp, #0
 3733              	.LCFI252:
 3734              		.cfi_def_cfa_register 7
 3735 0006 7860     		str	r0, [r7, #4]
 3736 0008 3960     		str	r1, [r7]
1355:Core/Src/lis2dw12_reg.c ****   lis2dw12_ctrl2_t reg;
1356:Core/Src/lis2dw12_reg.c ****   int32_t ret;
1357:Core/Src/lis2dw12_reg.c **** 
1358:Core/Src/lis2dw12_reg.c ****   ret = lis2dw12_read_reg(ctx, LIS2DW12_CTRL2, (uint8_t *) &reg, 1);
 3737              		.loc 1 1358 9
 3738 000a 07F10802 		add	r2, r7, #8
 3739 000e 0123     		movs	r3, #1
 3740 0010 2121     		movs	r1, #33
 3741 0012 7868     		ldr	r0, [r7, #4]
 3742 0014 FFF7FEFF 		bl	lis2dw12_read_reg
 3743 0018 F860     		str	r0, [r7, #12]
1359:Core/Src/lis2dw12_reg.c **** 
1360:Core/Src/lis2dw12_reg.c ****   switch (reg.sim)
 3744              		.loc 1 1360 14
 3745 001a 3B7A     		ldrb	r3, [r7, #8]
 3746 001c C3F30003 		ubfx	r3, r3, #0, #1
 3747 0020 DBB2     		uxtb	r3, r3
 3748              		.loc 1 1360 3
 3749 0022 002B     		cmp	r3, #0
 3750 0024 02D0     		beq	.L212
 3751 0026 012B     		cmp	r3, #1
 3752 0028 04D0     		beq	.L213
 3753 002a 07E0     		b	.L217
 3754              	.L212:
1361:Core/Src/lis2dw12_reg.c ****   {
ARM GAS  C:\Users\vct344\AppData\Local\Temp\ccePc7Ac.s 			page 89


1362:Core/Src/lis2dw12_reg.c ****     case LIS2DW12_SPI_4_WIRE:
1363:Core/Src/lis2dw12_reg.c ****       *val = LIS2DW12_SPI_4_WIRE;
 3755              		.loc 1 1363 12
 3756 002c 3B68     		ldr	r3, [r7]
 3757 002e 0022     		movs	r2, #0
 3758 0030 1A70     		strb	r2, [r3]
1364:Core/Src/lis2dw12_reg.c ****       break;
 3759              		.loc 1 1364 7
 3760 0032 07E0     		b	.L215
 3761              	.L213:
1365:Core/Src/lis2dw12_reg.c **** 
1366:Core/Src/lis2dw12_reg.c ****     case LIS2DW12_SPI_3_WIRE:
1367:Core/Src/lis2dw12_reg.c ****       *val = LIS2DW12_SPI_3_WIRE;
 3762              		.loc 1 1367 12
 3763 0034 3B68     		ldr	r3, [r7]
 3764 0036 0122     		movs	r2, #1
 3765 0038 1A70     		strb	r2, [r3]
1368:Core/Src/lis2dw12_reg.c ****       break;
 3766              		.loc 1 1368 7
 3767 003a 03E0     		b	.L215
 3768              	.L217:
1369:Core/Src/lis2dw12_reg.c **** 
1370:Core/Src/lis2dw12_reg.c ****     default:
1371:Core/Src/lis2dw12_reg.c ****       *val = LIS2DW12_SPI_4_WIRE;
 3769              		.loc 1 1371 12
 3770 003c 3B68     		ldr	r3, [r7]
 3771 003e 0022     		movs	r2, #0
 3772 0040 1A70     		strb	r2, [r3]
1372:Core/Src/lis2dw12_reg.c ****       break;
 3773              		.loc 1 1372 7
 3774 0042 00BF     		nop
 3775              	.L215:
1373:Core/Src/lis2dw12_reg.c ****   }
1374:Core/Src/lis2dw12_reg.c **** 
1375:Core/Src/lis2dw12_reg.c ****   return ret;
 3776              		.loc 1 1375 10
 3777 0044 FB68     		ldr	r3, [r7, #12]
1376:Core/Src/lis2dw12_reg.c **** }
 3778              		.loc 1 1376 1
 3779 0046 1846     		mov	r0, r3
 3780 0048 1037     		adds	r7, r7, #16
 3781              	.LCFI253:
 3782              		.cfi_def_cfa_offset 8
 3783 004a BD46     		mov	sp, r7
 3784              	.LCFI254:
 3785              		.cfi_def_cfa_register 13
 3786              		@ sp needed
 3787 004c 80BD     		pop	{r7, pc}
 3788              		.cfi_endproc
 3789              	.LFE50:
 3791              		.section	.text.lis2dw12_i2c_interface_set,"ax",%progbits
 3792              		.align	1
 3793              		.global	lis2dw12_i2c_interface_set
 3794              		.syntax unified
 3795              		.thumb
 3796              		.thumb_func
 3798              	lis2dw12_i2c_interface_set:
ARM GAS  C:\Users\vct344\AppData\Local\Temp\ccePc7Ac.s 			page 90


 3799              	.LFB51:
1377:Core/Src/lis2dw12_reg.c **** 
1378:Core/Src/lis2dw12_reg.c **** /**
1379:Core/Src/lis2dw12_reg.c ****   * @brief  Disable / Enable I2C interface.[set]
1380:Core/Src/lis2dw12_reg.c ****   *
1381:Core/Src/lis2dw12_reg.c ****   * @param  ctx      read / write interface definitions
1382:Core/Src/lis2dw12_reg.c ****   * @param  val      change the values of i2c_disable in
1383:Core/Src/lis2dw12_reg.c ****   *                                 reg CTRL2
1384:Core/Src/lis2dw12_reg.c ****   * @retval          interface status (MANDATORY: return 0 -> no Error)
1385:Core/Src/lis2dw12_reg.c ****   *
1386:Core/Src/lis2dw12_reg.c ****   */
1387:Core/Src/lis2dw12_reg.c **** int32_t lis2dw12_i2c_interface_set(const stmdev_ctx_t *ctx,
1388:Core/Src/lis2dw12_reg.c ****                                    lis2dw12_i2c_disable_t val)
1389:Core/Src/lis2dw12_reg.c **** {
 3800              		.loc 1 1389 1
 3801              		.cfi_startproc
 3802              		@ args = 0, pretend = 0, frame = 16
 3803              		@ frame_needed = 1, uses_anonymous_args = 0
 3804 0000 80B5     		push	{r7, lr}
 3805              	.LCFI255:
 3806              		.cfi_def_cfa_offset 8
 3807              		.cfi_offset 7, -8
 3808              		.cfi_offset 14, -4
 3809 0002 84B0     		sub	sp, sp, #16
 3810              	.LCFI256:
 3811              		.cfi_def_cfa_offset 24
 3812 0004 00AF     		add	r7, sp, #0
 3813              	.LCFI257:
 3814              		.cfi_def_cfa_register 7
 3815 0006 7860     		str	r0, [r7, #4]
 3816 0008 0B46     		mov	r3, r1
 3817 000a FB70     		strb	r3, [r7, #3]
1390:Core/Src/lis2dw12_reg.c ****   lis2dw12_ctrl2_t reg;
1391:Core/Src/lis2dw12_reg.c ****   int32_t ret;
1392:Core/Src/lis2dw12_reg.c **** 
1393:Core/Src/lis2dw12_reg.c ****   ret = lis2dw12_read_reg(ctx, LIS2DW12_CTRL2, (uint8_t *) &reg, 1);
 3818              		.loc 1 1393 9
 3819 000c 07F10802 		add	r2, r7, #8
 3820 0010 0123     		movs	r3, #1
 3821 0012 2121     		movs	r1, #33
 3822 0014 7868     		ldr	r0, [r7, #4]
 3823 0016 FFF7FEFF 		bl	lis2dw12_read_reg
 3824 001a F860     		str	r0, [r7, #12]
1394:Core/Src/lis2dw12_reg.c **** 
1395:Core/Src/lis2dw12_reg.c ****   if (ret == 0)
 3825              		.loc 1 1395 6
 3826 001c FB68     		ldr	r3, [r7, #12]
 3827 001e 002B     		cmp	r3, #0
 3828 0020 0FD1     		bne	.L219
1396:Core/Src/lis2dw12_reg.c ****   {
1397:Core/Src/lis2dw12_reg.c ****     reg.i2c_disable = (uint8_t) val;
 3829              		.loc 1 1397 23
 3830 0022 FB78     		ldrb	r3, [r7, #3]
 3831 0024 03F00103 		and	r3, r3, #1
 3832 0028 DAB2     		uxtb	r2, r3
 3833              		.loc 1 1397 21
 3834 002a 3B7A     		ldrb	r3, [r7, #8]
ARM GAS  C:\Users\vct344\AppData\Local\Temp\ccePc7Ac.s 			page 91


 3835 002c 62F34103 		bfi	r3, r2, #1, #1
 3836 0030 3B72     		strb	r3, [r7, #8]
1398:Core/Src/lis2dw12_reg.c ****     ret = lis2dw12_write_reg(ctx, LIS2DW12_CTRL2, (uint8_t *) &reg, 1);
 3837              		.loc 1 1398 11
 3838 0032 07F10802 		add	r2, r7, #8
 3839 0036 0123     		movs	r3, #1
 3840 0038 2121     		movs	r1, #33
 3841 003a 7868     		ldr	r0, [r7, #4]
 3842 003c FFF7FEFF 		bl	lis2dw12_write_reg
 3843 0040 F860     		str	r0, [r7, #12]
 3844              	.L219:
1399:Core/Src/lis2dw12_reg.c ****   }
1400:Core/Src/lis2dw12_reg.c **** 
1401:Core/Src/lis2dw12_reg.c ****   return ret;
 3845              		.loc 1 1401 10
 3846 0042 FB68     		ldr	r3, [r7, #12]
1402:Core/Src/lis2dw12_reg.c **** }
 3847              		.loc 1 1402 1
 3848 0044 1846     		mov	r0, r3
 3849 0046 1037     		adds	r7, r7, #16
 3850              	.LCFI258:
 3851              		.cfi_def_cfa_offset 8
 3852 0048 BD46     		mov	sp, r7
 3853              	.LCFI259:
 3854              		.cfi_def_cfa_register 13
 3855              		@ sp needed
 3856 004a 80BD     		pop	{r7, pc}
 3857              		.cfi_endproc
 3858              	.LFE51:
 3860              		.section	.text.lis2dw12_i2c_interface_get,"ax",%progbits
 3861              		.align	1
 3862              		.global	lis2dw12_i2c_interface_get
 3863              		.syntax unified
 3864              		.thumb
 3865              		.thumb_func
 3867              	lis2dw12_i2c_interface_get:
 3868              	.LFB52:
1403:Core/Src/lis2dw12_reg.c **** 
1404:Core/Src/lis2dw12_reg.c **** /**
1405:Core/Src/lis2dw12_reg.c ****   * @brief  Disable / Enable I2C interface.[get]
1406:Core/Src/lis2dw12_reg.c ****   *
1407:Core/Src/lis2dw12_reg.c ****   * @param  ctx      read / write interface definitions
1408:Core/Src/lis2dw12_reg.c ****   * @param  val      Get the values of i2c_disable in reg CTRL2
1409:Core/Src/lis2dw12_reg.c ****   * @retval          interface status (MANDATORY: return 0 -> no Error)
1410:Core/Src/lis2dw12_reg.c ****   *
1411:Core/Src/lis2dw12_reg.c ****   */
1412:Core/Src/lis2dw12_reg.c **** int32_t lis2dw12_i2c_interface_get(const stmdev_ctx_t *ctx,
1413:Core/Src/lis2dw12_reg.c ****                                    lis2dw12_i2c_disable_t *val)
1414:Core/Src/lis2dw12_reg.c **** {
 3869              		.loc 1 1414 1
 3870              		.cfi_startproc
 3871              		@ args = 0, pretend = 0, frame = 16
 3872              		@ frame_needed = 1, uses_anonymous_args = 0
 3873 0000 80B5     		push	{r7, lr}
 3874              	.LCFI260:
 3875              		.cfi_def_cfa_offset 8
 3876              		.cfi_offset 7, -8
ARM GAS  C:\Users\vct344\AppData\Local\Temp\ccePc7Ac.s 			page 92


 3877              		.cfi_offset 14, -4
 3878 0002 84B0     		sub	sp, sp, #16
 3879              	.LCFI261:
 3880              		.cfi_def_cfa_offset 24
 3881 0004 00AF     		add	r7, sp, #0
 3882              	.LCFI262:
 3883              		.cfi_def_cfa_register 7
 3884 0006 7860     		str	r0, [r7, #4]
 3885 0008 3960     		str	r1, [r7]
1415:Core/Src/lis2dw12_reg.c ****   lis2dw12_ctrl2_t reg;
1416:Core/Src/lis2dw12_reg.c ****   int32_t ret;
1417:Core/Src/lis2dw12_reg.c **** 
1418:Core/Src/lis2dw12_reg.c ****   ret = lis2dw12_read_reg(ctx, LIS2DW12_CTRL2, (uint8_t *) &reg, 1);
 3886              		.loc 1 1418 9
 3887 000a 07F10802 		add	r2, r7, #8
 3888 000e 0123     		movs	r3, #1
 3889 0010 2121     		movs	r1, #33
 3890 0012 7868     		ldr	r0, [r7, #4]
 3891 0014 FFF7FEFF 		bl	lis2dw12_read_reg
 3892 0018 F860     		str	r0, [r7, #12]
1419:Core/Src/lis2dw12_reg.c **** 
1420:Core/Src/lis2dw12_reg.c ****   switch (reg.i2c_disable)
 3893              		.loc 1 1420 14
 3894 001a 3B7A     		ldrb	r3, [r7, #8]
 3895 001c C3F34003 		ubfx	r3, r3, #1, #1
 3896 0020 DBB2     		uxtb	r3, r3
 3897              		.loc 1 1420 3
 3898 0022 002B     		cmp	r3, #0
 3899 0024 02D0     		beq	.L222
 3900 0026 012B     		cmp	r3, #1
 3901 0028 04D0     		beq	.L223
 3902 002a 07E0     		b	.L227
 3903              	.L222:
1421:Core/Src/lis2dw12_reg.c ****   {
1422:Core/Src/lis2dw12_reg.c ****     case LIS2DW12_I2C_ENABLE:
1423:Core/Src/lis2dw12_reg.c ****       *val = LIS2DW12_I2C_ENABLE;
 3904              		.loc 1 1423 12
 3905 002c 3B68     		ldr	r3, [r7]
 3906 002e 0022     		movs	r2, #0
 3907 0030 1A70     		strb	r2, [r3]
1424:Core/Src/lis2dw12_reg.c ****       break;
 3908              		.loc 1 1424 7
 3909 0032 07E0     		b	.L225
 3910              	.L223:
1425:Core/Src/lis2dw12_reg.c **** 
1426:Core/Src/lis2dw12_reg.c ****     case LIS2DW12_I2C_DISABLE:
1427:Core/Src/lis2dw12_reg.c ****       *val = LIS2DW12_I2C_DISABLE;
 3911              		.loc 1 1427 12
 3912 0034 3B68     		ldr	r3, [r7]
 3913 0036 0122     		movs	r2, #1
 3914 0038 1A70     		strb	r2, [r3]
1428:Core/Src/lis2dw12_reg.c ****       break;
 3915              		.loc 1 1428 7
 3916 003a 03E0     		b	.L225
 3917              	.L227:
1429:Core/Src/lis2dw12_reg.c **** 
1430:Core/Src/lis2dw12_reg.c ****     default:
ARM GAS  C:\Users\vct344\AppData\Local\Temp\ccePc7Ac.s 			page 93


1431:Core/Src/lis2dw12_reg.c ****       *val = LIS2DW12_I2C_ENABLE;
 3918              		.loc 1 1431 12
 3919 003c 3B68     		ldr	r3, [r7]
 3920 003e 0022     		movs	r2, #0
 3921 0040 1A70     		strb	r2, [r3]
1432:Core/Src/lis2dw12_reg.c ****       break;
 3922              		.loc 1 1432 7
 3923 0042 00BF     		nop
 3924              	.L225:
1433:Core/Src/lis2dw12_reg.c ****   }
1434:Core/Src/lis2dw12_reg.c **** 
1435:Core/Src/lis2dw12_reg.c ****   return ret;
 3925              		.loc 1 1435 10
 3926 0044 FB68     		ldr	r3, [r7, #12]
1436:Core/Src/lis2dw12_reg.c **** }
 3927              		.loc 1 1436 1
 3928 0046 1846     		mov	r0, r3
 3929 0048 1037     		adds	r7, r7, #16
 3930              	.LCFI263:
 3931              		.cfi_def_cfa_offset 8
 3932 004a BD46     		mov	sp, r7
 3933              	.LCFI264:
 3934              		.cfi_def_cfa_register 13
 3935              		@ sp needed
 3936 004c 80BD     		pop	{r7, pc}
 3937              		.cfi_endproc
 3938              	.LFE52:
 3940              		.section	.text.lis2dw12_cs_mode_set,"ax",%progbits
 3941              		.align	1
 3942              		.global	lis2dw12_cs_mode_set
 3943              		.syntax unified
 3944              		.thumb
 3945              		.thumb_func
 3947              	lis2dw12_cs_mode_set:
 3948              	.LFB53:
1437:Core/Src/lis2dw12_reg.c **** 
1438:Core/Src/lis2dw12_reg.c **** /**
1439:Core/Src/lis2dw12_reg.c ****   * @brief  Disconnect CS pull-up.[set]
1440:Core/Src/lis2dw12_reg.c ****   *
1441:Core/Src/lis2dw12_reg.c ****   * @param  ctx      read / write interface definitions
1442:Core/Src/lis2dw12_reg.c ****   * @param  val      change the values of cs_pu_disc in reg CTRL2
1443:Core/Src/lis2dw12_reg.c ****   * @retval          interface status (MANDATORY: return 0 -> no Error)
1444:Core/Src/lis2dw12_reg.c ****   *
1445:Core/Src/lis2dw12_reg.c ****   */
1446:Core/Src/lis2dw12_reg.c **** int32_t lis2dw12_cs_mode_set(const stmdev_ctx_t *ctx,
1447:Core/Src/lis2dw12_reg.c ****                              lis2dw12_cs_pu_disc_t val)
1448:Core/Src/lis2dw12_reg.c **** {
 3949              		.loc 1 1448 1
 3950              		.cfi_startproc
 3951              		@ args = 0, pretend = 0, frame = 16
 3952              		@ frame_needed = 1, uses_anonymous_args = 0
 3953 0000 80B5     		push	{r7, lr}
 3954              	.LCFI265:
 3955              		.cfi_def_cfa_offset 8
 3956              		.cfi_offset 7, -8
 3957              		.cfi_offset 14, -4
 3958 0002 84B0     		sub	sp, sp, #16
ARM GAS  C:\Users\vct344\AppData\Local\Temp\ccePc7Ac.s 			page 94


 3959              	.LCFI266:
 3960              		.cfi_def_cfa_offset 24
 3961 0004 00AF     		add	r7, sp, #0
 3962              	.LCFI267:
 3963              		.cfi_def_cfa_register 7
 3964 0006 7860     		str	r0, [r7, #4]
 3965 0008 0B46     		mov	r3, r1
 3966 000a FB70     		strb	r3, [r7, #3]
1449:Core/Src/lis2dw12_reg.c ****   lis2dw12_ctrl2_t reg;
1450:Core/Src/lis2dw12_reg.c ****   int32_t ret;
1451:Core/Src/lis2dw12_reg.c **** 
1452:Core/Src/lis2dw12_reg.c ****   ret = lis2dw12_read_reg(ctx, LIS2DW12_CTRL2, (uint8_t *) &reg, 1);
 3967              		.loc 1 1452 9
 3968 000c 07F10802 		add	r2, r7, #8
 3969 0010 0123     		movs	r3, #1
 3970 0012 2121     		movs	r1, #33
 3971 0014 7868     		ldr	r0, [r7, #4]
 3972 0016 FFF7FEFF 		bl	lis2dw12_read_reg
 3973 001a F860     		str	r0, [r7, #12]
1453:Core/Src/lis2dw12_reg.c **** 
1454:Core/Src/lis2dw12_reg.c ****   if (ret == 0)
 3974              		.loc 1 1454 6
 3975 001c FB68     		ldr	r3, [r7, #12]
 3976 001e 002B     		cmp	r3, #0
 3977 0020 0FD1     		bne	.L229
1455:Core/Src/lis2dw12_reg.c ****   {
1456:Core/Src/lis2dw12_reg.c ****     reg.cs_pu_disc = (uint8_t) val;
 3978              		.loc 1 1456 22
 3979 0022 FB78     		ldrb	r3, [r7, #3]
 3980 0024 03F00103 		and	r3, r3, #1
 3981 0028 DAB2     		uxtb	r2, r3
 3982              		.loc 1 1456 20
 3983 002a 3B7A     		ldrb	r3, [r7, #8]
 3984 002c 62F30413 		bfi	r3, r2, #4, #1
 3985 0030 3B72     		strb	r3, [r7, #8]
1457:Core/Src/lis2dw12_reg.c ****     ret = lis2dw12_write_reg(ctx, LIS2DW12_CTRL2, (uint8_t *) &reg, 1);
 3986              		.loc 1 1457 11
 3987 0032 07F10802 		add	r2, r7, #8
 3988 0036 0123     		movs	r3, #1
 3989 0038 2121     		movs	r1, #33
 3990 003a 7868     		ldr	r0, [r7, #4]
 3991 003c FFF7FEFF 		bl	lis2dw12_write_reg
 3992 0040 F860     		str	r0, [r7, #12]
 3993              	.L229:
1458:Core/Src/lis2dw12_reg.c ****   }
1459:Core/Src/lis2dw12_reg.c **** 
1460:Core/Src/lis2dw12_reg.c ****   return ret;
 3994              		.loc 1 1460 10
 3995 0042 FB68     		ldr	r3, [r7, #12]
1461:Core/Src/lis2dw12_reg.c **** }
 3996              		.loc 1 1461 1
 3997 0044 1846     		mov	r0, r3
 3998 0046 1037     		adds	r7, r7, #16
 3999              	.LCFI268:
 4000              		.cfi_def_cfa_offset 8
 4001 0048 BD46     		mov	sp, r7
 4002              	.LCFI269:
ARM GAS  C:\Users\vct344\AppData\Local\Temp\ccePc7Ac.s 			page 95


 4003              		.cfi_def_cfa_register 13
 4004              		@ sp needed
 4005 004a 80BD     		pop	{r7, pc}
 4006              		.cfi_endproc
 4007              	.LFE53:
 4009              		.section	.text.lis2dw12_cs_mode_get,"ax",%progbits
 4010              		.align	1
 4011              		.global	lis2dw12_cs_mode_get
 4012              		.syntax unified
 4013              		.thumb
 4014              		.thumb_func
 4016              	lis2dw12_cs_mode_get:
 4017              	.LFB54:
1462:Core/Src/lis2dw12_reg.c **** 
1463:Core/Src/lis2dw12_reg.c **** /**
1464:Core/Src/lis2dw12_reg.c ****   * @brief  Disconnect CS pull-up.[get]
1465:Core/Src/lis2dw12_reg.c ****   *
1466:Core/Src/lis2dw12_reg.c ****   * @param  ctx      read / write interface definitions
1467:Core/Src/lis2dw12_reg.c ****   * @param  val      Get the values of cs_pu_disc in reg CTRL2
1468:Core/Src/lis2dw12_reg.c ****   * @retval          interface status (MANDATORY: return 0 -> no Error)
1469:Core/Src/lis2dw12_reg.c ****   *
1470:Core/Src/lis2dw12_reg.c ****   */
1471:Core/Src/lis2dw12_reg.c **** int32_t lis2dw12_cs_mode_get(const stmdev_ctx_t *ctx,
1472:Core/Src/lis2dw12_reg.c ****                              lis2dw12_cs_pu_disc_t *val)
1473:Core/Src/lis2dw12_reg.c **** {
 4018              		.loc 1 1473 1
 4019              		.cfi_startproc
 4020              		@ args = 0, pretend = 0, frame = 16
 4021              		@ frame_needed = 1, uses_anonymous_args = 0
 4022 0000 80B5     		push	{r7, lr}
 4023              	.LCFI270:
 4024              		.cfi_def_cfa_offset 8
 4025              		.cfi_offset 7, -8
 4026              		.cfi_offset 14, -4
 4027 0002 84B0     		sub	sp, sp, #16
 4028              	.LCFI271:
 4029              		.cfi_def_cfa_offset 24
 4030 0004 00AF     		add	r7, sp, #0
 4031              	.LCFI272:
 4032              		.cfi_def_cfa_register 7
 4033 0006 7860     		str	r0, [r7, #4]
 4034 0008 3960     		str	r1, [r7]
1474:Core/Src/lis2dw12_reg.c ****   lis2dw12_ctrl2_t reg;
1475:Core/Src/lis2dw12_reg.c ****   int32_t ret;
1476:Core/Src/lis2dw12_reg.c **** 
1477:Core/Src/lis2dw12_reg.c ****   ret = lis2dw12_read_reg(ctx, LIS2DW12_CTRL2, (uint8_t *) &reg, 1);
 4035              		.loc 1 1477 9
 4036 000a 07F10802 		add	r2, r7, #8
 4037 000e 0123     		movs	r3, #1
 4038 0010 2121     		movs	r1, #33
 4039 0012 7868     		ldr	r0, [r7, #4]
 4040 0014 FFF7FEFF 		bl	lis2dw12_read_reg
 4041 0018 F860     		str	r0, [r7, #12]
1478:Core/Src/lis2dw12_reg.c **** 
1479:Core/Src/lis2dw12_reg.c ****   switch (reg.cs_pu_disc)
 4042              		.loc 1 1479 14
 4043 001a 3B7A     		ldrb	r3, [r7, #8]
ARM GAS  C:\Users\vct344\AppData\Local\Temp\ccePc7Ac.s 			page 96


 4044 001c C3F30013 		ubfx	r3, r3, #4, #1
 4045 0020 DBB2     		uxtb	r3, r3
 4046              		.loc 1 1479 3
 4047 0022 002B     		cmp	r3, #0
 4048 0024 02D0     		beq	.L232
 4049 0026 012B     		cmp	r3, #1
 4050 0028 04D0     		beq	.L233
 4051 002a 07E0     		b	.L237
 4052              	.L232:
1480:Core/Src/lis2dw12_reg.c ****   {
1481:Core/Src/lis2dw12_reg.c ****     case LIS2DW12_PULL_UP_CONNECT:
1482:Core/Src/lis2dw12_reg.c ****       *val = LIS2DW12_PULL_UP_CONNECT;
 4053              		.loc 1 1482 12
 4054 002c 3B68     		ldr	r3, [r7]
 4055 002e 0022     		movs	r2, #0
 4056 0030 1A70     		strb	r2, [r3]
1483:Core/Src/lis2dw12_reg.c ****       break;
 4057              		.loc 1 1483 7
 4058 0032 07E0     		b	.L235
 4059              	.L233:
1484:Core/Src/lis2dw12_reg.c **** 
1485:Core/Src/lis2dw12_reg.c ****     case LIS2DW12_PULL_UP_DISCONNECT:
1486:Core/Src/lis2dw12_reg.c ****       *val = LIS2DW12_PULL_UP_DISCONNECT;
 4060              		.loc 1 1486 12
 4061 0034 3B68     		ldr	r3, [r7]
 4062 0036 0122     		movs	r2, #1
 4063 0038 1A70     		strb	r2, [r3]
1487:Core/Src/lis2dw12_reg.c ****       break;
 4064              		.loc 1 1487 7
 4065 003a 03E0     		b	.L235
 4066              	.L237:
1488:Core/Src/lis2dw12_reg.c **** 
1489:Core/Src/lis2dw12_reg.c ****     default:
1490:Core/Src/lis2dw12_reg.c ****       *val = LIS2DW12_PULL_UP_CONNECT;
 4067              		.loc 1 1490 12
 4068 003c 3B68     		ldr	r3, [r7]
 4069 003e 0022     		movs	r2, #0
 4070 0040 1A70     		strb	r2, [r3]
1491:Core/Src/lis2dw12_reg.c ****       break;
 4071              		.loc 1 1491 7
 4072 0042 00BF     		nop
 4073              	.L235:
1492:Core/Src/lis2dw12_reg.c ****   }
1493:Core/Src/lis2dw12_reg.c **** 
1494:Core/Src/lis2dw12_reg.c ****   return ret;
 4074              		.loc 1 1494 10
 4075 0044 FB68     		ldr	r3, [r7, #12]
1495:Core/Src/lis2dw12_reg.c **** }
 4076              		.loc 1 1495 1
 4077 0046 1846     		mov	r0, r3
 4078 0048 1037     		adds	r7, r7, #16
 4079              	.LCFI273:
 4080              		.cfi_def_cfa_offset 8
 4081 004a BD46     		mov	sp, r7
 4082              	.LCFI274:
 4083              		.cfi_def_cfa_register 13
 4084              		@ sp needed
ARM GAS  C:\Users\vct344\AppData\Local\Temp\ccePc7Ac.s 			page 97


 4085 004c 80BD     		pop	{r7, pc}
 4086              		.cfi_endproc
 4087              	.LFE54:
 4089              		.section	.text.lis2dw12_pin_polarity_set,"ax",%progbits
 4090              		.align	1
 4091              		.global	lis2dw12_pin_polarity_set
 4092              		.syntax unified
 4093              		.thumb
 4094              		.thumb_func
 4096              	lis2dw12_pin_polarity_set:
 4097              	.LFB55:
1496:Core/Src/lis2dw12_reg.c **** 
1497:Core/Src/lis2dw12_reg.c **** /**
1498:Core/Src/lis2dw12_reg.c ****   * @}
1499:Core/Src/lis2dw12_reg.c ****   *
1500:Core/Src/lis2dw12_reg.c ****   */
1501:Core/Src/lis2dw12_reg.c **** 
1502:Core/Src/lis2dw12_reg.c **** /**
1503:Core/Src/lis2dw12_reg.c ****   * @defgroup  LIS2DW12_Interrupt_Pins
1504:Core/Src/lis2dw12_reg.c ****   * @brief     This section groups all the functions that manage interrupt pins
1505:Core/Src/lis2dw12_reg.c ****   * @{
1506:Core/Src/lis2dw12_reg.c ****   *
1507:Core/Src/lis2dw12_reg.c ****   */
1508:Core/Src/lis2dw12_reg.c **** 
1509:Core/Src/lis2dw12_reg.c **** /**
1510:Core/Src/lis2dw12_reg.c ****   * @brief  Interrupt active-high/low.[set]
1511:Core/Src/lis2dw12_reg.c ****   *
1512:Core/Src/lis2dw12_reg.c ****   * @param  ctx      read / write interface definitions
1513:Core/Src/lis2dw12_reg.c ****   * @param  val      change the values of h_lactive in reg CTRL3
1514:Core/Src/lis2dw12_reg.c ****   * @retval          interface status (MANDATORY: return 0 -> no Error)
1515:Core/Src/lis2dw12_reg.c ****   *
1516:Core/Src/lis2dw12_reg.c ****   */
1517:Core/Src/lis2dw12_reg.c **** int32_t lis2dw12_pin_polarity_set(const stmdev_ctx_t *ctx,
1518:Core/Src/lis2dw12_reg.c ****                                   lis2dw12_h_lactive_t val)
1519:Core/Src/lis2dw12_reg.c **** {
 4098              		.loc 1 1519 1
 4099              		.cfi_startproc
 4100              		@ args = 0, pretend = 0, frame = 16
 4101              		@ frame_needed = 1, uses_anonymous_args = 0
 4102 0000 80B5     		push	{r7, lr}
 4103              	.LCFI275:
 4104              		.cfi_def_cfa_offset 8
 4105              		.cfi_offset 7, -8
 4106              		.cfi_offset 14, -4
 4107 0002 84B0     		sub	sp, sp, #16
 4108              	.LCFI276:
 4109              		.cfi_def_cfa_offset 24
 4110 0004 00AF     		add	r7, sp, #0
 4111              	.LCFI277:
 4112              		.cfi_def_cfa_register 7
 4113 0006 7860     		str	r0, [r7, #4]
 4114 0008 0B46     		mov	r3, r1
 4115 000a FB70     		strb	r3, [r7, #3]
1520:Core/Src/lis2dw12_reg.c ****   lis2dw12_ctrl3_t reg;
1521:Core/Src/lis2dw12_reg.c ****   int32_t ret;
1522:Core/Src/lis2dw12_reg.c **** 
1523:Core/Src/lis2dw12_reg.c ****   ret = lis2dw12_read_reg(ctx, LIS2DW12_CTRL3, (uint8_t *) &reg, 1);
ARM GAS  C:\Users\vct344\AppData\Local\Temp\ccePc7Ac.s 			page 98


 4116              		.loc 1 1523 9
 4117 000c 07F10802 		add	r2, r7, #8
 4118 0010 0123     		movs	r3, #1
 4119 0012 2221     		movs	r1, #34
 4120 0014 7868     		ldr	r0, [r7, #4]
 4121 0016 FFF7FEFF 		bl	lis2dw12_read_reg
 4122 001a F860     		str	r0, [r7, #12]
1524:Core/Src/lis2dw12_reg.c **** 
1525:Core/Src/lis2dw12_reg.c ****   if (ret == 0)
 4123              		.loc 1 1525 6
 4124 001c FB68     		ldr	r3, [r7, #12]
 4125 001e 002B     		cmp	r3, #0
 4126 0020 0FD1     		bne	.L239
1526:Core/Src/lis2dw12_reg.c ****   {
1527:Core/Src/lis2dw12_reg.c ****     reg.h_lactive = (uint8_t) val;
 4127              		.loc 1 1527 21
 4128 0022 FB78     		ldrb	r3, [r7, #3]
 4129 0024 03F00103 		and	r3, r3, #1
 4130 0028 DAB2     		uxtb	r2, r3
 4131              		.loc 1 1527 19
 4132 002a 3B7A     		ldrb	r3, [r7, #8]
 4133 002c 62F3C303 		bfi	r3, r2, #3, #1
 4134 0030 3B72     		strb	r3, [r7, #8]
1528:Core/Src/lis2dw12_reg.c ****     ret = lis2dw12_write_reg(ctx, LIS2DW12_CTRL3, (uint8_t *) &reg, 1);
 4135              		.loc 1 1528 11
 4136 0032 07F10802 		add	r2, r7, #8
 4137 0036 0123     		movs	r3, #1
 4138 0038 2221     		movs	r1, #34
 4139 003a 7868     		ldr	r0, [r7, #4]
 4140 003c FFF7FEFF 		bl	lis2dw12_write_reg
 4141 0040 F860     		str	r0, [r7, #12]
 4142              	.L239:
1529:Core/Src/lis2dw12_reg.c ****   }
1530:Core/Src/lis2dw12_reg.c **** 
1531:Core/Src/lis2dw12_reg.c ****   return ret;
 4143              		.loc 1 1531 10
 4144 0042 FB68     		ldr	r3, [r7, #12]
1532:Core/Src/lis2dw12_reg.c **** }
 4145              		.loc 1 1532 1
 4146 0044 1846     		mov	r0, r3
 4147 0046 1037     		adds	r7, r7, #16
 4148              	.LCFI278:
 4149              		.cfi_def_cfa_offset 8
 4150 0048 BD46     		mov	sp, r7
 4151              	.LCFI279:
 4152              		.cfi_def_cfa_register 13
 4153              		@ sp needed
 4154 004a 80BD     		pop	{r7, pc}
 4155              		.cfi_endproc
 4156              	.LFE55:
 4158              		.section	.text.lis2dw12_pin_polarity_get,"ax",%progbits
 4159              		.align	1
 4160              		.global	lis2dw12_pin_polarity_get
 4161              		.syntax unified
 4162              		.thumb
 4163              		.thumb_func
 4165              	lis2dw12_pin_polarity_get:
ARM GAS  C:\Users\vct344\AppData\Local\Temp\ccePc7Ac.s 			page 99


 4166              	.LFB56:
1533:Core/Src/lis2dw12_reg.c **** 
1534:Core/Src/lis2dw12_reg.c **** /**
1535:Core/Src/lis2dw12_reg.c ****   * @brief  Interrupt active-high/low.[get]
1536:Core/Src/lis2dw12_reg.c ****   *
1537:Core/Src/lis2dw12_reg.c ****   * @param  ctx      read / write interface definitions
1538:Core/Src/lis2dw12_reg.c ****   * @param  val      Get the values of h_lactive in reg CTRL3
1539:Core/Src/lis2dw12_reg.c ****   * @retval          interface status (MANDATORY: return 0 -> no Error)
1540:Core/Src/lis2dw12_reg.c ****   *
1541:Core/Src/lis2dw12_reg.c ****   */
1542:Core/Src/lis2dw12_reg.c **** int32_t lis2dw12_pin_polarity_get(const stmdev_ctx_t *ctx,
1543:Core/Src/lis2dw12_reg.c ****                                   lis2dw12_h_lactive_t *val)
1544:Core/Src/lis2dw12_reg.c **** {
 4167              		.loc 1 1544 1
 4168              		.cfi_startproc
 4169              		@ args = 0, pretend = 0, frame = 16
 4170              		@ frame_needed = 1, uses_anonymous_args = 0
 4171 0000 80B5     		push	{r7, lr}
 4172              	.LCFI280:
 4173              		.cfi_def_cfa_offset 8
 4174              		.cfi_offset 7, -8
 4175              		.cfi_offset 14, -4
 4176 0002 84B0     		sub	sp, sp, #16
 4177              	.LCFI281:
 4178              		.cfi_def_cfa_offset 24
 4179 0004 00AF     		add	r7, sp, #0
 4180              	.LCFI282:
 4181              		.cfi_def_cfa_register 7
 4182 0006 7860     		str	r0, [r7, #4]
 4183 0008 3960     		str	r1, [r7]
1545:Core/Src/lis2dw12_reg.c ****   lis2dw12_ctrl3_t reg;
1546:Core/Src/lis2dw12_reg.c ****   int32_t ret;
1547:Core/Src/lis2dw12_reg.c **** 
1548:Core/Src/lis2dw12_reg.c ****   ret = lis2dw12_read_reg(ctx, LIS2DW12_CTRL3, (uint8_t *) &reg, 1);
 4184              		.loc 1 1548 9
 4185 000a 07F10802 		add	r2, r7, #8
 4186 000e 0123     		movs	r3, #1
 4187 0010 2221     		movs	r1, #34
 4188 0012 7868     		ldr	r0, [r7, #4]
 4189 0014 FFF7FEFF 		bl	lis2dw12_read_reg
 4190 0018 F860     		str	r0, [r7, #12]
1549:Core/Src/lis2dw12_reg.c **** 
1550:Core/Src/lis2dw12_reg.c ****   switch (reg.h_lactive)
 4191              		.loc 1 1550 14
 4192 001a 3B7A     		ldrb	r3, [r7, #8]
 4193 001c C3F3C003 		ubfx	r3, r3, #3, #1
 4194 0020 DBB2     		uxtb	r3, r3
 4195              		.loc 1 1550 3
 4196 0022 002B     		cmp	r3, #0
 4197 0024 02D0     		beq	.L242
 4198 0026 012B     		cmp	r3, #1
 4199 0028 04D0     		beq	.L243
 4200 002a 07E0     		b	.L247
 4201              	.L242:
1551:Core/Src/lis2dw12_reg.c ****   {
1552:Core/Src/lis2dw12_reg.c ****     case LIS2DW12_ACTIVE_HIGH:
1553:Core/Src/lis2dw12_reg.c ****       *val = LIS2DW12_ACTIVE_HIGH;
ARM GAS  C:\Users\vct344\AppData\Local\Temp\ccePc7Ac.s 			page 100


 4202              		.loc 1 1553 12
 4203 002c 3B68     		ldr	r3, [r7]
 4204 002e 0022     		movs	r2, #0
 4205 0030 1A70     		strb	r2, [r3]
1554:Core/Src/lis2dw12_reg.c ****       break;
 4206              		.loc 1 1554 7
 4207 0032 07E0     		b	.L245
 4208              	.L243:
1555:Core/Src/lis2dw12_reg.c **** 
1556:Core/Src/lis2dw12_reg.c ****     case LIS2DW12_ACTIVE_LOW:
1557:Core/Src/lis2dw12_reg.c ****       *val = LIS2DW12_ACTIVE_LOW;
 4209              		.loc 1 1557 12
 4210 0034 3B68     		ldr	r3, [r7]
 4211 0036 0122     		movs	r2, #1
 4212 0038 1A70     		strb	r2, [r3]
1558:Core/Src/lis2dw12_reg.c ****       break;
 4213              		.loc 1 1558 7
 4214 003a 03E0     		b	.L245
 4215              	.L247:
1559:Core/Src/lis2dw12_reg.c **** 
1560:Core/Src/lis2dw12_reg.c ****     default:
1561:Core/Src/lis2dw12_reg.c ****       *val = LIS2DW12_ACTIVE_HIGH;
 4216              		.loc 1 1561 12
 4217 003c 3B68     		ldr	r3, [r7]
 4218 003e 0022     		movs	r2, #0
 4219 0040 1A70     		strb	r2, [r3]
1562:Core/Src/lis2dw12_reg.c ****       break;
 4220              		.loc 1 1562 7
 4221 0042 00BF     		nop
 4222              	.L245:
