ARM GAS  C:\Users\vct344\AppData\Local\Temp\ccePc7Ac.s 			page 1


   1              		.cpu cortex-m3
   2              		.arch armv7-m
   3              		.fpu softvfp
   4              		.eabi_attribute 20, 1
   5              		.eabi_attribute 21, 1
   6              		.eabi_attribute 23, 3
   7              		.eabi_attribute 24, 1
   8              		.eabi_attribute 25, 1
   9              		.eabi_attribute 26, 1
  10              		.eabi_attribute 30, 6
  11              		.eabi_attribute 34, 1
  12              		.eabi_attribute 18, 4
  13              		.file	"lis2dw12_reg.c"
  14              		.text
  15              	.Ltext0:
  16              		.cfi_sections	.debug_frame
  17              		.file 1 "Core/Src/lis2dw12_reg.c"
  18              		.section	.text.lis2dw12_read_reg,"ax",%progbits
  19              		.align	1
  20              		.weak	lis2dw12_read_reg
  21              		.syntax unified
  22              		.thumb
  23              		.thumb_func
  25              	lis2dw12_read_reg:
  26              	.LFB0:
   1:Core/Src/lis2dw12_reg.c **** /**
   2:Core/Src/lis2dw12_reg.c ****   ******************************************************************************
   3:Core/Src/lis2dw12_reg.c ****   * @file    lis2dw12_reg.c
   4:Core/Src/lis2dw12_reg.c ****   * @author  Sensors Software Solution Team
   5:Core/Src/lis2dw12_reg.c ****   * @brief   LIS2DW12 driver file
   6:Core/Src/lis2dw12_reg.c ****   ******************************************************************************
   7:Core/Src/lis2dw12_reg.c ****   * @attention
   8:Core/Src/lis2dw12_reg.c ****   *int
   9:Core/Src/lis2dw12_reg.c ****   * <h2><center>&copy; Copyright (c) 2021 STMicroelectronics.
  10:Core/Src/lis2dw12_reg.c ****   * All rights reserved.</center></h2>
  11:Core/Src/lis2dw12_reg.c ****   *
  12:Core/Src/lis2dw12_reg.c ****   * This software component is licensed by ST under BSD 3-Clause license,
  13:Core/Src/lis2dw12_reg.c ****   * the "License"; You may not use this file except in compliance with the
  14:Core/Src/lis2dw12_reg.c ****   * License. You may obtain a copy of the License at:
  15:Core/Src/lis2dw12_reg.c ****   *                        opensource.org/licenses/BSD-3-Clause
  16:Core/Src/lis2dw12_reg.c ****   *
  17:Core/Src/lis2dw12_reg.c ****   ******************************************************************************
  18:Core/Src/lis2dw12_reg.c ****   */
  19:Core/Src/lis2dw12_reg.c **** 
  20:Core/Src/lis2dw12_reg.c **** #include "lis2dw12_reg.h"
  21:Core/Src/lis2dw12_reg.c **** 
  22:Core/Src/lis2dw12_reg.c **** /**
  23:Core/Src/lis2dw12_reg.c ****   * @defgroup  LIS2DW12
  24:Core/Src/lis2dw12_reg.c ****   * @brief     This file provides a set of functions needed to drive the
  25:Core/Src/lis2dw12_reg.c ****   *            lis2dw12 enhanced inertial module.
  26:Core/Src/lis2dw12_reg.c ****   * @{
  27:Core/Src/lis2dw12_reg.c ****   *
  28:Core/Src/lis2dw12_reg.c ****   */
  29:Core/Src/lis2dw12_reg.c **** 
  30:Core/Src/lis2dw12_reg.c **** /**
  31:Core/Src/lis2dw12_reg.c ****   * @defgroup  LIS2DW12_Interfaces_Functions
  32:Core/Src/lis2dw12_reg.c ****   * @brief     This section provide a set of functions used to read and
ARM GAS  C:\Users\vct344\AppData\Local\Temp\ccePc7Ac.s 			page 2


  33:Core/Src/lis2dw12_reg.c ****   *            write a generic register of the device.
  34:Core/Src/lis2dw12_reg.c ****   *            MANDATORY: return 0 -> no Error.
  35:Core/Src/lis2dw12_reg.c ****   * @{
  36:Core/Src/lis2dw12_reg.c ****   *
  37:Core/Src/lis2dw12_reg.c ****   */
  38:Core/Src/lis2dw12_reg.c **** 
  39:Core/Src/lis2dw12_reg.c **** /**
  40:Core/Src/lis2dw12_reg.c ****   * @brief  Read generic device register
  41:Core/Src/lis2dw12_reg.c ****   *
  42:Core/Src/lis2dw12_reg.c ****   * @param  ctx   read / write interface definitions(ptr)
  43:Core/Src/lis2dw12_reg.c ****   * @param  reg   register to read
  44:Core/Src/lis2dw12_reg.c ****   * @param  data  pointer to buffer that store the data read(ptr)
  45:Core/Src/lis2dw12_reg.c ****   * @param  len   number of consecutive register to read
  46:Core/Src/lis2dw12_reg.c ****   * @retval          interface status (MANDATORY: return 0 -> no Error)
  47:Core/Src/lis2dw12_reg.c ****   *
  48:Core/Src/lis2dw12_reg.c ****   */
  49:Core/Src/lis2dw12_reg.c **** int32_t __weak lis2dw12_read_reg(const stmdev_ctx_t *ctx, uint8_t reg,
  50:Core/Src/lis2dw12_reg.c ****                                  uint8_t *data,
  51:Core/Src/lis2dw12_reg.c ****                                  uint16_t len)
  52:Core/Src/lis2dw12_reg.c **** {
  27              		.loc 1 52 1
  28              		.cfi_startproc
  29              		@ args = 0, pretend = 0, frame = 24
  30              		@ frame_needed = 1, uses_anonymous_args = 0
  31 0000 90B5     		push	{r4, r7, lr}
  32              	.LCFI0:
  33              		.cfi_def_cfa_offset 12
  34              		.cfi_offset 4, -12
  35              		.cfi_offset 7, -8
  36              		.cfi_offset 14, -4
  37 0002 87B0     		sub	sp, sp, #28
  38              	.LCFI1:
  39              		.cfi_def_cfa_offset 40
  40 0004 00AF     		add	r7, sp, #0
  41              	.LCFI2:
  42              		.cfi_def_cfa_register 7
  43 0006 F860     		str	r0, [r7, #12]
  44 0008 7A60     		str	r2, [r7, #4]
  45 000a 1A46     		mov	r2, r3
  46 000c 0B46     		mov	r3, r1
  47 000e FB72     		strb	r3, [r7, #11]
  48 0010 1346     		mov	r3, r2	@ movhi
  49 0012 3B81     		strh	r3, [r7, #8]	@ movhi
  53:Core/Src/lis2dw12_reg.c ****   int32_t ret;
  54:Core/Src/lis2dw12_reg.c **** 
  55:Core/Src/lis2dw12_reg.c ****   if (ctx == NULL)
  50              		.loc 1 55 6
  51 0014 FB68     		ldr	r3, [r7, #12]
  52 0016 002B     		cmp	r3, #0
  53 0018 02D1     		bne	.L2
  56:Core/Src/lis2dw12_reg.c ****   {
  57:Core/Src/lis2dw12_reg.c ****     return -1;
  54              		.loc 1 57 12
  55 001a 4FF0FF33 		mov	r3, #-1
  56 001e 09E0     		b	.L3
  57              	.L2:
  58:Core/Src/lis2dw12_reg.c ****   }
ARM GAS  C:\Users\vct344\AppData\Local\Temp\ccePc7Ac.s 			page 3


  59:Core/Src/lis2dw12_reg.c **** 
  60:Core/Src/lis2dw12_reg.c ****   ret = ctx->read_reg(ctx->handle, reg, data, len);
  58              		.loc 1 60 12
  59 0020 FB68     		ldr	r3, [r7, #12]
  60 0022 5C68     		ldr	r4, [r3, #4]
  61              		.loc 1 60 26
  62 0024 FB68     		ldr	r3, [r7, #12]
  63 0026 D868     		ldr	r0, [r3, #12]
  64              		.loc 1 60 9
  65 0028 3B89     		ldrh	r3, [r7, #8]
  66 002a F97A     		ldrb	r1, [r7, #11]	@ zero_extendqisi2
  67 002c 7A68     		ldr	r2, [r7, #4]
  68 002e A047     		blx	r4
  69              	.LVL0:
  70 0030 7861     		str	r0, [r7, #20]
  61:Core/Src/lis2dw12_reg.c **** 
  62:Core/Src/lis2dw12_reg.c ****   return ret;
  71              		.loc 1 62 10
  72 0032 7B69     		ldr	r3, [r7, #20]
  73              	.L3:
  63:Core/Src/lis2dw12_reg.c **** }
  74              		.loc 1 63 1
  75 0034 1846     		mov	r0, r3
  76 0036 1C37     		adds	r7, r7, #28
  77              	.LCFI3:
  78              		.cfi_def_cfa_offset 12
  79 0038 BD46     		mov	sp, r7
  80              	.LCFI4:
  81              		.cfi_def_cfa_register 13
  82              		@ sp needed
  83 003a 90BD     		pop	{r4, r7, pc}
  84              		.cfi_endproc
  85              	.LFE0:
  87              		.section	.text.lis2dw12_write_reg,"ax",%progbits
  88              		.align	1
  89              		.weak	lis2dw12_write_reg
  90              		.syntax unified
  91              		.thumb
  92              		.thumb_func
  94              	lis2dw12_write_reg:
  95              	.LFB1:
  64:Core/Src/lis2dw12_reg.c **** 
  65:Core/Src/lis2dw12_reg.c **** /**
  66:Core/Src/lis2dw12_reg.c ****   * @brief  Write generic device register
  67:Core/Src/lis2dw12_reg.c ****   *
  68:Core/Src/lis2dw12_reg.c ****   * @param  ctx   read / write interface definitions(ptr)
  69:Core/Src/lis2dw12_reg.c ****   * @param  reg   register to write
  70:Core/Src/lis2dw12_reg.c ****   * @param  data  pointer to data to write in register reg(ptr)
  71:Core/Src/lis2dw12_reg.c ****   * @param  len   number of consecutive register to write
  72:Core/Src/lis2dw12_reg.c ****   * @retval          interface status (MANDATORY: return 0 -> no Error)
  73:Core/Src/lis2dw12_reg.c ****   *
  74:Core/Src/lis2dw12_reg.c ****   */
  75:Core/Src/lis2dw12_reg.c **** int32_t __weak lis2dw12_write_reg(const stmdev_ctx_t *ctx, uint8_t reg,
  76:Core/Src/lis2dw12_reg.c ****                                   uint8_t *data,
  77:Core/Src/lis2dw12_reg.c ****                                   uint16_t len)
  78:Core/Src/lis2dw12_reg.c **** {
  96              		.loc 1 78 1
ARM GAS  C:\Users\vct344\AppData\Local\Temp\ccePc7Ac.s 			page 4


  97              		.cfi_startproc
  98              		@ args = 0, pretend = 0, frame = 24
  99              		@ frame_needed = 1, uses_anonymous_args = 0
 100 0000 90B5     		push	{r4, r7, lr}
 101              	.LCFI5:
 102              		.cfi_def_cfa_offset 12
 103              		.cfi_offset 4, -12
 104              		.cfi_offset 7, -8
 105              		.cfi_offset 14, -4
 106 0002 87B0     		sub	sp, sp, #28
 107              	.LCFI6:
 108              		.cfi_def_cfa_offset 40
 109 0004 00AF     		add	r7, sp, #0
 110              	.LCFI7:
 111              		.cfi_def_cfa_register 7
 112 0006 F860     		str	r0, [r7, #12]
 113 0008 7A60     		str	r2, [r7, #4]
 114 000a 1A46     		mov	r2, r3
 115 000c 0B46     		mov	r3, r1
 116 000e FB72     		strb	r3, [r7, #11]
 117 0010 1346     		mov	r3, r2	@ movhi
 118 0012 3B81     		strh	r3, [r7, #8]	@ movhi
  79:Core/Src/lis2dw12_reg.c ****   int32_t ret;
  80:Core/Src/lis2dw12_reg.c **** 
  81:Core/Src/lis2dw12_reg.c ****   if (ctx == NULL)
 119              		.loc 1 81 6
 120 0014 FB68     		ldr	r3, [r7, #12]
 121 0016 002B     		cmp	r3, #0
 122 0018 02D1     		bne	.L5
  82:Core/Src/lis2dw12_reg.c ****   {
  83:Core/Src/lis2dw12_reg.c ****     return -1;
 123              		.loc 1 83 12
 124 001a 4FF0FF33 		mov	r3, #-1
 125 001e 09E0     		b	.L6
 126              	.L5:
  84:Core/Src/lis2dw12_reg.c ****   }
  85:Core/Src/lis2dw12_reg.c **** 
  86:Core/Src/lis2dw12_reg.c ****   ret = ctx->write_reg(ctx->handle, reg, data, len);
 127              		.loc 1 86 12
 128 0020 FB68     		ldr	r3, [r7, #12]
 129 0022 1C68     		ldr	r4, [r3]
 130              		.loc 1 86 27
 131 0024 FB68     		ldr	r3, [r7, #12]
 132 0026 D868     		ldr	r0, [r3, #12]
 133              		.loc 1 86 9
 134 0028 3B89     		ldrh	r3, [r7, #8]
 135 002a F97A     		ldrb	r1, [r7, #11]	@ zero_extendqisi2
 136 002c 7A68     		ldr	r2, [r7, #4]
 137 002e A047     		blx	r4
 138              	.LVL1:
 139 0030 7861     		str	r0, [r7, #20]
  87:Core/Src/lis2dw12_reg.c **** 
  88:Core/Src/lis2dw12_reg.c ****   return ret;
 140              		.loc 1 88 10
 141 0032 7B69     		ldr	r3, [r7, #20]
 142              	.L6:
  89:Core/Src/lis2dw12_reg.c **** }
ARM GAS  C:\Users\vct344\AppData\Local\Temp\ccePc7Ac.s 			page 5


 143              		.loc 1 89 1
 144 0034 1846     		mov	r0, r3
 145 0036 1C37     		adds	r7, r7, #28
 146              	.LCFI8:
 147              		.cfi_def_cfa_offset 12
 148 0038 BD46     		mov	sp, r7
 149              	.LCFI9:
 150              		.cfi_def_cfa_register 13
 151              		@ sp needed
 152 003a 90BD     		pop	{r4, r7, pc}
 153              		.cfi_endproc
 154              	.LFE1:
 156              		.global	__aeabi_i2f
 157              		.global	__aeabi_fmul
 158              		.section	.text.lis2dw12_from_fs2_to_mg,"ax",%progbits
 159              		.align	1
 160              		.global	lis2dw12_from_fs2_to_mg
 161              		.syntax unified
 162              		.thumb
 163              		.thumb_func
 165              	lis2dw12_from_fs2_to_mg:
 166              	.LFB2:
  90:Core/Src/lis2dw12_reg.c **** 
  91:Core/Src/lis2dw12_reg.c **** /**
  92:Core/Src/lis2dw12_reg.c ****   * @}
  93:Core/Src/lis2dw12_reg.c ****   *
  94:Core/Src/lis2dw12_reg.c ****   */
  95:Core/Src/lis2dw12_reg.c **** 
  96:Core/Src/lis2dw12_reg.c **** /**
  97:Core/Src/lis2dw12_reg.c ****   * @defgroup    LIS2DW12_Sensitivity
  98:Core/Src/lis2dw12_reg.c ****   * @brief       These functions convert raw-data into engineering units.
  99:Core/Src/lis2dw12_reg.c ****   * @{
 100:Core/Src/lis2dw12_reg.c ****   *
 101:Core/Src/lis2dw12_reg.c ****   */
 102:Core/Src/lis2dw12_reg.c **** 
 103:Core/Src/lis2dw12_reg.c **** float_t lis2dw12_from_fs2_to_mg(int16_t lsb)
 104:Core/Src/lis2dw12_reg.c **** {
 167              		.loc 1 104 1
 168              		.cfi_startproc
 169              		@ args = 0, pretend = 0, frame = 8
 170              		@ frame_needed = 1, uses_anonymous_args = 0
 171 0000 80B5     		push	{r7, lr}
 172              	.LCFI10:
 173              		.cfi_def_cfa_offset 8
 174              		.cfi_offset 7, -8
 175              		.cfi_offset 14, -4
 176 0002 82B0     		sub	sp, sp, #8
 177              	.LCFI11:
 178              		.cfi_def_cfa_offset 16
 179 0004 00AF     		add	r7, sp, #0
 180              	.LCFI12:
 181              		.cfi_def_cfa_register 7
 182 0006 0346     		mov	r3, r0
 183 0008 FB80     		strh	r3, [r7, #6]	@ movhi
 105:Core/Src/lis2dw12_reg.c ****   return ((float_t)lsb) * 0.061f;
 184              		.loc 1 105 11
 185 000a B7F90630 		ldrsh	r3, [r7, #6]
ARM GAS  C:\Users\vct344\AppData\Local\Temp\ccePc7Ac.s 			page 6


 186 000e 1846     		mov	r0, r3
 187 0010 FFF7FEFF 		bl	__aeabi_i2f
 188 0014 0346     		mov	r3, r0
 189              		.loc 1 105 25
 190 0016 0449     		ldr	r1, .L9
 191 0018 1846     		mov	r0, r3
 192 001a FFF7FEFF 		bl	__aeabi_fmul
 193 001e 0346     		mov	r3, r0
 106:Core/Src/lis2dw12_reg.c **** }
 194              		.loc 1 106 1
 195 0020 1846     		mov	r0, r3
 196 0022 0837     		adds	r7, r7, #8
 197              	.LCFI13:
 198              		.cfi_def_cfa_offset 8
 199 0024 BD46     		mov	sp, r7
 200              	.LCFI14:
 201              		.cfi_def_cfa_register 13
 202              		@ sp needed
 203 0026 80BD     		pop	{r7, pc}
 204              	.L10:
 205              		.align	2
 206              	.L9:
 207 0028 23DB793D 		.word	1031396131
 208              		.cfi_endproc
 209              	.LFE2:
 211              		.section	.text.lis2dw12_from_fs4_to_mg,"ax",%progbits
 212              		.align	1
 213              		.global	lis2dw12_from_fs4_to_mg
 214              		.syntax unified
 215              		.thumb
 216              		.thumb_func
 218              	lis2dw12_from_fs4_to_mg:
 219              	.LFB3:
 107:Core/Src/lis2dw12_reg.c **** 
 108:Core/Src/lis2dw12_reg.c **** float_t lis2dw12_from_fs4_to_mg(int16_t lsb)
 109:Core/Src/lis2dw12_reg.c **** {
 220              		.loc 1 109 1
 221              		.cfi_startproc
 222              		@ args = 0, pretend = 0, frame = 8
 223              		@ frame_needed = 1, uses_anonymous_args = 0
 224 0000 80B5     		push	{r7, lr}
 225              	.LCFI15:
 226              		.cfi_def_cfa_offset 8
 227              		.cfi_offset 7, -8
 228              		.cfi_offset 14, -4
 229 0002 82B0     		sub	sp, sp, #8
 230              	.LCFI16:
 231              		.cfi_def_cfa_offset 16
 232 0004 00AF     		add	r7, sp, #0
 233              	.LCFI17:
 234              		.cfi_def_cfa_register 7
 235 0006 0346     		mov	r3, r0
 236 0008 FB80     		strh	r3, [r7, #6]	@ movhi
 110:Core/Src/lis2dw12_reg.c ****   return ((float_t)lsb) * 0.122f;
 237              		.loc 1 110 11
 238 000a B7F90630 		ldrsh	r3, [r7, #6]
 239 000e 1846     		mov	r0, r3
ARM GAS  C:\Users\vct344\AppData\Local\Temp\ccePc7Ac.s 			page 7


 240 0010 FFF7FEFF 		bl	__aeabi_i2f
 241 0014 0346     		mov	r3, r0
 242              		.loc 1 110 25
 243 0016 0449     		ldr	r1, .L13
 244 0018 1846     		mov	r0, r3
 245 001a FFF7FEFF 		bl	__aeabi_fmul
 246 001e 0346     		mov	r3, r0
 111:Core/Src/lis2dw12_reg.c **** }
 247              		.loc 1 111 1
 248 0020 1846     		mov	r0, r3
 249 0022 0837     		adds	r7, r7, #8
 250              	.LCFI18:
 251              		.cfi_def_cfa_offset 8
 252 0024 BD46     		mov	sp, r7
 253              	.LCFI19:
 254              		.cfi_def_cfa_register 13
 255              		@ sp needed
 256 0026 80BD     		pop	{r7, pc}
 257              	.L14:
 258              		.align	2
 259              	.L13:
 260 0028 23DBF93D 		.word	1039784739
 261              		.cfi_endproc
 262              	.LFE3:
 264              		.section	.text.lis2dw12_from_fs8_to_mg,"ax",%progbits
 265              		.align	1
 266              		.global	lis2dw12_from_fs8_to_mg
 267              		.syntax unified
 268              		.thumb
 269              		.thumb_func
 271              	lis2dw12_from_fs8_to_mg:
 272              	.LFB4:
 112:Core/Src/lis2dw12_reg.c **** 
 113:Core/Src/lis2dw12_reg.c **** float_t lis2dw12_from_fs8_to_mg(int16_t lsb)
 114:Core/Src/lis2dw12_reg.c **** {
 273              		.loc 1 114 1
 274              		.cfi_startproc
 275              		@ args = 0, pretend = 0, frame = 8
 276              		@ frame_needed = 1, uses_anonymous_args = 0
 277 0000 80B5     		push	{r7, lr}
 278              	.LCFI20:
 279              		.cfi_def_cfa_offset 8
 280              		.cfi_offset 7, -8
 281              		.cfi_offset 14, -4
 282 0002 82B0     		sub	sp, sp, #8
 283              	.LCFI21:
 284              		.cfi_def_cfa_offset 16
 285 0004 00AF     		add	r7, sp, #0
 286              	.LCFI22:
 287              		.cfi_def_cfa_register 7
 288 0006 0346     		mov	r3, r0
 289 0008 FB80     		strh	r3, [r7, #6]	@ movhi
 115:Core/Src/lis2dw12_reg.c ****   return ((float_t)lsb) * 0.244f;
 290              		.loc 1 115 11
 291 000a B7F90630 		ldrsh	r3, [r7, #6]
 292 000e 1846     		mov	r0, r3
 293 0010 FFF7FEFF 		bl	__aeabi_i2f
ARM GAS  C:\Users\vct344\AppData\Local\Temp\ccePc7Ac.s 			page 8


 294 0014 0346     		mov	r3, r0
 295              		.loc 1 115 25
 296 0016 0449     		ldr	r1, .L17
 297 0018 1846     		mov	r0, r3
 298 001a FFF7FEFF 		bl	__aeabi_fmul
 299 001e 0346     		mov	r3, r0
 116:Core/Src/lis2dw12_reg.c **** }
 300              		.loc 1 116 1
 301 0020 1846     		mov	r0, r3
 302 0022 0837     		adds	r7, r7, #8
 303              	.LCFI23:
 304              		.cfi_def_cfa_offset 8
 305 0024 BD46     		mov	sp, r7
 306              	.LCFI24:
 307              		.cfi_def_cfa_register 13
 308              		@ sp needed
 309 0026 80BD     		pop	{r7, pc}
 310              	.L18:
 311              		.align	2
 312              	.L17:
 313 0028 23DB793E 		.word	1048173347
 314              		.cfi_endproc
 315              	.LFE4:
 317              		.section	.text.lis2dw12_from_fs16_to_mg,"ax",%progbits
 318              		.align	1
 319              		.global	lis2dw12_from_fs16_to_mg
 320              		.syntax unified
 321              		.thumb
 322              		.thumb_func
 324              	lis2dw12_from_fs16_to_mg:
 325              	.LFB5:
 117:Core/Src/lis2dw12_reg.c **** 
 118:Core/Src/lis2dw12_reg.c **** float_t lis2dw12_from_fs16_to_mg(int16_t lsb)
 119:Core/Src/lis2dw12_reg.c **** {
 326              		.loc 1 119 1
 327              		.cfi_startproc
 328              		@ args = 0, pretend = 0, frame = 8
 329              		@ frame_needed = 1, uses_anonymous_args = 0
 330 0000 80B5     		push	{r7, lr}
 331              	.LCFI25:
 332              		.cfi_def_cfa_offset 8
 333              		.cfi_offset 7, -8
 334              		.cfi_offset 14, -4
 335 0002 82B0     		sub	sp, sp, #8
 336              	.LCFI26:
 337              		.cfi_def_cfa_offset 16
 338 0004 00AF     		add	r7, sp, #0
 339              	.LCFI27:
 340              		.cfi_def_cfa_register 7
 341 0006 0346     		mov	r3, r0
 342 0008 FB80     		strh	r3, [r7, #6]	@ movhi
 120:Core/Src/lis2dw12_reg.c ****   return ((float_t)lsb) * 0.488f;
 343              		.loc 1 120 11
 344 000a B7F90630 		ldrsh	r3, [r7, #6]
 345 000e 1846     		mov	r0, r3
 346 0010 FFF7FEFF 		bl	__aeabi_i2f
 347 0014 0346     		mov	r3, r0
ARM GAS  C:\Users\vct344\AppData\Local\Temp\ccePc7Ac.s 			page 9


 348              		.loc 1 120 25
 349 0016 0449     		ldr	r1, .L21
 350 0018 1846     		mov	r0, r3
 351 001a FFF7FEFF 		bl	__aeabi_fmul
 352 001e 0346     		mov	r3, r0
 121:Core/Src/lis2dw12_reg.c **** }
 353              		.loc 1 121 1
 354 0020 1846     		mov	r0, r3
 355 0022 0837     		adds	r7, r7, #8
 356              	.LCFI28:
 357              		.cfi_def_cfa_offset 8
 358 0024 BD46     		mov	sp, r7
 359              	.LCFI29:
 360              		.cfi_def_cfa_register 13
 361              		@ sp needed
 362 0026 80BD     		pop	{r7, pc}
 363              	.L22:
 364              		.align	2
 365              	.L21:
 366 0028 23DBF93E 		.word	1056561955
 367              		.cfi_endproc
 368              	.LFE5:
 370              		.section	.text.lis2dw12_from_fs2_lp1_to_mg,"ax",%progbits
 371              		.align	1
 372              		.global	lis2dw12_from_fs2_lp1_to_mg
 373              		.syntax unified
 374              		.thumb
 375              		.thumb_func
 377              	lis2dw12_from_fs2_lp1_to_mg:
 378              	.LFB6:
 122:Core/Src/lis2dw12_reg.c **** 
 123:Core/Src/lis2dw12_reg.c **** float_t lis2dw12_from_fs2_lp1_to_mg(int16_t lsb)
 124:Core/Src/lis2dw12_reg.c **** {
 379              		.loc 1 124 1
 380              		.cfi_startproc
 381              		@ args = 0, pretend = 0, frame = 8
 382              		@ frame_needed = 1, uses_anonymous_args = 0
 383 0000 80B5     		push	{r7, lr}
 384              	.LCFI30:
 385              		.cfi_def_cfa_offset 8
 386              		.cfi_offset 7, -8
 387              		.cfi_offset 14, -4
 388 0002 82B0     		sub	sp, sp, #8
 389              	.LCFI31:
 390              		.cfi_def_cfa_offset 16
 391 0004 00AF     		add	r7, sp, #0
 392              	.LCFI32:
 393              		.cfi_def_cfa_register 7
 394 0006 0346     		mov	r3, r0
 395 0008 FB80     		strh	r3, [r7, #6]	@ movhi
 125:Core/Src/lis2dw12_reg.c ****   return ((float_t)lsb) * 0.061f;
 396              		.loc 1 125 11
 397 000a B7F90630 		ldrsh	r3, [r7, #6]
 398 000e 1846     		mov	r0, r3
 399 0010 FFF7FEFF 		bl	__aeabi_i2f
 400 0014 0346     		mov	r3, r0
 401              		.loc 1 125 25
ARM GAS  C:\Users\vct344\AppData\Local\Temp\ccePc7Ac.s 			page 10


 402 0016 0449     		ldr	r1, .L25
 403 0018 1846     		mov	r0, r3
 404 001a FFF7FEFF 		bl	__aeabi_fmul
 405 001e 0346     		mov	r3, r0
 126:Core/Src/lis2dw12_reg.c **** }
 406              		.loc 1 126 1
 407 0020 1846     		mov	r0, r3
 408 0022 0837     		adds	r7, r7, #8
 409              	.LCFI33:
 410              		.cfi_def_cfa_offset 8
 411 0024 BD46     		mov	sp, r7
 412              	.LCFI34:
 413              		.cfi_def_cfa_register 13
 414              		@ sp needed
 415 0026 80BD     		pop	{r7, pc}
 416              	.L26:
 417              		.align	2
 418              	.L25:
 419 0028 23DB793D 		.word	1031396131
 420              		.cfi_endproc
 421              	.LFE6:
 423              		.section	.text.lis2dw12_from_fs4_lp1_to_mg,"ax",%progbits
 424              		.align	1
 425              		.global	lis2dw12_from_fs4_lp1_to_mg
 426              		.syntax unified
 427              		.thumb
 428              		.thumb_func
 430              	lis2dw12_from_fs4_lp1_to_mg:
 431              	.LFB7:
 127:Core/Src/lis2dw12_reg.c **** 
 128:Core/Src/lis2dw12_reg.c **** float_t lis2dw12_from_fs4_lp1_to_mg(int16_t lsb)
 129:Core/Src/lis2dw12_reg.c **** {
 432              		.loc 1 129 1
 433              		.cfi_startproc
 434              		@ args = 0, pretend = 0, frame = 8
 435              		@ frame_needed = 1, uses_anonymous_args = 0
 436 0000 80B5     		push	{r7, lr}
 437              	.LCFI35:
 438              		.cfi_def_cfa_offset 8
 439              		.cfi_offset 7, -8
 440              		.cfi_offset 14, -4
 441 0002 82B0     		sub	sp, sp, #8
 442              	.LCFI36:
 443              		.cfi_def_cfa_offset 16
 444 0004 00AF     		add	r7, sp, #0
 445              	.LCFI37:
 446              		.cfi_def_cfa_register 7
 447 0006 0346     		mov	r3, r0
 448 0008 FB80     		strh	r3, [r7, #6]	@ movhi
 130:Core/Src/lis2dw12_reg.c ****   return ((float_t)lsb) * 0.122f;
 449              		.loc 1 130 11
 450 000a B7F90630 		ldrsh	r3, [r7, #6]
 451 000e 1846     		mov	r0, r3
 452 0010 FFF7FEFF 		bl	__aeabi_i2f
 453 0014 0346     		mov	r3, r0
 454              		.loc 1 130 25
 455 0016 0449     		ldr	r1, .L29
ARM GAS  C:\Users\vct344\AppData\Local\Temp\ccePc7Ac.s 			page 11


 456 0018 1846     		mov	r0, r3
 457 001a FFF7FEFF 		bl	__aeabi_fmul
 458 001e 0346     		mov	r3, r0
 131:Core/Src/lis2dw12_reg.c **** }
 459              		.loc 1 131 1
 460 0020 1846     		mov	r0, r3
 461 0022 0837     		adds	r7, r7, #8
 462              	.LCFI38:
 463              		.cfi_def_cfa_offset 8
 464 0024 BD46     		mov	sp, r7
 465              	.LCFI39:
 466              		.cfi_def_cfa_register 13
 467              		@ sp needed
 468 0026 80BD     		pop	{r7, pc}
 469              	.L30:
 470              		.align	2
 471              	.L29:
 472 0028 23DBF93D 		.word	1039784739
 473              		.cfi_endproc
 474              	.LFE7:
 476              		.section	.text.lis2dw12_from_fs8_lp1_to_mg,"ax",%progbits
 477              		.align	1
 478              		.global	lis2dw12_from_fs8_lp1_to_mg
 479              		.syntax unified
 480              		.thumb
 481              		.thumb_func
 483              	lis2dw12_from_fs8_lp1_to_mg:
 484              	.LFB8:
 132:Core/Src/lis2dw12_reg.c **** 
 133:Core/Src/lis2dw12_reg.c **** float_t lis2dw12_from_fs8_lp1_to_mg(int16_t lsb)
 134:Core/Src/lis2dw12_reg.c **** {
 485              		.loc 1 134 1
 486              		.cfi_startproc
 487              		@ args = 0, pretend = 0, frame = 8
 488              		@ frame_needed = 1, uses_anonymous_args = 0
 489 0000 80B5     		push	{r7, lr}
 490              	.LCFI40:
 491              		.cfi_def_cfa_offset 8
 492              		.cfi_offset 7, -8
 493              		.cfi_offset 14, -4
 494 0002 82B0     		sub	sp, sp, #8
 495              	.LCFI41:
 496              		.cfi_def_cfa_offset 16
 497 0004 00AF     		add	r7, sp, #0
 498              	.LCFI42:
 499              		.cfi_def_cfa_register 7
 500 0006 0346     		mov	r3, r0
 501 0008 FB80     		strh	r3, [r7, #6]	@ movhi
 135:Core/Src/lis2dw12_reg.c ****   return ((float_t)lsb) * 0.244f;
 502              		.loc 1 135 11
 503 000a B7F90630 		ldrsh	r3, [r7, #6]
 504 000e 1846     		mov	r0, r3
 505 0010 FFF7FEFF 		bl	__aeabi_i2f
 506 0014 0346     		mov	r3, r0
 507              		.loc 1 135 25
 508 0016 0449     		ldr	r1, .L33
 509 0018 1846     		mov	r0, r3
ARM GAS  C:\Users\vct344\AppData\Local\Temp\ccePc7Ac.s 			page 12


 510 001a FFF7FEFF 		bl	__aeabi_fmul
 511 001e 0346     		mov	r3, r0
 136:Core/Src/lis2dw12_reg.c **** }
 512              		.loc 1 136 1
 513 0020 1846     		mov	r0, r3
 514 0022 0837     		adds	r7, r7, #8
 515              	.LCFI43:
 516              		.cfi_def_cfa_offset 8
 517 0024 BD46     		mov	sp, r7
 518              	.LCFI44:
 519              		.cfi_def_cfa_register 13
 520              		@ sp needed
 521 0026 80BD     		pop	{r7, pc}
 522              	.L34:
 523              		.align	2
 524              	.L33:
 525 0028 23DB793E 		.word	1048173347
 526              		.cfi_endproc
 527              	.LFE8:
 529              		.section	.text.lis2dw12_from_fs16_lp1_to_mg,"ax",%progbits
 530              		.align	1
 531              		.global	lis2dw12_from_fs16_lp1_to_mg
 532              		.syntax unified
 533              		.thumb
 534              		.thumb_func
 536              	lis2dw12_from_fs16_lp1_to_mg:
 537              	.LFB9:
 137:Core/Src/lis2dw12_reg.c **** 
 138:Core/Src/lis2dw12_reg.c **** float_t lis2dw12_from_fs16_lp1_to_mg(int16_t lsb)
 139:Core/Src/lis2dw12_reg.c **** {
 538              		.loc 1 139 1
 539              		.cfi_startproc
 540              		@ args = 0, pretend = 0, frame = 8
 541              		@ frame_needed = 1, uses_anonymous_args = 0
 542 0000 80B5     		push	{r7, lr}
 543              	.LCFI45:
 544              		.cfi_def_cfa_offset 8
 545              		.cfi_offset 7, -8
 546              		.cfi_offset 14, -4
 547 0002 82B0     		sub	sp, sp, #8
 548              	.LCFI46:
 549              		.cfi_def_cfa_offset 16
 550 0004 00AF     		add	r7, sp, #0
 551              	.LCFI47:
 552              		.cfi_def_cfa_register 7
 553 0006 0346     		mov	r3, r0
 554 0008 FB80     		strh	r3, [r7, #6]	@ movhi
 140:Core/Src/lis2dw12_reg.c ****   return ((float_t)lsb) * 0.488f;
 555              		.loc 1 140 11
 556 000a B7F90630 		ldrsh	r3, [r7, #6]
 557 000e 1846     		mov	r0, r3
 558 0010 FFF7FEFF 		bl	__aeabi_i2f
 559 0014 0346     		mov	r3, r0
 560              		.loc 1 140 25
 561 0016 0449     		ldr	r1, .L37
 562 0018 1846     		mov	r0, r3
 563 001a FFF7FEFF 		bl	__aeabi_fmul
ARM GAS  C:\Users\vct344\AppData\Local\Temp\ccePc7Ac.s 			page 13


 564 001e 0346     		mov	r3, r0
 141:Core/Src/lis2dw12_reg.c **** }
 565              		.loc 1 141 1
 566 0020 1846     		mov	r0, r3
 567 0022 0837     		adds	r7, r7, #8
 568              	.LCFI48:
 569              		.cfi_def_cfa_offset 8
 570 0024 BD46     		mov	sp, r7
 571              	.LCFI49:
 572              		.cfi_def_cfa_register 13
 573              		@ sp needed
 574 0026 80BD     		pop	{r7, pc}
 575              	.L38:
 576              		.align	2
 577              	.L37:
 578 0028 23DBF93E 		.word	1056561955
 579              		.cfi_endproc
 580              	.LFE9:
 582              		.global	__aeabi_fdiv
 583              		.global	__aeabi_fadd
 584              		.section	.text.lis2dw12_from_lsb_to_celsius,"ax",%progbits
 585              		.align	1
 586              		.global	lis2dw12_from_lsb_to_celsius
 587              		.syntax unified
 588              		.thumb
 589              		.thumb_func
 591              	lis2dw12_from_lsb_to_celsius:
 592              	.LFB10:
 142:Core/Src/lis2dw12_reg.c **** 
 143:Core/Src/lis2dw12_reg.c **** float_t lis2dw12_from_lsb_to_celsius(int16_t lsb)
 144:Core/Src/lis2dw12_reg.c **** {
 593              		.loc 1 144 1
 594              		.cfi_startproc
 595              		@ args = 0, pretend = 0, frame = 8
 596              		@ frame_needed = 1, uses_anonymous_args = 0
 597 0000 80B5     		push	{r7, lr}
 598              	.LCFI50:
 599              		.cfi_def_cfa_offset 8
 600              		.cfi_offset 7, -8
 601              		.cfi_offset 14, -4
 602 0002 82B0     		sub	sp, sp, #8
 603              	.LCFI51:
 604              		.cfi_def_cfa_offset 16
 605 0004 00AF     		add	r7, sp, #0
 606              	.LCFI52:
 607              		.cfi_def_cfa_register 7
 608 0006 0346     		mov	r3, r0
 609 0008 FB80     		strh	r3, [r7, #6]	@ movhi
 145:Core/Src/lis2dw12_reg.c ****   return (((float_t)lsb / 256.0f) + 25.0f);
 610              		.loc 1 145 12
 611 000a B7F90630 		ldrsh	r3, [r7, #6]
 612 000e 1846     		mov	r0, r3
 613 0010 FFF7FEFF 		bl	__aeabi_i2f
 614 0014 0346     		mov	r3, r0
 615              		.loc 1 145 25
 616 0016 4FF08741 		mov	r1, #1132462080
 617 001a 1846     		mov	r0, r3
ARM GAS  C:\Users\vct344\AppData\Local\Temp\ccePc7Ac.s 			page 14


 618 001c FFF7FEFF 		bl	__aeabi_fdiv
 619 0020 0346     		mov	r3, r0
 620              		.loc 1 145 35
 621 0022 0449     		ldr	r1, .L41
 622 0024 1846     		mov	r0, r3
 623 0026 FFF7FEFF 		bl	__aeabi_fadd
 624 002a 0346     		mov	r3, r0
 146:Core/Src/lis2dw12_reg.c **** }
 625              		.loc 1 146 1
 626 002c 1846     		mov	r0, r3
 627 002e 0837     		adds	r7, r7, #8
 628              	.LCFI53:
 629              		.cfi_def_cfa_offset 8
 630 0030 BD46     		mov	sp, r7
 631              	.LCFI54:
 632              		.cfi_def_cfa_register 13
 633              		@ sp needed
 634 0032 80BD     		pop	{r7, pc}
 635              	.L42:
 636              		.align	2
 637              	.L41:
 638 0034 0000C841 		.word	1103626240
 639              		.cfi_endproc
 640              	.LFE10:
 642              		.section	.text.lis2dw12_power_mode_set,"ax",%progbits
 643              		.align	1
 644              		.global	lis2dw12_power_mode_set
 645              		.syntax unified
 646              		.thumb
 647              		.thumb_func
 649              	lis2dw12_power_mode_set:
 650              	.LFB11:
 147:Core/Src/lis2dw12_reg.c **** 
 148:Core/Src/lis2dw12_reg.c **** /**
 149:Core/Src/lis2dw12_reg.c ****   * @}
 150:Core/Src/lis2dw12_reg.c ****   *
 151:Core/Src/lis2dw12_reg.c ****   */
 152:Core/Src/lis2dw12_reg.c **** 
 153:Core/Src/lis2dw12_reg.c **** /**
 154:Core/Src/lis2dw12_reg.c ****   * @defgroup  LIS2DW12_Data_Generation
 155:Core/Src/lis2dw12_reg.c ****   * @brief     This section groups all the functions concerning
 156:Core/Src/lis2dw12_reg.c ****   *            data generation
 157:Core/Src/lis2dw12_reg.c ****   * @{
 158:Core/Src/lis2dw12_reg.c ****   *
 159:Core/Src/lis2dw12_reg.c ****   */
 160:Core/Src/lis2dw12_reg.c **** 
 161:Core/Src/lis2dw12_reg.c **** /**
 162:Core/Src/lis2dw12_reg.c ****   * @brief  Select accelerometer operating modes.[set]
 163:Core/Src/lis2dw12_reg.c ****   *
 164:Core/Src/lis2dw12_reg.c ****   * @param  ctx      read / write interface definitions
 165:Core/Src/lis2dw12_reg.c ****   * @param  val      change the values of mode / lp_mode in reg CTRL1
 166:Core/Src/lis2dw12_reg.c ****   *                  and low_noise in reg CTRL6
 167:Core/Src/lis2dw12_reg.c ****   * @retval          interface status (MANDATORY: return 0 -> no Error)
 168:Core/Src/lis2dw12_reg.c ****   *
 169:Core/Src/lis2dw12_reg.c ****   */
 170:Core/Src/lis2dw12_reg.c **** int32_t lis2dw12_power_mode_set(const stmdev_ctx_t *ctx,
 171:Core/Src/lis2dw12_reg.c ****                                 lis2dw12_mode_t val)
ARM GAS  C:\Users\vct344\AppData\Local\Temp\ccePc7Ac.s 			page 15


 172:Core/Src/lis2dw12_reg.c **** {
 651              		.loc 1 172 1
 652              		.cfi_startproc
 653              		@ args = 0, pretend = 0, frame = 24
 654              		@ frame_needed = 1, uses_anonymous_args = 0
 655 0000 80B5     		push	{r7, lr}
 656              	.LCFI55:
 657              		.cfi_def_cfa_offset 8
 658              		.cfi_offset 7, -8
 659              		.cfi_offset 14, -4
 660 0002 86B0     		sub	sp, sp, #24
 661              	.LCFI56:
 662              		.cfi_def_cfa_offset 32
 663 0004 00AF     		add	r7, sp, #0
 664              	.LCFI57:
 665              		.cfi_def_cfa_register 7
 666 0006 7860     		str	r0, [r7, #4]
 667 0008 0B46     		mov	r3, r1
 668 000a FB70     		strb	r3, [r7, #3]
 173:Core/Src/lis2dw12_reg.c ****   lis2dw12_ctrl1_t ctrl1;
 174:Core/Src/lis2dw12_reg.c ****   lis2dw12_ctrl6_t ctrl6;
 175:Core/Src/lis2dw12_reg.c ****   int32_t ret;
 176:Core/Src/lis2dw12_reg.c **** 
 177:Core/Src/lis2dw12_reg.c ****   ret = lis2dw12_read_reg(ctx, LIS2DW12_CTRL1, (uint8_t *) &ctrl1, 1);
 669              		.loc 1 177 9
 670 000c 07F11002 		add	r2, r7, #16
 671 0010 0123     		movs	r3, #1
 672 0012 2021     		movs	r1, #32
 673 0014 7868     		ldr	r0, [r7, #4]
 674 0016 FFF7FEFF 		bl	lis2dw12_read_reg
 675 001a 7861     		str	r0, [r7, #20]
 178:Core/Src/lis2dw12_reg.c **** 
 179:Core/Src/lis2dw12_reg.c ****   if (ret == 0)
 676              		.loc 1 179 6
 677 001c 7B69     		ldr	r3, [r7, #20]
 678 001e 002B     		cmp	r3, #0
 679 0020 18D1     		bne	.L44
 180:Core/Src/lis2dw12_reg.c ****   {
 181:Core/Src/lis2dw12_reg.c ****     ctrl1.mode = ((uint8_t) val & 0x0CU) >> 2;
 680              		.loc 1 181 42
 681 0022 FB78     		ldrb	r3, [r7, #3]	@ zero_extendqisi2
 682 0024 9B08     		lsrs	r3, r3, #2
 683 0026 03F00303 		and	r3, r3, #3
 684 002a DAB2     		uxtb	r2, r3
 685              		.loc 1 181 16
 686 002c 3B7C     		ldrb	r3, [r7, #16]
 687 002e 62F38303 		bfi	r3, r2, #2, #2
 688 0032 3B74     		strb	r3, [r7, #16]
 182:Core/Src/lis2dw12_reg.c ****     ctrl1.lp_mode = (uint8_t) val & 0x03U ;
 689              		.loc 1 182 35
 690 0034 FB78     		ldrb	r3, [r7, #3]
 691 0036 03F00303 		and	r3, r3, #3
 692 003a DAB2     		uxtb	r2, r3
 693              		.loc 1 182 19
 694 003c 3B7C     		ldrb	r3, [r7, #16]
 695 003e 62F30103 		bfi	r3, r2, #0, #2
 696 0042 3B74     		strb	r3, [r7, #16]
ARM GAS  C:\Users\vct344\AppData\Local\Temp\ccePc7Ac.s 			page 16


 183:Core/Src/lis2dw12_reg.c ****     ret = lis2dw12_write_reg(ctx, LIS2DW12_CTRL1, (uint8_t *) &ctrl1, 1);
 697              		.loc 1 183 11
 698 0044 07F11002 		add	r2, r7, #16
 699 0048 0123     		movs	r3, #1
 700 004a 2021     		movs	r1, #32
 701 004c 7868     		ldr	r0, [r7, #4]
 702 004e FFF7FEFF 		bl	lis2dw12_write_reg
 703 0052 7861     		str	r0, [r7, #20]
 704              	.L44:
 184:Core/Src/lis2dw12_reg.c ****   }
 185:Core/Src/lis2dw12_reg.c **** 
 186:Core/Src/lis2dw12_reg.c ****   if (ret == 0)
 705              		.loc 1 186 6
 706 0054 7B69     		ldr	r3, [r7, #20]
 707 0056 002B     		cmp	r3, #0
 708 0058 07D1     		bne	.L45
 187:Core/Src/lis2dw12_reg.c ****   {
 188:Core/Src/lis2dw12_reg.c ****     ret = lis2dw12_read_reg(ctx, LIS2DW12_CTRL6, (uint8_t *) &ctrl6, 1);
 709              		.loc 1 188 11
 710 005a 07F10C02 		add	r2, r7, #12
 711 005e 0123     		movs	r3, #1
 712 0060 2521     		movs	r1, #37
 713 0062 7868     		ldr	r0, [r7, #4]
 714 0064 FFF7FEFF 		bl	lis2dw12_read_reg
 715 0068 7861     		str	r0, [r7, #20]
 716              	.L45:
 189:Core/Src/lis2dw12_reg.c ****   }
 190:Core/Src/lis2dw12_reg.c **** 
 191:Core/Src/lis2dw12_reg.c ****   if (ret == 0)
 717              		.loc 1 191 6
 718 006a 7B69     		ldr	r3, [r7, #20]
 719 006c 002B     		cmp	r3, #0
 720 006e 10D1     		bne	.L46
 192:Core/Src/lis2dw12_reg.c ****   {
 193:Core/Src/lis2dw12_reg.c ****     ctrl6.low_noise = ((uint8_t) val & 0x10U) >> 4;
 721              		.loc 1 193 47
 722 0070 FB78     		ldrb	r3, [r7, #3]	@ zero_extendqisi2
 723 0072 1B09     		lsrs	r3, r3, #4
 724 0074 03F00103 		and	r3, r3, #1
 725 0078 DAB2     		uxtb	r2, r3
 726              		.loc 1 193 21
 727 007a 3B7B     		ldrb	r3, [r7, #12]
 728 007c 62F38203 		bfi	r3, r2, #2, #1
 729 0080 3B73     		strb	r3, [r7, #12]
 194:Core/Src/lis2dw12_reg.c ****     ret = lis2dw12_write_reg(ctx, LIS2DW12_CTRL6, (uint8_t *) &ctrl6, 1);
 730              		.loc 1 194 11
 731 0082 07F10C02 		add	r2, r7, #12
 732 0086 0123     		movs	r3, #1
 733 0088 2521     		movs	r1, #37
 734 008a 7868     		ldr	r0, [r7, #4]
 735 008c FFF7FEFF 		bl	lis2dw12_write_reg
 736 0090 7861     		str	r0, [r7, #20]
 737              	.L46:
 195:Core/Src/lis2dw12_reg.c ****   }
 196:Core/Src/lis2dw12_reg.c **** 
 197:Core/Src/lis2dw12_reg.c ****   return ret;
 738              		.loc 1 197 10
ARM GAS  C:\Users\vct344\AppData\Local\Temp\ccePc7Ac.s 			page 17


 739 0092 7B69     		ldr	r3, [r7, #20]
 198:Core/Src/lis2dw12_reg.c **** }
 740              		.loc 1 198 1
 741 0094 1846     		mov	r0, r3
 742 0096 1837     		adds	r7, r7, #24
 743              	.LCFI58:
 744              		.cfi_def_cfa_offset 8
 745 0098 BD46     		mov	sp, r7
 746              	.LCFI59:
 747              		.cfi_def_cfa_register 13
 748              		@ sp needed
 749 009a 80BD     		pop	{r7, pc}
 750              		.cfi_endproc
 751              	.LFE11:
 753              		.section	.text.lis2dw12_power_mode_get,"ax",%progbits
 754              		.align	1
 755              		.global	lis2dw12_power_mode_get
 756              		.syntax unified
 757              		.thumb
 758              		.thumb_func
 760              	lis2dw12_power_mode_get:
 761              	.LFB12:
 199:Core/Src/lis2dw12_reg.c **** 
 200:Core/Src/lis2dw12_reg.c **** /**
 201:Core/Src/lis2dw12_reg.c ****   * @brief  Select accelerometer operating modes.[get]
 202:Core/Src/lis2dw12_reg.c ****   *
 203:Core/Src/lis2dw12_reg.c ****   * @param  ctx      read / write interface definitions
 204:Core/Src/lis2dw12_reg.c ****   * @param  val      change the values of mode / lp_mode in reg CTRL1
 205:Core/Src/lis2dw12_reg.c ****   *                  and low_noise in reg CTRL6
 206:Core/Src/lis2dw12_reg.c ****   * @retval          interface status (MANDATORY: return 0 -> no Error)
 207:Core/Src/lis2dw12_reg.c ****   *
 208:Core/Src/lis2dw12_reg.c ****   */
 209:Core/Src/lis2dw12_reg.c **** int32_t lis2dw12_power_mode_get(const stmdev_ctx_t *ctx,
 210:Core/Src/lis2dw12_reg.c ****                                 lis2dw12_mode_t *val)
 211:Core/Src/lis2dw12_reg.c **** {
 762              		.loc 1 211 1
 763              		.cfi_startproc
 764              		@ args = 0, pretend = 0, frame = 24
 765              		@ frame_needed = 1, uses_anonymous_args = 0
 766 0000 80B5     		push	{r7, lr}
 767              	.LCFI60:
 768              		.cfi_def_cfa_offset 8
 769              		.cfi_offset 7, -8
 770              		.cfi_offset 14, -4
 771 0002 86B0     		sub	sp, sp, #24
 772              	.LCFI61:
 773              		.cfi_def_cfa_offset 32
 774 0004 00AF     		add	r7, sp, #0
 775              	.LCFI62:
 776              		.cfi_def_cfa_register 7
 777 0006 7860     		str	r0, [r7, #4]
 778 0008 3960     		str	r1, [r7]
 212:Core/Src/lis2dw12_reg.c ****   lis2dw12_ctrl1_t ctrl1;
 213:Core/Src/lis2dw12_reg.c ****   lis2dw12_ctrl6_t ctrl6;
 214:Core/Src/lis2dw12_reg.c ****   int32_t ret;
 215:Core/Src/lis2dw12_reg.c **** 
 216:Core/Src/lis2dw12_reg.c ****   ret = lis2dw12_read_reg(ctx, LIS2DW12_CTRL1, (uint8_t *) &ctrl1, 1);
ARM GAS  C:\Users\vct344\AppData\Local\Temp\ccePc7Ac.s 			page 18


 779              		.loc 1 216 9
 780 000a 07F11002 		add	r2, r7, #16
 781 000e 0123     		movs	r3, #1
 782 0010 2021     		movs	r1, #32
 783 0012 7868     		ldr	r0, [r7, #4]
 784 0014 FFF7FEFF 		bl	lis2dw12_read_reg
 785 0018 7861     		str	r0, [r7, #20]
 217:Core/Src/lis2dw12_reg.c **** 
 218:Core/Src/lis2dw12_reg.c ****   if (ret == 0)
 786              		.loc 1 218 6
 787 001a 7B69     		ldr	r3, [r7, #20]
 788 001c 002B     		cmp	r3, #0
 789 001e 40F0A380 		bne	.L49
 219:Core/Src/lis2dw12_reg.c ****   {
 220:Core/Src/lis2dw12_reg.c ****     ret = lis2dw12_read_reg(ctx, LIS2DW12_CTRL6, (uint8_t *) &ctrl6, 1);
 790              		.loc 1 220 11
 791 0022 07F10C02 		add	r2, r7, #12
 792 0026 0123     		movs	r3, #1
 793 0028 2521     		movs	r1, #37
 794 002a 7868     		ldr	r0, [r7, #4]
 795 002c FFF7FEFF 		bl	lis2dw12_read_reg
 796 0030 7861     		str	r0, [r7, #20]
 221:Core/Src/lis2dw12_reg.c **** 
 222:Core/Src/lis2dw12_reg.c ****     switch (((ctrl6.low_noise << 4) + (ctrl1.mode << 2) +
 797              		.loc 1 222 20
 798 0032 3B7B     		ldrb	r3, [r7, #12]
 799 0034 C3F38003 		ubfx	r3, r3, #2, #1
 800 0038 DBB2     		uxtb	r3, r3
 801              		.loc 1 222 31
 802 003a 1A01     		lsls	r2, r3, #4
 803              		.loc 1 222 45
 804 003c 3B7C     		ldrb	r3, [r7, #16]
 805 003e C3F38103 		ubfx	r3, r3, #2, #2
 806 0042 DBB2     		uxtb	r3, r3
 807              		.loc 1 222 51
 808 0044 9B00     		lsls	r3, r3, #2
 809              		.loc 1 222 37
 810 0046 1344     		add	r3, r3, r2
 223:Core/Src/lis2dw12_reg.c ****              ctrl1.lp_mode))
 811              		.loc 1 223 19
 812 0048 3A7C     		ldrb	r2, [r7, #16]
 813 004a C2F30102 		ubfx	r2, r2, #0, #2
 814 004e D2B2     		uxtb	r2, r2
 222:Core/Src/lis2dw12_reg.c ****              ctrl1.lp_mode))
 815              		.loc 1 222 57
 816 0050 1344     		add	r3, r3, r2
 222:Core/Src/lis2dw12_reg.c ****              ctrl1.lp_mode))
 817              		.loc 1 222 5
 818 0052 1B2B     		cmp	r3, #27
 819 0054 00F28480 		bhi	.L50
 820 0058 01A2     		adr	r2, .L52
 821 005a 52F823F0 		ldr	pc, [r2, r3, lsl #2]
 822 005e 00BF     		.p2align 2
 823              	.L52:
 824 0060 F1000000 		.word	.L69+1
 825 0064 E9000000 		.word	.L68+1
 826 0068 E1000000 		.word	.L67+1
ARM GAS  C:\Users\vct344\AppData\Local\Temp\ccePc7Ac.s 			page 19


 827 006c D9000000 		.word	.L66+1
 828 0070 D1000000 		.word	.L65+1
 829 0074 61010000 		.word	.L50+1
 830 0078 61010000 		.word	.L50+1
 831 007c 61010000 		.word	.L50+1
 832 0080 11010000 		.word	.L64+1
 833 0084 09010000 		.word	.L63+1
 834 0088 01010000 		.word	.L62+1
 835 008c F9000000 		.word	.L61+1
 836 0090 61010000 		.word	.L50+1
 837 0094 61010000 		.word	.L50+1
 838 0098 61010000 		.word	.L50+1
 839 009c 61010000 		.word	.L50+1
 840 00a0 39010000 		.word	.L60+1
 841 00a4 31010000 		.word	.L59+1
 842 00a8 29010000 		.word	.L58+1
 843 00ac 21010000 		.word	.L57+1
 844 00b0 19010000 		.word	.L56+1
 845 00b4 61010000 		.word	.L50+1
 846 00b8 61010000 		.word	.L50+1
 847 00bc 61010000 		.word	.L50+1
 848 00c0 59010000 		.word	.L55+1
 849 00c4 51010000 		.word	.L54+1
 850 00c8 49010000 		.word	.L53+1
 851 00cc 41010000 		.word	.L51+1
 852              		.p2align 1
 853              	.L65:
 224:Core/Src/lis2dw12_reg.c ****     {
 225:Core/Src/lis2dw12_reg.c ****       case LIS2DW12_HIGH_PERFORMANCE:
 226:Core/Src/lis2dw12_reg.c ****         *val = LIS2DW12_HIGH_PERFORMANCE;
 854              		.loc 1 226 14
 855 00d0 3B68     		ldr	r3, [r7]
 856 00d2 0422     		movs	r2, #4
 857 00d4 1A70     		strb	r2, [r3]
 227:Core/Src/lis2dw12_reg.c ****         break;
 858              		.loc 1 227 9
 859 00d6 47E0     		b	.L49
 860              	.L66:
 228:Core/Src/lis2dw12_reg.c **** 
 229:Core/Src/lis2dw12_reg.c ****       case LIS2DW12_CONT_LOW_PWR_4:
 230:Core/Src/lis2dw12_reg.c ****         *val = LIS2DW12_CONT_LOW_PWR_4;
 861              		.loc 1 230 14
 862 00d8 3B68     		ldr	r3, [r7]
 863 00da 0322     		movs	r2, #3
 864 00dc 1A70     		strb	r2, [r3]
 231:Core/Src/lis2dw12_reg.c ****         break;
 865              		.loc 1 231 9
 866 00de 43E0     		b	.L49
 867              	.L67:
 232:Core/Src/lis2dw12_reg.c **** 
 233:Core/Src/lis2dw12_reg.c ****       case LIS2DW12_CONT_LOW_PWR_3:
 234:Core/Src/lis2dw12_reg.c ****         *val = LIS2DW12_CONT_LOW_PWR_3;
 868              		.loc 1 234 14
 869 00e0 3B68     		ldr	r3, [r7]
 870 00e2 0222     		movs	r2, #2
 871 00e4 1A70     		strb	r2, [r3]
 235:Core/Src/lis2dw12_reg.c ****         break;
ARM GAS  C:\Users\vct344\AppData\Local\Temp\ccePc7Ac.s 			page 20


 872              		.loc 1 235 9
 873 00e6 3FE0     		b	.L49
 874              	.L68:
 236:Core/Src/lis2dw12_reg.c **** 
 237:Core/Src/lis2dw12_reg.c ****       case LIS2DW12_CONT_LOW_PWR_2:
 238:Core/Src/lis2dw12_reg.c ****         *val = LIS2DW12_CONT_LOW_PWR_2;
 875              		.loc 1 238 14
 876 00e8 3B68     		ldr	r3, [r7]
 877 00ea 0122     		movs	r2, #1
 878 00ec 1A70     		strb	r2, [r3]
 239:Core/Src/lis2dw12_reg.c ****         break;
 879              		.loc 1 239 9
 880 00ee 3BE0     		b	.L49
 881              	.L69:
 240:Core/Src/lis2dw12_reg.c **** 
 241:Core/Src/lis2dw12_reg.c ****       case LIS2DW12_CONT_LOW_PWR_12bit:
 242:Core/Src/lis2dw12_reg.c ****         *val = LIS2DW12_CONT_LOW_PWR_12bit;
 882              		.loc 1 242 14
 883 00f0 3B68     		ldr	r3, [r7]
 884 00f2 0022     		movs	r2, #0
 885 00f4 1A70     		strb	r2, [r3]
 243:Core/Src/lis2dw12_reg.c ****         break;
 886              		.loc 1 243 9
 887 00f6 37E0     		b	.L49
 888              	.L61:
 244:Core/Src/lis2dw12_reg.c **** 
 245:Core/Src/lis2dw12_reg.c ****       case LIS2DW12_SINGLE_LOW_PWR_4:
 246:Core/Src/lis2dw12_reg.c ****         *val = LIS2DW12_SINGLE_LOW_PWR_4;
 889              		.loc 1 246 14
 890 00f8 3B68     		ldr	r3, [r7]
 891 00fa 0B22     		movs	r2, #11
 892 00fc 1A70     		strb	r2, [r3]
 247:Core/Src/lis2dw12_reg.c ****         break;
 893              		.loc 1 247 9
 894 00fe 33E0     		b	.L49
 895              	.L62:
 248:Core/Src/lis2dw12_reg.c **** 
 249:Core/Src/lis2dw12_reg.c ****       case LIS2DW12_SINGLE_LOW_PWR_3:
 250:Core/Src/lis2dw12_reg.c ****         *val = LIS2DW12_SINGLE_LOW_PWR_3;
 896              		.loc 1 250 14
 897 0100 3B68     		ldr	r3, [r7]
 898 0102 0A22     		movs	r2, #10
 899 0104 1A70     		strb	r2, [r3]
 251:Core/Src/lis2dw12_reg.c ****         break;
 900              		.loc 1 251 9
 901 0106 2FE0     		b	.L49
 902              	.L63:
 252:Core/Src/lis2dw12_reg.c **** 
 253:Core/Src/lis2dw12_reg.c ****       case LIS2DW12_SINGLE_LOW_PWR_2:
 254:Core/Src/lis2dw12_reg.c ****         *val = LIS2DW12_SINGLE_LOW_PWR_2;
 903              		.loc 1 254 14
 904 0108 3B68     		ldr	r3, [r7]
 905 010a 0922     		movs	r2, #9
 906 010c 1A70     		strb	r2, [r3]
 255:Core/Src/lis2dw12_reg.c ****         break;
 907              		.loc 1 255 9
 908 010e 2BE0     		b	.L49
ARM GAS  C:\Users\vct344\AppData\Local\Temp\ccePc7Ac.s 			page 21


 909              	.L64:
 256:Core/Src/lis2dw12_reg.c **** 
 257:Core/Src/lis2dw12_reg.c ****       case LIS2DW12_SINGLE_LOW_PWR_12bit:
 258:Core/Src/lis2dw12_reg.c ****         *val = LIS2DW12_SINGLE_LOW_PWR_12bit;
 910              		.loc 1 258 14
 911 0110 3B68     		ldr	r3, [r7]
 912 0112 0822     		movs	r2, #8
 913 0114 1A70     		strb	r2, [r3]
 259:Core/Src/lis2dw12_reg.c ****         break;
 914              		.loc 1 259 9
 915 0116 27E0     		b	.L49
 916              	.L56:
 260:Core/Src/lis2dw12_reg.c **** 
 261:Core/Src/lis2dw12_reg.c ****       case LIS2DW12_HIGH_PERFORMANCE_LOW_NOISE:
 262:Core/Src/lis2dw12_reg.c ****         *val = LIS2DW12_HIGH_PERFORMANCE_LOW_NOISE;
 917              		.loc 1 262 14
 918 0118 3B68     		ldr	r3, [r7]
 919 011a 1422     		movs	r2, #20
 920 011c 1A70     		strb	r2, [r3]
 263:Core/Src/lis2dw12_reg.c ****         break;
 921              		.loc 1 263 9
 922 011e 23E0     		b	.L49
 923              	.L57:
 264:Core/Src/lis2dw12_reg.c **** 
 265:Core/Src/lis2dw12_reg.c ****       case LIS2DW12_CONT_LOW_PWR_LOW_NOISE_4:
 266:Core/Src/lis2dw12_reg.c ****         *val = LIS2DW12_CONT_LOW_PWR_LOW_NOISE_4;
 924              		.loc 1 266 14
 925 0120 3B68     		ldr	r3, [r7]
 926 0122 1322     		movs	r2, #19
 927 0124 1A70     		strb	r2, [r3]
 267:Core/Src/lis2dw12_reg.c ****         break;
 928              		.loc 1 267 9
 929 0126 1FE0     		b	.L49
 930              	.L58:
 268:Core/Src/lis2dw12_reg.c **** 
 269:Core/Src/lis2dw12_reg.c ****       case LIS2DW12_CONT_LOW_PWR_LOW_NOISE_3:
 270:Core/Src/lis2dw12_reg.c ****         *val = LIS2DW12_CONT_LOW_PWR_LOW_NOISE_3;
 931              		.loc 1 270 14
 932 0128 3B68     		ldr	r3, [r7]
 933 012a 1222     		movs	r2, #18
 934 012c 1A70     		strb	r2, [r3]
 271:Core/Src/lis2dw12_reg.c ****         break;
 935              		.loc 1 271 9
 936 012e 1BE0     		b	.L49
 937              	.L59:
 272:Core/Src/lis2dw12_reg.c **** 
 273:Core/Src/lis2dw12_reg.c ****       case LIS2DW12_CONT_LOW_PWR_LOW_NOISE_2:
 274:Core/Src/lis2dw12_reg.c ****         *val = LIS2DW12_CONT_LOW_PWR_LOW_NOISE_2;
 938              		.loc 1 274 14
 939 0130 3B68     		ldr	r3, [r7]
 940 0132 1122     		movs	r2, #17
 941 0134 1A70     		strb	r2, [r3]
 275:Core/Src/lis2dw12_reg.c ****         break;
 942              		.loc 1 275 9
 943 0136 17E0     		b	.L49
 944              	.L60:
 276:Core/Src/lis2dw12_reg.c **** 
ARM GAS  C:\Users\vct344\AppData\Local\Temp\ccePc7Ac.s 			page 22


 277:Core/Src/lis2dw12_reg.c ****       case LIS2DW12_CONT_LOW_PWR_LOW_NOISE_12bit:
 278:Core/Src/lis2dw12_reg.c ****         *val = LIS2DW12_CONT_LOW_PWR_LOW_NOISE_12bit;
 945              		.loc 1 278 14
 946 0138 3B68     		ldr	r3, [r7]
 947 013a 1022     		movs	r2, #16
 948 013c 1A70     		strb	r2, [r3]
 279:Core/Src/lis2dw12_reg.c ****         break;
 949              		.loc 1 279 9
 950 013e 13E0     		b	.L49
 951              	.L51:
 280:Core/Src/lis2dw12_reg.c **** 
 281:Core/Src/lis2dw12_reg.c ****       case LIS2DW12_SINGLE_LOW_PWR_LOW_NOISE_4:
 282:Core/Src/lis2dw12_reg.c ****         *val = LIS2DW12_SINGLE_LOW_PWR_LOW_NOISE_4;
 952              		.loc 1 282 14
 953 0140 3B68     		ldr	r3, [r7]
 954 0142 1B22     		movs	r2, #27
 955 0144 1A70     		strb	r2, [r3]
 283:Core/Src/lis2dw12_reg.c ****         break;
 956              		.loc 1 283 9
 957 0146 0FE0     		b	.L49
 958              	.L53:
 284:Core/Src/lis2dw12_reg.c **** 
 285:Core/Src/lis2dw12_reg.c ****       case LIS2DW12_SINGLE_LOW_PWR_LOW_NOISE_3:
 286:Core/Src/lis2dw12_reg.c ****         *val = LIS2DW12_SINGLE_LOW_PWR_LOW_NOISE_3;
 959              		.loc 1 286 14
 960 0148 3B68     		ldr	r3, [r7]
 961 014a 1A22     		movs	r2, #26
 962 014c 1A70     		strb	r2, [r3]
 287:Core/Src/lis2dw12_reg.c ****         break;
 963              		.loc 1 287 9
 964 014e 0BE0     		b	.L49
 965              	.L54:
 288:Core/Src/lis2dw12_reg.c **** 
 289:Core/Src/lis2dw12_reg.c ****       case LIS2DW12_SINGLE_LOW_PWR_LOW_NOISE_2:
 290:Core/Src/lis2dw12_reg.c ****         *val = LIS2DW12_SINGLE_LOW_PWR_LOW_NOISE_2;
 966              		.loc 1 290 14
 967 0150 3B68     		ldr	r3, [r7]
 968 0152 1922     		movs	r2, #25
 969 0154 1A70     		strb	r2, [r3]
 291:Core/Src/lis2dw12_reg.c ****         break;
 970              		.loc 1 291 9
 971 0156 07E0     		b	.L49
 972              	.L55:
 292:Core/Src/lis2dw12_reg.c **** 
 293:Core/Src/lis2dw12_reg.c ****       case LIS2DW12_SINGLE_LOW_LOW_NOISE_PWR_12bit:
 294:Core/Src/lis2dw12_reg.c ****         *val = LIS2DW12_SINGLE_LOW_LOW_NOISE_PWR_12bit;
 973              		.loc 1 294 14
 974 0158 3B68     		ldr	r3, [r7]
 975 015a 1822     		movs	r2, #24
 976 015c 1A70     		strb	r2, [r3]
 295:Core/Src/lis2dw12_reg.c ****         break;
 977              		.loc 1 295 9
 978 015e 03E0     		b	.L49
 979              	.L50:
 296:Core/Src/lis2dw12_reg.c **** 
 297:Core/Src/lis2dw12_reg.c ****       default:
 298:Core/Src/lis2dw12_reg.c ****         *val = LIS2DW12_HIGH_PERFORMANCE;
ARM GAS  C:\Users\vct344\AppData\Local\Temp\ccePc7Ac.s 			page 23


 980              		.loc 1 298 14
 981 0160 3B68     		ldr	r3, [r7]
 982 0162 0422     		movs	r2, #4
 983 0164 1A70     		strb	r2, [r3]
 299:Core/Src/lis2dw12_reg.c ****         break;
 984              		.loc 1 299 9
 985 0166 00BF     		nop
 986              	.L49:
 300:Core/Src/lis2dw12_reg.c ****     }
 301:Core/Src/lis2dw12_reg.c ****   }
 302:Core/Src/lis2dw12_reg.c **** 
 303:Core/Src/lis2dw12_reg.c ****   return ret;
 987              		.loc 1 303 10
 988 0168 7B69     		ldr	r3, [r7, #20]
 304:Core/Src/lis2dw12_reg.c **** }
 989              		.loc 1 304 1
 990 016a 1846     		mov	r0, r3
 991 016c 1837     		adds	r7, r7, #24
 992              	.LCFI63:
 993              		.cfi_def_cfa_offset 8
 994 016e BD46     		mov	sp, r7
 995              	.LCFI64:
 996              		.cfi_def_cfa_register 13
 997              		@ sp needed
 998 0170 80BD     		pop	{r7, pc}
 999              		.cfi_endproc
 1000              	.LFE12:
 1002 0172 00BF     		.section	.text.lis2dw12_data_rate_set,"ax",%progbits
 1003              		.align	1
 1004              		.global	lis2dw12_data_rate_set
 1005              		.syntax unified
 1006              		.thumb
 1007              		.thumb_func
 1009              	lis2dw12_data_rate_set:
 1010              	.LFB13:
 305:Core/Src/lis2dw12_reg.c **** 
 306:Core/Src/lis2dw12_reg.c **** /**
 307:Core/Src/lis2dw12_reg.c ****   * @brief  Accelerometer data rate selection.[set]
 308:Core/Src/lis2dw12_reg.c ****   *
 309:Core/Src/lis2dw12_reg.c ****   * @param  ctx      read / write interface definitions
 310:Core/Src/lis2dw12_reg.c ****   * @param  val      change the values of odr in reg CTRL1
 311:Core/Src/lis2dw12_reg.c ****   * @retval          interface status (MANDATORY: return 0 -> no Error)
 312:Core/Src/lis2dw12_reg.c ****   *
 313:Core/Src/lis2dw12_reg.c ****   */
 314:Core/Src/lis2dw12_reg.c **** int32_t lis2dw12_data_rate_set(const stmdev_ctx_t *ctx, lis2dw12_odr_t val)
 315:Core/Src/lis2dw12_reg.c **** {
 1011              		.loc 1 315 1
 1012              		.cfi_startproc
 1013              		@ args = 0, pretend = 0, frame = 24
 1014              		@ frame_needed = 1, uses_anonymous_args = 0
 1015 0000 80B5     		push	{r7, lr}
 1016              	.LCFI65:
 1017              		.cfi_def_cfa_offset 8
 1018              		.cfi_offset 7, -8
 1019              		.cfi_offset 14, -4
 1020 0002 86B0     		sub	sp, sp, #24
 1021              	.LCFI66:
ARM GAS  C:\Users\vct344\AppData\Local\Temp\ccePc7Ac.s 			page 24


 1022              		.cfi_def_cfa_offset 32
 1023 0004 00AF     		add	r7, sp, #0
 1024              	.LCFI67:
 1025              		.cfi_def_cfa_register 7
 1026 0006 7860     		str	r0, [r7, #4]
 1027 0008 0B46     		mov	r3, r1
 1028 000a FB70     		strb	r3, [r7, #3]
 316:Core/Src/lis2dw12_reg.c ****   lis2dw12_ctrl1_t ctrl1;
 317:Core/Src/lis2dw12_reg.c ****   lis2dw12_ctrl3_t ctrl3;
 318:Core/Src/lis2dw12_reg.c ****   int32_t ret;
 319:Core/Src/lis2dw12_reg.c **** 
 320:Core/Src/lis2dw12_reg.c ****   ret = lis2dw12_read_reg(ctx, LIS2DW12_CTRL1, (uint8_t *) &ctrl1, 1);
 1029              		.loc 1 320 9
 1030 000c 07F11002 		add	r2, r7, #16
 1031 0010 0123     		movs	r3, #1
 1032 0012 2021     		movs	r1, #32
 1033 0014 7868     		ldr	r0, [r7, #4]
 1034 0016 FFF7FEFF 		bl	lis2dw12_read_reg
 1035 001a 7861     		str	r0, [r7, #20]
 321:Core/Src/lis2dw12_reg.c **** 
 322:Core/Src/lis2dw12_reg.c ****   if (ret == 0)
 1036              		.loc 1 322 6
 1037 001c 7B69     		ldr	r3, [r7, #20]
 1038 001e 002B     		cmp	r3, #0
 1039 0020 0FD1     		bne	.L72
 323:Core/Src/lis2dw12_reg.c ****   {
 324:Core/Src/lis2dw12_reg.c ****     ctrl1.odr = (uint8_t) val;
 1040              		.loc 1 324 17
 1041 0022 FB78     		ldrb	r3, [r7, #3]
 1042 0024 03F00F03 		and	r3, r3, #15
 1043 0028 DAB2     		uxtb	r2, r3
 1044              		.loc 1 324 15
 1045 002a 3B7C     		ldrb	r3, [r7, #16]
 1046 002c 62F30713 		bfi	r3, r2, #4, #4
 1047 0030 3B74     		strb	r3, [r7, #16]
 325:Core/Src/lis2dw12_reg.c ****     ret = lis2dw12_write_reg(ctx, LIS2DW12_CTRL1, (uint8_t *) &ctrl1, 1);
 1048              		.loc 1 325 11
 1049 0032 07F11002 		add	r2, r7, #16
 1050 0036 0123     		movs	r3, #1
 1051 0038 2021     		movs	r1, #32
 1052 003a 7868     		ldr	r0, [r7, #4]
 1053 003c FFF7FEFF 		bl	lis2dw12_write_reg
 1054 0040 7861     		str	r0, [r7, #20]
 1055              	.L72:
 326:Core/Src/lis2dw12_reg.c ****   }
 327:Core/Src/lis2dw12_reg.c **** 
 328:Core/Src/lis2dw12_reg.c ****   if (ret == 0)
 1056              		.loc 1 328 6
 1057 0042 7B69     		ldr	r3, [r7, #20]
 1058 0044 002B     		cmp	r3, #0
 1059 0046 07D1     		bne	.L73
 329:Core/Src/lis2dw12_reg.c ****   {
 330:Core/Src/lis2dw12_reg.c ****     ret = lis2dw12_read_reg(ctx, LIS2DW12_CTRL3, (uint8_t *) &ctrl3, 1);
 1060              		.loc 1 330 11
 1061 0048 07F10C02 		add	r2, r7, #12
 1062 004c 0123     		movs	r3, #1
 1063 004e 2221     		movs	r1, #34
ARM GAS  C:\Users\vct344\AppData\Local\Temp\ccePc7Ac.s 			page 25


 1064 0050 7868     		ldr	r0, [r7, #4]
 1065 0052 FFF7FEFF 		bl	lis2dw12_read_reg
 1066 0056 7861     		str	r0, [r7, #20]
 1067              	.L73:
 331:Core/Src/lis2dw12_reg.c ****   }
 332:Core/Src/lis2dw12_reg.c **** 
 333:Core/Src/lis2dw12_reg.c ****   if (ret == 0)
 1068              		.loc 1 333 6
 1069 0058 7B69     		ldr	r3, [r7, #20]
 1070 005a 002B     		cmp	r3, #0
 1071 005c 10D1     		bne	.L74
 334:Core/Src/lis2dw12_reg.c ****   {
 335:Core/Src/lis2dw12_reg.c ****     ctrl3.slp_mode = ((uint8_t) val & 0x30U) >> 4;
 1072              		.loc 1 335 46
 1073 005e FB78     		ldrb	r3, [r7, #3]	@ zero_extendqisi2
 1074 0060 1B09     		lsrs	r3, r3, #4
 1075 0062 03F00303 		and	r3, r3, #3
 1076 0066 DAB2     		uxtb	r2, r3
 1077              		.loc 1 335 20
 1078 0068 3B7B     		ldrb	r3, [r7, #12]
 1079 006a 62F30103 		bfi	r3, r2, #0, #2
 1080 006e 3B73     		strb	r3, [r7, #12]
 336:Core/Src/lis2dw12_reg.c ****     ret = lis2dw12_write_reg(ctx, LIS2DW12_CTRL3, (uint8_t *) &ctrl3, 1);
 1081              		.loc 1 336 11
 1082 0070 07F10C02 		add	r2, r7, #12
 1083 0074 0123     		movs	r3, #1
 1084 0076 2221     		movs	r1, #34
 1085 0078 7868     		ldr	r0, [r7, #4]
 1086 007a FFF7FEFF 		bl	lis2dw12_write_reg
 1087 007e 7861     		str	r0, [r7, #20]
 1088              	.L74:
 337:Core/Src/lis2dw12_reg.c ****   }
 338:Core/Src/lis2dw12_reg.c **** 
 339:Core/Src/lis2dw12_reg.c ****   return ret;
 1089              		.loc 1 339 10
 1090 0080 7B69     		ldr	r3, [r7, #20]
 340:Core/Src/lis2dw12_reg.c **** }
 1091              		.loc 1 340 1
 1092 0082 1846     		mov	r0, r3
 1093 0084 1837     		adds	r7, r7, #24
 1094              	.LCFI68:
 1095              		.cfi_def_cfa_offset 8
 1096 0086 BD46     		mov	sp, r7
 1097              	.LCFI69:
 1098              		.cfi_def_cfa_register 13
 1099              		@ sp needed
 1100 0088 80BD     		pop	{r7, pc}
 1101              		.cfi_endproc
 1102              	.LFE13:
 1104              		.section	.text.lis2dw12_data_rate_get,"ax",%progbits
 1105              		.align	1
 1106              		.global	lis2dw12_data_rate_get
 1107              		.syntax unified
 1108              		.thumb
 1109              		.thumb_func
 1111              	lis2dw12_data_rate_get:
 1112              	.LFB14:
ARM GAS  C:\Users\vct344\AppData\Local\Temp\ccePc7Ac.s 			page 26


 341:Core/Src/lis2dw12_reg.c **** 
 342:Core/Src/lis2dw12_reg.c **** /**
 343:Core/Src/lis2dw12_reg.c ****   * @brief  Accelerometer data rate selection.[get]
 344:Core/Src/lis2dw12_reg.c ****   *
 345:Core/Src/lis2dw12_reg.c ****   * @param  ctx      read / write interface definitions
 346:Core/Src/lis2dw12_reg.c ****   * @param  val      Get the values of odr in reg CTRL1
 347:Core/Src/lis2dw12_reg.c ****   * @retval          interface status (MANDATORY: return 0 -> no Error)
 348:Core/Src/lis2dw12_reg.c ****   *
 349:Core/Src/lis2dw12_reg.c ****   */
 350:Core/Src/lis2dw12_reg.c **** int32_t lis2dw12_data_rate_get(const stmdev_ctx_t *ctx, lis2dw12_odr_t *val)
 351:Core/Src/lis2dw12_reg.c **** {
 1113              		.loc 1 351 1
 1114              		.cfi_startproc
 1115              		@ args = 0, pretend = 0, frame = 24
 1116              		@ frame_needed = 1, uses_anonymous_args = 0
 1117 0000 80B5     		push	{r7, lr}
 1118              	.LCFI70:
 1119              		.cfi_def_cfa_offset 8
 1120              		.cfi_offset 7, -8
 1121              		.cfi_offset 14, -4
 1122 0002 86B0     		sub	sp, sp, #24
 1123              	.LCFI71:
 1124              		.cfi_def_cfa_offset 32
 1125 0004 00AF     		add	r7, sp, #0
 1126              	.LCFI72:
 1127              		.cfi_def_cfa_register 7
 1128 0006 7860     		str	r0, [r7, #4]
 1129 0008 3960     		str	r1, [r7]
 352:Core/Src/lis2dw12_reg.c ****   lis2dw12_ctrl1_t ctrl1;
 353:Core/Src/lis2dw12_reg.c ****   lis2dw12_ctrl3_t ctrl3;
 354:Core/Src/lis2dw12_reg.c ****   int32_t ret;
 355:Core/Src/lis2dw12_reg.c **** 
 356:Core/Src/lis2dw12_reg.c ****   ret = lis2dw12_read_reg(ctx, LIS2DW12_CTRL1, (uint8_t *) &ctrl1, 1);
 1130              		.loc 1 356 9
 1131 000a 07F11002 		add	r2, r7, #16
 1132 000e 0123     		movs	r3, #1
 1133 0010 2021     		movs	r1, #32
 1134 0012 7868     		ldr	r0, [r7, #4]
 1135 0014 FFF7FEFF 		bl	lis2dw12_read_reg
 1136 0018 7861     		str	r0, [r7, #20]
 357:Core/Src/lis2dw12_reg.c **** 
 358:Core/Src/lis2dw12_reg.c ****   if (ret == 0)
 1137              		.loc 1 358 6
 1138 001a 7B69     		ldr	r3, [r7, #20]
 1139 001c 002B     		cmp	r3, #0
 1140 001e 40F0B380 		bne	.L77
 359:Core/Src/lis2dw12_reg.c ****   {
 360:Core/Src/lis2dw12_reg.c ****     ret = lis2dw12_read_reg(ctx, LIS2DW12_CTRL3, (uint8_t *) &ctrl3, 1);
 1141              		.loc 1 360 11
 1142 0022 07F10C02 		add	r2, r7, #12
 1143 0026 0123     		movs	r3, #1
 1144 0028 2221     		movs	r1, #34
 1145 002a 7868     		ldr	r0, [r7, #4]
 1146 002c FFF7FEFF 		bl	lis2dw12_read_reg
 1147 0030 7861     		str	r0, [r7, #20]
 361:Core/Src/lis2dw12_reg.c **** 
 362:Core/Src/lis2dw12_reg.c ****     switch ((ctrl3.slp_mode << 4) + ctrl1.odr)
ARM GAS  C:\Users\vct344\AppData\Local\Temp\ccePc7Ac.s 			page 27


 1148              		.loc 1 362 19
 1149 0032 3B7B     		ldrb	r3, [r7, #12]
 1150 0034 C3F30103 		ubfx	r3, r3, #0, #2
 1151 0038 DBB2     		uxtb	r3, r3
 1152              		.loc 1 362 29
 1153 003a 1B01     		lsls	r3, r3, #4
 1154              		.loc 1 362 42
 1155 003c 3A7C     		ldrb	r2, [r7, #16]
 1156 003e C2F30312 		ubfx	r2, r2, #4, #4
 1157 0042 D2B2     		uxtb	r2, r2
 1158              		.loc 1 362 35
 1159 0044 1344     		add	r3, r3, r2
 1160              		.loc 1 362 5
 1161 0046 322B     		cmp	r3, #50
 1162 0048 00F29A80 		bhi	.L78
 1163 004c 01A2     		adr	r2, .L80
 1164 004e 52F823F0 		ldr	pc, [r2, r3, lsl #2]
 1165 0052 00BF     		.p2align 2
 1166              	.L80:
 1167 0054 21010000 		.word	.L91+1
 1168 0058 29010000 		.word	.L90+1
 1169 005c 31010000 		.word	.L89+1
 1170 0060 39010000 		.word	.L88+1
 1171 0064 41010000 		.word	.L87+1
 1172 0068 49010000 		.word	.L86+1
 1173 006c 51010000 		.word	.L85+1
 1174 0070 59010000 		.word	.L84+1
 1175 0074 61010000 		.word	.L83+1
 1176 0078 69010000 		.word	.L82+1
 1177 007c 81010000 		.word	.L78+1
 1178 0080 81010000 		.word	.L78+1
 1179 0084 81010000 		.word	.L78+1
 1180 0088 81010000 		.word	.L78+1
 1181 008c 81010000 		.word	.L78+1
 1182 0090 81010000 		.word	.L78+1
 1183 0094 81010000 		.word	.L78+1
 1184 0098 81010000 		.word	.L78+1
 1185 009c 79010000 		.word	.L81+1
 1186 00a0 81010000 		.word	.L78+1
 1187 00a4 81010000 		.word	.L78+1
 1188 00a8 81010000 		.word	.L78+1
 1189 00ac 81010000 		.word	.L78+1
 1190 00b0 81010000 		.word	.L78+1
 1191 00b4 81010000 		.word	.L78+1
 1192 00b8 81010000 		.word	.L78+1
 1193 00bc 81010000 		.word	.L78+1
 1194 00c0 81010000 		.word	.L78+1
 1195 00c4 81010000 		.word	.L78+1
 1196 00c8 81010000 		.word	.L78+1
 1197 00cc 81010000 		.word	.L78+1
 1198 00d0 81010000 		.word	.L78+1
 1199 00d4 81010000 		.word	.L78+1
 1200 00d8 81010000 		.word	.L78+1
 1201 00dc 81010000 		.word	.L78+1
 1202 00e0 81010000 		.word	.L78+1
 1203 00e4 81010000 		.word	.L78+1
 1204 00e8 81010000 		.word	.L78+1
ARM GAS  C:\Users\vct344\AppData\Local\Temp\ccePc7Ac.s 			page 28


 1205 00ec 81010000 		.word	.L78+1
 1206 00f0 81010000 		.word	.L78+1
 1207 00f4 81010000 		.word	.L78+1
 1208 00f8 81010000 		.word	.L78+1
 1209 00fc 81010000 		.word	.L78+1
 1210 0100 81010000 		.word	.L78+1
 1211 0104 81010000 		.word	.L78+1
 1212 0108 81010000 		.word	.L78+1
 1213 010c 81010000 		.word	.L78+1
 1214 0110 81010000 		.word	.L78+1
 1215 0114 81010000 		.word	.L78+1
 1216 0118 81010000 		.word	.L78+1
 1217 011c 71010000 		.word	.L79+1
 1218              		.p2align 1
 1219              	.L91:
 363:Core/Src/lis2dw12_reg.c ****     {
 364:Core/Src/lis2dw12_reg.c ****       case LIS2DW12_XL_ODR_OFF:
 365:Core/Src/lis2dw12_reg.c ****         *val = LIS2DW12_XL_ODR_OFF;
 1220              		.loc 1 365 14
 1221 0120 3B68     		ldr	r3, [r7]
 1222 0122 0022     		movs	r2, #0
 1223 0124 1A70     		strb	r2, [r3]
 366:Core/Src/lis2dw12_reg.c ****         break;
 1224              		.loc 1 366 9
 1225 0126 2FE0     		b	.L77
 1226              	.L90:
 367:Core/Src/lis2dw12_reg.c **** 
 368:Core/Src/lis2dw12_reg.c ****       case LIS2DW12_XL_ODR_1Hz6_LP_ONLY:
 369:Core/Src/lis2dw12_reg.c ****         *val = LIS2DW12_XL_ODR_1Hz6_LP_ONLY;
 1227              		.loc 1 369 14
 1228 0128 3B68     		ldr	r3, [r7]
 1229 012a 0122     		movs	r2, #1
 1230 012c 1A70     		strb	r2, [r3]
 370:Core/Src/lis2dw12_reg.c ****         break;
 1231              		.loc 1 370 9
 1232 012e 2BE0     		b	.L77
 1233              	.L89:
 371:Core/Src/lis2dw12_reg.c **** 
 372:Core/Src/lis2dw12_reg.c ****       case LIS2DW12_XL_ODR_12Hz5:
 373:Core/Src/lis2dw12_reg.c ****         *val = LIS2DW12_XL_ODR_12Hz5;
 1234              		.loc 1 373 14
 1235 0130 3B68     		ldr	r3, [r7]
 1236 0132 0222     		movs	r2, #2
 1237 0134 1A70     		strb	r2, [r3]
 374:Core/Src/lis2dw12_reg.c ****         break;
 1238              		.loc 1 374 9
 1239 0136 27E0     		b	.L77
 1240              	.L88:
 375:Core/Src/lis2dw12_reg.c **** 
 376:Core/Src/lis2dw12_reg.c ****       case LIS2DW12_XL_ODR_25Hz:
 377:Core/Src/lis2dw12_reg.c ****         *val = LIS2DW12_XL_ODR_25Hz;
 1241              		.loc 1 377 14
 1242 0138 3B68     		ldr	r3, [r7]
 1243 013a 0322     		movs	r2, #3
 1244 013c 1A70     		strb	r2, [r3]
 378:Core/Src/lis2dw12_reg.c ****         break;
 1245              		.loc 1 378 9
ARM GAS  C:\Users\vct344\AppData\Local\Temp\ccePc7Ac.s 			page 29


 1246 013e 23E0     		b	.L77
 1247              	.L87:
 379:Core/Src/lis2dw12_reg.c **** 
 380:Core/Src/lis2dw12_reg.c ****       case LIS2DW12_XL_ODR_50Hz:
 381:Core/Src/lis2dw12_reg.c ****         *val = LIS2DW12_XL_ODR_50Hz;
 1248              		.loc 1 381 14
 1249 0140 3B68     		ldr	r3, [r7]
 1250 0142 0422     		movs	r2, #4
 1251 0144 1A70     		strb	r2, [r3]
 382:Core/Src/lis2dw12_reg.c ****         break;
 1252              		.loc 1 382 9
 1253 0146 1FE0     		b	.L77
 1254              	.L86:
 383:Core/Src/lis2dw12_reg.c **** 
 384:Core/Src/lis2dw12_reg.c ****       case LIS2DW12_XL_ODR_100Hz:
 385:Core/Src/lis2dw12_reg.c ****         *val = LIS2DW12_XL_ODR_100Hz;
 1255              		.loc 1 385 14
 1256 0148 3B68     		ldr	r3, [r7]
 1257 014a 0522     		movs	r2, #5
 1258 014c 1A70     		strb	r2, [r3]
 386:Core/Src/lis2dw12_reg.c ****         break;
 1259              		.loc 1 386 9
 1260 014e 1BE0     		b	.L77
 1261              	.L85:
 387:Core/Src/lis2dw12_reg.c **** 
 388:Core/Src/lis2dw12_reg.c ****       case LIS2DW12_XL_ODR_200Hz:
 389:Core/Src/lis2dw12_reg.c ****         *val = LIS2DW12_XL_ODR_200Hz;
 1262              		.loc 1 389 14
 1263 0150 3B68     		ldr	r3, [r7]
 1264 0152 0622     		movs	r2, #6
 1265 0154 1A70     		strb	r2, [r3]
 390:Core/Src/lis2dw12_reg.c ****         break;
 1266              		.loc 1 390 9
 1267 0156 17E0     		b	.L77
 1268              	.L84:
 391:Core/Src/lis2dw12_reg.c **** 
 392:Core/Src/lis2dw12_reg.c ****       case LIS2DW12_XL_ODR_400Hz:
 393:Core/Src/lis2dw12_reg.c ****         *val = LIS2DW12_XL_ODR_400Hz;
 1269              		.loc 1 393 14
 1270 0158 3B68     		ldr	r3, [r7]
 1271 015a 0722     		movs	r2, #7
 1272 015c 1A70     		strb	r2, [r3]
 394:Core/Src/lis2dw12_reg.c ****         break;
 1273              		.loc 1 394 9
 1274 015e 13E0     		b	.L77
 1275              	.L83:
 395:Core/Src/lis2dw12_reg.c **** 
 396:Core/Src/lis2dw12_reg.c ****       case LIS2DW12_XL_ODR_800Hz:
 397:Core/Src/lis2dw12_reg.c ****         *val = LIS2DW12_XL_ODR_800Hz;
 1276              		.loc 1 397 14
 1277 0160 3B68     		ldr	r3, [r7]
 1278 0162 0822     		movs	r2, #8
 1279 0164 1A70     		strb	r2, [r3]
 398:Core/Src/lis2dw12_reg.c ****         break;
 1280              		.loc 1 398 9
 1281 0166 0FE0     		b	.L77
 1282              	.L82:
ARM GAS  C:\Users\vct344\AppData\Local\Temp\ccePc7Ac.s 			page 30


 399:Core/Src/lis2dw12_reg.c **** 
 400:Core/Src/lis2dw12_reg.c ****       case LIS2DW12_XL_ODR_1k6Hz:
 401:Core/Src/lis2dw12_reg.c ****         *val = LIS2DW12_XL_ODR_1k6Hz;
 1283              		.loc 1 401 14
 1284 0168 3B68     		ldr	r3, [r7]
 1285 016a 0922     		movs	r2, #9
 1286 016c 1A70     		strb	r2, [r3]
 402:Core/Src/lis2dw12_reg.c ****         break;
 1287              		.loc 1 402 9
 1288 016e 0BE0     		b	.L77
 1289              	.L79:
 403:Core/Src/lis2dw12_reg.c **** 
 404:Core/Src/lis2dw12_reg.c ****       case LIS2DW12_XL_SET_SW_TRIG:
 405:Core/Src/lis2dw12_reg.c ****         *val = LIS2DW12_XL_SET_SW_TRIG;
 1290              		.loc 1 405 14
 1291 0170 3B68     		ldr	r3, [r7]
 1292 0172 3222     		movs	r2, #50
 1293 0174 1A70     		strb	r2, [r3]
 406:Core/Src/lis2dw12_reg.c ****         break;
 1294              		.loc 1 406 9
 1295 0176 07E0     		b	.L77
 1296              	.L81:
 407:Core/Src/lis2dw12_reg.c **** 
 408:Core/Src/lis2dw12_reg.c ****       case LIS2DW12_XL_SET_PIN_TRIG:
 409:Core/Src/lis2dw12_reg.c ****         *val = LIS2DW12_XL_SET_PIN_TRIG;
 1297              		.loc 1 409 14
 1298 0178 3B68     		ldr	r3, [r7]
 1299 017a 1222     		movs	r2, #18
 1300 017c 1A70     		strb	r2, [r3]
 410:Core/Src/lis2dw12_reg.c ****         break;
 1301              		.loc 1 410 9
 1302 017e 03E0     		b	.L77
 1303              	.L78:
 411:Core/Src/lis2dw12_reg.c **** 
 412:Core/Src/lis2dw12_reg.c ****       default:
 413:Core/Src/lis2dw12_reg.c ****         *val = LIS2DW12_XL_ODR_OFF;
 1304              		.loc 1 413 14
 1305 0180 3B68     		ldr	r3, [r7]
 1306 0182 0022     		movs	r2, #0
 1307 0184 1A70     		strb	r2, [r3]
 414:Core/Src/lis2dw12_reg.c ****         break;
 1308              		.loc 1 414 9
 1309 0186 00BF     		nop
 1310              	.L77:
 415:Core/Src/lis2dw12_reg.c ****     }
 416:Core/Src/lis2dw12_reg.c ****   }
 417:Core/Src/lis2dw12_reg.c **** 
 418:Core/Src/lis2dw12_reg.c ****   return ret;
 1311              		.loc 1 418 10
 1312 0188 7B69     		ldr	r3, [r7, #20]
 419:Core/Src/lis2dw12_reg.c **** }
 1313              		.loc 1 419 1
 1314 018a 1846     		mov	r0, r3
 1315 018c 1837     		adds	r7, r7, #24
 1316              	.LCFI73:
 1317              		.cfi_def_cfa_offset 8
 1318 018e BD46     		mov	sp, r7
ARM GAS  C:\Users\vct344\AppData\Local\Temp\ccePc7Ac.s 			page 31


 1319              	.LCFI74:
 1320              		.cfi_def_cfa_register 13
 1321              		@ sp needed
 1322 0190 80BD     		pop	{r7, pc}
 1323              		.cfi_endproc
 1324              	.LFE14:
 1326 0192 00BF     		.section	.text.lis2dw12_block_data_update_set,"ax",%progbits
 1327              		.align	1
 1328              		.global	lis2dw12_block_data_update_set
 1329              		.syntax unified
 1330              		.thumb
 1331              		.thumb_func
 1333              	lis2dw12_block_data_update_set:
 1334              	.LFB15:
 420:Core/Src/lis2dw12_reg.c **** 
 421:Core/Src/lis2dw12_reg.c **** /**
 422:Core/Src/lis2dw12_reg.c ****   * @brief  Block data update.[set]
 423:Core/Src/lis2dw12_reg.c ****   *
 424:Core/Src/lis2dw12_reg.c ****   * @param  ctx      read / write interface definitions
 425:Core/Src/lis2dw12_reg.c ****   * @param  val      change the values of bdu in reg CTRL2
 426:Core/Src/lis2dw12_reg.c ****   * @retval          interface status (MANDATORY: return 0 -> no Error)
 427:Core/Src/lis2dw12_reg.c ****   *
 428:Core/Src/lis2dw12_reg.c ****   */
 429:Core/Src/lis2dw12_reg.c **** int32_t lis2dw12_block_data_update_set(const stmdev_ctx_t *ctx, uint8_t val)
 430:Core/Src/lis2dw12_reg.c **** {
 1335              		.loc 1 430 1
 1336              		.cfi_startproc
 1337              		@ args = 0, pretend = 0, frame = 16
 1338              		@ frame_needed = 1, uses_anonymous_args = 0
 1339 0000 80B5     		push	{r7, lr}
 1340              	.LCFI75:
 1341              		.cfi_def_cfa_offset 8
 1342              		.cfi_offset 7, -8
 1343              		.cfi_offset 14, -4
 1344 0002 84B0     		sub	sp, sp, #16
 1345              	.LCFI76:
 1346              		.cfi_def_cfa_offset 24
 1347 0004 00AF     		add	r7, sp, #0
 1348              	.LCFI77:
 1349              		.cfi_def_cfa_register 7
 1350 0006 7860     		str	r0, [r7, #4]
 1351 0008 0B46     		mov	r3, r1
 1352 000a FB70     		strb	r3, [r7, #3]
 431:Core/Src/lis2dw12_reg.c ****   lis2dw12_ctrl2_t reg;
 432:Core/Src/lis2dw12_reg.c ****   int32_t ret;
 433:Core/Src/lis2dw12_reg.c **** 
 434:Core/Src/lis2dw12_reg.c ****   ret = lis2dw12_read_reg(ctx, LIS2DW12_CTRL2, (uint8_t *) &reg, 1);
 1353              		.loc 1 434 9
 1354 000c 07F10802 		add	r2, r7, #8
 1355 0010 0123     		movs	r3, #1
 1356 0012 2121     		movs	r1, #33
 1357 0014 7868     		ldr	r0, [r7, #4]
 1358 0016 FFF7FEFF 		bl	lis2dw12_read_reg
 1359 001a F860     		str	r0, [r7, #12]
 435:Core/Src/lis2dw12_reg.c **** 
 436:Core/Src/lis2dw12_reg.c ****   if (ret == 0)
 1360              		.loc 1 436 6
ARM GAS  C:\Users\vct344\AppData\Local\Temp\ccePc7Ac.s 			page 32


 1361 001c FB68     		ldr	r3, [r7, #12]
 1362 001e 002B     		cmp	r3, #0
 1363 0020 0FD1     		bne	.L94
 437:Core/Src/lis2dw12_reg.c ****   {
 438:Core/Src/lis2dw12_reg.c ****     reg.bdu = val;
 1364              		.loc 1 438 13
 1365 0022 FB78     		ldrb	r3, [r7, #3]
 1366 0024 03F00103 		and	r3, r3, #1
 1367 0028 DAB2     		uxtb	r2, r3
 1368 002a 3B7A     		ldrb	r3, [r7, #8]
 1369 002c 62F3C303 		bfi	r3, r2, #3, #1
 1370 0030 3B72     		strb	r3, [r7, #8]
 439:Core/Src/lis2dw12_reg.c ****     ret = lis2dw12_write_reg(ctx, LIS2DW12_CTRL2, (uint8_t *) &reg, 1);
 1371              		.loc 1 439 11
 1372 0032 07F10802 		add	r2, r7, #8
 1373 0036 0123     		movs	r3, #1
 1374 0038 2121     		movs	r1, #33
 1375 003a 7868     		ldr	r0, [r7, #4]
 1376 003c FFF7FEFF 		bl	lis2dw12_write_reg
 1377 0040 F860     		str	r0, [r7, #12]
 1378              	.L94:
 440:Core/Src/lis2dw12_reg.c ****   }
 441:Core/Src/lis2dw12_reg.c **** 
 442:Core/Src/lis2dw12_reg.c ****   return ret;
 1379              		.loc 1 442 10
 1380 0042 FB68     		ldr	r3, [r7, #12]
 443:Core/Src/lis2dw12_reg.c **** }
 1381              		.loc 1 443 1
 1382 0044 1846     		mov	r0, r3
 1383 0046 1037     		adds	r7, r7, #16
 1384              	.LCFI78:
 1385              		.cfi_def_cfa_offset 8
 1386 0048 BD46     		mov	sp, r7
 1387              	.LCFI79:
 1388              		.cfi_def_cfa_register 13
 1389              		@ sp needed
 1390 004a 80BD     		pop	{r7, pc}
 1391              		.cfi_endproc
 1392              	.LFE15:
 1394              		.section	.text.lis2dw12_block_data_update_get,"ax",%progbits
 1395              		.align	1
 1396              		.global	lis2dw12_block_data_update_get
 1397              		.syntax unified
 1398              		.thumb
 1399              		.thumb_func
 1401              	lis2dw12_block_data_update_get:
 1402              	.LFB16:
 444:Core/Src/lis2dw12_reg.c **** 
 445:Core/Src/lis2dw12_reg.c **** /**
 446:Core/Src/lis2dw12_reg.c ****   * @brief  Block data update.[get]
 447:Core/Src/lis2dw12_reg.c ****   *
 448:Core/Src/lis2dw12_reg.c ****   * @param  ctx      read / write interface definitions
 449:Core/Src/lis2dw12_reg.c ****   * @param  val      change the values of bdu in reg CTRL2
 450:Core/Src/lis2dw12_reg.c ****   * @retval          interface status (MANDATORY: return 0 -> no Error)
 451:Core/Src/lis2dw12_reg.c ****   *
 452:Core/Src/lis2dw12_reg.c ****   */
 453:Core/Src/lis2dw12_reg.c **** int32_t lis2dw12_block_data_update_get(const stmdev_ctx_t *ctx,
ARM GAS  C:\Users\vct344\AppData\Local\Temp\ccePc7Ac.s 			page 33


 454:Core/Src/lis2dw12_reg.c ****                                        uint8_t *val)
 455:Core/Src/lis2dw12_reg.c **** {
 1403              		.loc 1 455 1
 1404              		.cfi_startproc
 1405              		@ args = 0, pretend = 0, frame = 16
 1406              		@ frame_needed = 1, uses_anonymous_args = 0
 1407 0000 80B5     		push	{r7, lr}
 1408              	.LCFI80:
 1409              		.cfi_def_cfa_offset 8
 1410              		.cfi_offset 7, -8
 1411              		.cfi_offset 14, -4
 1412 0002 84B0     		sub	sp, sp, #16
 1413              	.LCFI81:
 1414              		.cfi_def_cfa_offset 24
 1415 0004 00AF     		add	r7, sp, #0
 1416              	.LCFI82:
 1417              		.cfi_def_cfa_register 7
 1418 0006 7860     		str	r0, [r7, #4]
 1419 0008 3960     		str	r1, [r7]
 456:Core/Src/lis2dw12_reg.c ****   lis2dw12_ctrl2_t reg;
 457:Core/Src/lis2dw12_reg.c ****   int32_t ret;
 458:Core/Src/lis2dw12_reg.c **** 
 459:Core/Src/lis2dw12_reg.c ****   ret = lis2dw12_read_reg(ctx, LIS2DW12_CTRL2, (uint8_t *) &reg, 1);
 1420              		.loc 1 459 9
 1421 000a 07F10802 		add	r2, r7, #8
 1422 000e 0123     		movs	r3, #1
 1423 0010 2121     		movs	r1, #33
 1424 0012 7868     		ldr	r0, [r7, #4]
 1425 0014 FFF7FEFF 		bl	lis2dw12_read_reg
 1426 0018 F860     		str	r0, [r7, #12]
 460:Core/Src/lis2dw12_reg.c ****   *val = reg.bdu;
 1427              		.loc 1 460 13
 1428 001a 3B7A     		ldrb	r3, [r7, #8]
 1429 001c C3F3C003 		ubfx	r3, r3, #3, #1
 1430 0020 DBB2     		uxtb	r3, r3
 1431 0022 1A46     		mov	r2, r3
 1432              		.loc 1 460 8
 1433 0024 3B68     		ldr	r3, [r7]
 1434 0026 1A70     		strb	r2, [r3]
 461:Core/Src/lis2dw12_reg.c **** 
 462:Core/Src/lis2dw12_reg.c ****   return ret;
 1435              		.loc 1 462 10
 1436 0028 FB68     		ldr	r3, [r7, #12]
 463:Core/Src/lis2dw12_reg.c **** }
 1437              		.loc 1 463 1
 1438 002a 1846     		mov	r0, r3
 1439 002c 1037     		adds	r7, r7, #16
 1440              	.LCFI83:
 1441              		.cfi_def_cfa_offset 8
 1442 002e BD46     		mov	sp, r7
 1443              	.LCFI84:
 1444              		.cfi_def_cfa_register 13
 1445              		@ sp needed
 1446 0030 80BD     		pop	{r7, pc}
 1447              		.cfi_endproc
 1448              	.LFE16:
 1450              		.section	.text.lis2dw12_full_scale_set,"ax",%progbits
ARM GAS  C:\Users\vct344\AppData\Local\Temp\ccePc7Ac.s 			page 34


 1451              		.align	1
 1452              		.global	lis2dw12_full_scale_set
 1453              		.syntax unified
 1454              		.thumb
 1455              		.thumb_func
 1457              	lis2dw12_full_scale_set:
 1458              	.LFB17:
 464:Core/Src/lis2dw12_reg.c **** 
 465:Core/Src/lis2dw12_reg.c **** /**
 466:Core/Src/lis2dw12_reg.c ****   * @brief  Accelerometer full-scale selection.[set]
 467:Core/Src/lis2dw12_reg.c ****   *
 468:Core/Src/lis2dw12_reg.c ****   * @param  ctx      read / write interface definitions
 469:Core/Src/lis2dw12_reg.c ****   * @param  val      change the values of fs in reg CTRL6
 470:Core/Src/lis2dw12_reg.c ****   * @retval          interface status (MANDATORY: return 0 -> no Error)
 471:Core/Src/lis2dw12_reg.c ****   *
 472:Core/Src/lis2dw12_reg.c ****   */
 473:Core/Src/lis2dw12_reg.c **** int32_t lis2dw12_full_scale_set(const stmdev_ctx_t *ctx, lis2dw12_fs_t val)
 474:Core/Src/lis2dw12_reg.c **** {
 1459              		.loc 1 474 1
 1460              		.cfi_startproc
 1461              		@ args = 0, pretend = 0, frame = 16
 1462              		@ frame_needed = 1, uses_anonymous_args = 0
 1463 0000 80B5     		push	{r7, lr}
 1464              	.LCFI85:
 1465              		.cfi_def_cfa_offset 8
 1466              		.cfi_offset 7, -8
 1467              		.cfi_offset 14, -4
 1468 0002 84B0     		sub	sp, sp, #16
 1469              	.LCFI86:
 1470              		.cfi_def_cfa_offset 24
 1471 0004 00AF     		add	r7, sp, #0
 1472              	.LCFI87:
 1473              		.cfi_def_cfa_register 7
 1474 0006 7860     		str	r0, [r7, #4]
 1475 0008 0B46     		mov	r3, r1
 1476 000a FB70     		strb	r3, [r7, #3]
 475:Core/Src/lis2dw12_reg.c ****   lis2dw12_ctrl6_t reg;
 476:Core/Src/lis2dw12_reg.c ****   int32_t ret;
 477:Core/Src/lis2dw12_reg.c **** 
 478:Core/Src/lis2dw12_reg.c ****   ret = lis2dw12_read_reg(ctx, LIS2DW12_CTRL6, (uint8_t *) &reg, 1);
 1477              		.loc 1 478 9
 1478 000c 07F10802 		add	r2, r7, #8
 1479 0010 0123     		movs	r3, #1
 1480 0012 2521     		movs	r1, #37
 1481 0014 7868     		ldr	r0, [r7, #4]
 1482 0016 FFF7FEFF 		bl	lis2dw12_read_reg
 1483 001a F860     		str	r0, [r7, #12]
 479:Core/Src/lis2dw12_reg.c **** 
 480:Core/Src/lis2dw12_reg.c ****   if (ret == 0)
 1484              		.loc 1 480 6
 1485 001c FB68     		ldr	r3, [r7, #12]
 1486 001e 002B     		cmp	r3, #0
 1487 0020 0FD1     		bne	.L99
 481:Core/Src/lis2dw12_reg.c ****   {
 482:Core/Src/lis2dw12_reg.c ****     reg.fs = (uint8_t) val;
 1488              		.loc 1 482 14
 1489 0022 FB78     		ldrb	r3, [r7, #3]
ARM GAS  C:\Users\vct344\AppData\Local\Temp\ccePc7Ac.s 			page 35


 1490 0024 03F00303 		and	r3, r3, #3
 1491 0028 DAB2     		uxtb	r2, r3
 1492              		.loc 1 482 12
 1493 002a 3B7A     		ldrb	r3, [r7, #8]
 1494 002c 62F30513 		bfi	r3, r2, #4, #2
 1495 0030 3B72     		strb	r3, [r7, #8]
 483:Core/Src/lis2dw12_reg.c ****     ret = lis2dw12_write_reg(ctx, LIS2DW12_CTRL6, (uint8_t *) &reg, 1);
 1496              		.loc 1 483 11
 1497 0032 07F10802 		add	r2, r7, #8
 1498 0036 0123     		movs	r3, #1
 1499 0038 2521     		movs	r1, #37
 1500 003a 7868     		ldr	r0, [r7, #4]
 1501 003c FFF7FEFF 		bl	lis2dw12_write_reg
 1502 0040 F860     		str	r0, [r7, #12]
 1503              	.L99:
 484:Core/Src/lis2dw12_reg.c ****   }
 485:Core/Src/lis2dw12_reg.c **** 
 486:Core/Src/lis2dw12_reg.c ****   return ret;
 1504              		.loc 1 486 10
 1505 0042 FB68     		ldr	r3, [r7, #12]
 487:Core/Src/lis2dw12_reg.c **** }
 1506              		.loc 1 487 1
 1507 0044 1846     		mov	r0, r3
 1508 0046 1037     		adds	r7, r7, #16
 1509              	.LCFI88:
 1510              		.cfi_def_cfa_offset 8
 1511 0048 BD46     		mov	sp, r7
 1512              	.LCFI89:
 1513              		.cfi_def_cfa_register 13
 1514              		@ sp needed
 1515 004a 80BD     		pop	{r7, pc}
 1516              		.cfi_endproc
 1517              	.LFE17:
 1519              		.section	.text.lis2dw12_full_scale_get,"ax",%progbits
 1520              		.align	1
 1521              		.global	lis2dw12_full_scale_get
 1522              		.syntax unified
 1523              		.thumb
 1524              		.thumb_func
 1526              	lis2dw12_full_scale_get:
 1527              	.LFB18:
 488:Core/Src/lis2dw12_reg.c **** 
 489:Core/Src/lis2dw12_reg.c **** /**
 490:Core/Src/lis2dw12_reg.c ****   * @brief  Accelerometer full-scale selection.[get]
 491:Core/Src/lis2dw12_reg.c ****   *
 492:Core/Src/lis2dw12_reg.c ****   * @param  ctx      read / write interface definitions
 493:Core/Src/lis2dw12_reg.c ****   * @param  val      Get the values of fs in reg CTRL6
 494:Core/Src/lis2dw12_reg.c ****   * @retval          interface status (MANDATORY: return 0 -> no Error)
 495:Core/Src/lis2dw12_reg.c ****   *
 496:Core/Src/lis2dw12_reg.c ****   */
 497:Core/Src/lis2dw12_reg.c **** int32_t lis2dw12_full_scale_get(const stmdev_ctx_t *ctx, lis2dw12_fs_t *val)
 498:Core/Src/lis2dw12_reg.c **** {
 1528              		.loc 1 498 1
 1529              		.cfi_startproc
 1530              		@ args = 0, pretend = 0, frame = 16
 1531              		@ frame_needed = 1, uses_anonymous_args = 0
 1532 0000 80B5     		push	{r7, lr}
ARM GAS  C:\Users\vct344\AppData\Local\Temp\ccePc7Ac.s 			page 36


 1533              	.LCFI90:
 1534              		.cfi_def_cfa_offset 8
 1535              		.cfi_offset 7, -8
 1536              		.cfi_offset 14, -4
 1537 0002 84B0     		sub	sp, sp, #16
 1538              	.LCFI91:
 1539              		.cfi_def_cfa_offset 24
 1540 0004 00AF     		add	r7, sp, #0
 1541              	.LCFI92:
 1542              		.cfi_def_cfa_register 7
 1543 0006 7860     		str	r0, [r7, #4]
 1544 0008 3960     		str	r1, [r7]
 499:Core/Src/lis2dw12_reg.c ****   lis2dw12_ctrl6_t reg;
 500:Core/Src/lis2dw12_reg.c ****   int32_t ret;
 501:Core/Src/lis2dw12_reg.c **** 
 502:Core/Src/lis2dw12_reg.c ****   ret = lis2dw12_read_reg(ctx, LIS2DW12_CTRL6, (uint8_t *) &reg, 1);
 1545              		.loc 1 502 9
 1546 000a 07F10802 		add	r2, r7, #8
 1547 000e 0123     		movs	r3, #1
 1548 0010 2521     		movs	r1, #37
 1549 0012 7868     		ldr	r0, [r7, #4]
 1550 0014 FFF7FEFF 		bl	lis2dw12_read_reg
 1551 0018 F860     		str	r0, [r7, #12]
 503:Core/Src/lis2dw12_reg.c **** 
 504:Core/Src/lis2dw12_reg.c ****   switch (reg.fs)
 1552              		.loc 1 504 14
 1553 001a 3B7A     		ldrb	r3, [r7, #8]
 1554 001c C3F30113 		ubfx	r3, r3, #4, #2
 1555 0020 DBB2     		uxtb	r3, r3
 1556              		.loc 1 504 3
 1557 0022 032B     		cmp	r3, #3
 1558 0024 1AD8     		bhi	.L102
 1559 0026 01A2     		adr	r2, .L104
 1560 0028 52F823F0 		ldr	pc, [r2, r3, lsl #2]
 1561              		.p2align 2
 1562              	.L104:
 1563 002c 3D000000 		.word	.L107+1
 1564 0030 45000000 		.word	.L106+1
 1565 0034 4D000000 		.word	.L105+1
 1566 0038 55000000 		.word	.L103+1
 1567              		.p2align 1
 1568              	.L107:
 505:Core/Src/lis2dw12_reg.c ****   {
 506:Core/Src/lis2dw12_reg.c ****     case LIS2DW12_2g:
 507:Core/Src/lis2dw12_reg.c ****       *val = LIS2DW12_2g;
 1569              		.loc 1 507 12
 1570 003c 3B68     		ldr	r3, [r7]
 1571 003e 0022     		movs	r2, #0
 1572 0040 1A70     		strb	r2, [r3]
 508:Core/Src/lis2dw12_reg.c ****       break;
 1573              		.loc 1 508 7
 1574 0042 0FE0     		b	.L108
 1575              	.L106:
 509:Core/Src/lis2dw12_reg.c **** 
 510:Core/Src/lis2dw12_reg.c ****     case LIS2DW12_4g:
 511:Core/Src/lis2dw12_reg.c ****       *val = LIS2DW12_4g;
 1576              		.loc 1 511 12
ARM GAS  C:\Users\vct344\AppData\Local\Temp\ccePc7Ac.s 			page 37


 1577 0044 3B68     		ldr	r3, [r7]
 1578 0046 0122     		movs	r2, #1
 1579 0048 1A70     		strb	r2, [r3]
 512:Core/Src/lis2dw12_reg.c ****       break;
 1580              		.loc 1 512 7
 1581 004a 0BE0     		b	.L108
 1582              	.L105:
 513:Core/Src/lis2dw12_reg.c **** 
 514:Core/Src/lis2dw12_reg.c ****     case LIS2DW12_8g:
 515:Core/Src/lis2dw12_reg.c ****       *val = LIS2DW12_8g;
 1583              		.loc 1 515 12
 1584 004c 3B68     		ldr	r3, [r7]
 1585 004e 0222     		movs	r2, #2
 1586 0050 1A70     		strb	r2, [r3]
 516:Core/Src/lis2dw12_reg.c ****       break;
 1587              		.loc 1 516 7
 1588 0052 07E0     		b	.L108
 1589              	.L103:
 517:Core/Src/lis2dw12_reg.c **** 
 518:Core/Src/lis2dw12_reg.c ****     case LIS2DW12_16g:
 519:Core/Src/lis2dw12_reg.c ****       *val = LIS2DW12_16g;
 1590              		.loc 1 519 12
 1591 0054 3B68     		ldr	r3, [r7]
 1592 0056 0322     		movs	r2, #3
 1593 0058 1A70     		strb	r2, [r3]
 520:Core/Src/lis2dw12_reg.c ****       break;
 1594              		.loc 1 520 7
 1595 005a 03E0     		b	.L108
 1596              	.L102:
 521:Core/Src/lis2dw12_reg.c **** 
 522:Core/Src/lis2dw12_reg.c ****     default:
 523:Core/Src/lis2dw12_reg.c ****       *val = LIS2DW12_2g;
 1597              		.loc 1 523 12
 1598 005c 3B68     		ldr	r3, [r7]
 1599 005e 0022     		movs	r2, #0
 1600 0060 1A70     		strb	r2, [r3]
 524:Core/Src/lis2dw12_reg.c ****       break;
 1601              		.loc 1 524 7
 1602 0062 00BF     		nop
 1603              	.L108:
 525:Core/Src/lis2dw12_reg.c ****   }
 526:Core/Src/lis2dw12_reg.c **** 
 527:Core/Src/lis2dw12_reg.c ****   return ret;
 1604              		.loc 1 527 10
 1605 0064 FB68     		ldr	r3, [r7, #12]
 528:Core/Src/lis2dw12_reg.c **** }
 1606              		.loc 1 528 1
 1607 0066 1846     		mov	r0, r3
 1608 0068 1037     		adds	r7, r7, #16
 1609              	.LCFI93:
 1610              		.cfi_def_cfa_offset 8
 1611 006a BD46     		mov	sp, r7
 1612              	.LCFI94:
 1613              		.cfi_def_cfa_register 13
 1614              		@ sp needed
 1615 006c 80BD     		pop	{r7, pc}
 1616              		.cfi_endproc
ARM GAS  C:\Users\vct344\AppData\Local\Temp\ccePc7Ac.s 			page 38


 1617              	.LFE18:
 1619 006e 00BF     		.section	.text.lis2dw12_status_reg_get,"ax",%progbits
 1620              		.align	1
 1621              		.global	lis2dw12_status_reg_get
 1622              		.syntax unified
 1623              		.thumb
 1624              		.thumb_func
 1626              	lis2dw12_status_reg_get:
 1627              	.LFB19:
 529:Core/Src/lis2dw12_reg.c **** 
 530:Core/Src/lis2dw12_reg.c **** /**
 531:Core/Src/lis2dw12_reg.c ****   * @brief  The STATUS_REG register of the device.[get]
 532:Core/Src/lis2dw12_reg.c ****   *
 533:Core/Src/lis2dw12_reg.c ****   * @param  ctx      read / write interface definitions
 534:Core/Src/lis2dw12_reg.c ****   * @param  val      union of registers from STATUS to
 535:Core/Src/lis2dw12_reg.c ****   * @retval          interface status (MANDATORY: return 0 -> no Error)
 536:Core/Src/lis2dw12_reg.c ****   *
 537:Core/Src/lis2dw12_reg.c ****   */
 538:Core/Src/lis2dw12_reg.c **** int32_t lis2dw12_status_reg_get(const stmdev_ctx_t *ctx,
 539:Core/Src/lis2dw12_reg.c ****                                 lis2dw12_status_t *val)
 540:Core/Src/lis2dw12_reg.c **** {
 1628              		.loc 1 540 1
 1629              		.cfi_startproc
 1630              		@ args = 0, pretend = 0, frame = 16
 1631              		@ frame_needed = 1, uses_anonymous_args = 0
 1632 0000 80B5     		push	{r7, lr}
 1633              	.LCFI95:
 1634              		.cfi_def_cfa_offset 8
 1635              		.cfi_offset 7, -8
 1636              		.cfi_offset 14, -4
 1637 0002 84B0     		sub	sp, sp, #16
 1638              	.LCFI96:
 1639              		.cfi_def_cfa_offset 24
 1640 0004 00AF     		add	r7, sp, #0
 1641              	.LCFI97:
 1642              		.cfi_def_cfa_register 7
 1643 0006 7860     		str	r0, [r7, #4]
 1644 0008 3960     		str	r1, [r7]
 541:Core/Src/lis2dw12_reg.c ****   int32_t ret;
 542:Core/Src/lis2dw12_reg.c **** 
 543:Core/Src/lis2dw12_reg.c ****   ret = lis2dw12_read_reg(ctx, LIS2DW12_STATUS, (uint8_t *) val, 1);
 1645              		.loc 1 543 9
 1646 000a 0123     		movs	r3, #1
 1647 000c 3A68     		ldr	r2, [r7]
 1648 000e 2721     		movs	r1, #39
 1649 0010 7868     		ldr	r0, [r7, #4]
 1650 0012 FFF7FEFF 		bl	lis2dw12_read_reg
 1651 0016 F860     		str	r0, [r7, #12]
 544:Core/Src/lis2dw12_reg.c **** 
 545:Core/Src/lis2dw12_reg.c ****   return ret;
 1652              		.loc 1 545 10
 1653 0018 FB68     		ldr	r3, [r7, #12]
 546:Core/Src/lis2dw12_reg.c **** }
 1654              		.loc 1 546 1
 1655 001a 1846     		mov	r0, r3
 1656 001c 1037     		adds	r7, r7, #16
 1657              	.LCFI98:
ARM GAS  C:\Users\vct344\AppData\Local\Temp\ccePc7Ac.s 			page 39


 1658              		.cfi_def_cfa_offset 8
 1659 001e BD46     		mov	sp, r7
 1660              	.LCFI99:
 1661              		.cfi_def_cfa_register 13
 1662              		@ sp needed
 1663 0020 80BD     		pop	{r7, pc}
 1664              		.cfi_endproc
 1665              	.LFE19:
 1667              		.section	.text.lis2dw12_flag_data_ready_get,"ax",%progbits
 1668              		.align	1
 1669              		.global	lis2dw12_flag_data_ready_get
 1670              		.syntax unified
 1671              		.thumb
 1672              		.thumb_func
 1674              	lis2dw12_flag_data_ready_get:
 1675              	.LFB20:
 547:Core/Src/lis2dw12_reg.c **** 
 548:Core/Src/lis2dw12_reg.c **** /**
 549:Core/Src/lis2dw12_reg.c ****   * @brief  Accelerometer new data available.[get]
 550:Core/Src/lis2dw12_reg.c ****   *
 551:Core/Src/lis2dw12_reg.c ****   * @param  ctx      read / write interface definitions
 552:Core/Src/lis2dw12_reg.c ****   * @param  val      change the values of drdy in reg STATUS
 553:Core/Src/lis2dw12_reg.c ****   * @retval          interface status (MANDATORY: return 0 -> no Error)
 554:Core/Src/lis2dw12_reg.c ****   *
 555:Core/Src/lis2dw12_reg.c ****   */
 556:Core/Src/lis2dw12_reg.c **** int32_t lis2dw12_flag_data_ready_get(const stmdev_ctx_t *ctx, uint8_t *val)
 557:Core/Src/lis2dw12_reg.c **** {
 1676              		.loc 1 557 1
 1677              		.cfi_startproc
 1678              		@ args = 0, pretend = 0, frame = 16
 1679              		@ frame_needed = 1, uses_anonymous_args = 0
 1680 0000 80B5     		push	{r7, lr}
 1681              	.LCFI100:
 1682              		.cfi_def_cfa_offset 8
 1683              		.cfi_offset 7, -8
 1684              		.cfi_offset 14, -4
 1685 0002 84B0     		sub	sp, sp, #16
 1686              	.LCFI101:
 1687              		.cfi_def_cfa_offset 24
 1688 0004 00AF     		add	r7, sp, #0
 1689              	.LCFI102:
 1690              		.cfi_def_cfa_register 7
 1691 0006 7860     		str	r0, [r7, #4]
 1692 0008 3960     		str	r1, [r7]
 558:Core/Src/lis2dw12_reg.c ****   lis2dw12_status_t reg;
 559:Core/Src/lis2dw12_reg.c ****   int32_t ret;
 560:Core/Src/lis2dw12_reg.c **** 
 561:Core/Src/lis2dw12_reg.c ****   ret = lis2dw12_read_reg(ctx, LIS2DW12_STATUS, (uint8_t *) &reg, 1);
 1693              		.loc 1 561 9
 1694 000a 07F10802 		add	r2, r7, #8
 1695 000e 0123     		movs	r3, #1
 1696 0010 2721     		movs	r1, #39
 1697 0012 7868     		ldr	r0, [r7, #4]
 1698 0014 FFF7FEFF 		bl	lis2dw12_read_reg
 1699 0018 F860     		str	r0, [r7, #12]
 562:Core/Src/lis2dw12_reg.c ****   *val = reg.drdy;
 1700              		.loc 1 562 13
ARM GAS  C:\Users\vct344\AppData\Local\Temp\ccePc7Ac.s 			page 40


 1701 001a 3B7A     		ldrb	r3, [r7, #8]
 1702 001c C3F30003 		ubfx	r3, r3, #0, #1
 1703 0020 DBB2     		uxtb	r3, r3
 1704 0022 1A46     		mov	r2, r3
 1705              		.loc 1 562 8
 1706 0024 3B68     		ldr	r3, [r7]
 1707 0026 1A70     		strb	r2, [r3]
 563:Core/Src/lis2dw12_reg.c **** 
 564:Core/Src/lis2dw12_reg.c ****   return ret;
 1708              		.loc 1 564 10
 1709 0028 FB68     		ldr	r3, [r7, #12]
 565:Core/Src/lis2dw12_reg.c **** }
 1710              		.loc 1 565 1
 1711 002a 1846     		mov	r0, r3
 1712 002c 1037     		adds	r7, r7, #16
 1713              	.LCFI103:
 1714              		.cfi_def_cfa_offset 8
 1715 002e BD46     		mov	sp, r7
 1716              	.LCFI104:
 1717              		.cfi_def_cfa_register 13
 1718              		@ sp needed
 1719 0030 80BD     		pop	{r7, pc}
 1720              		.cfi_endproc
 1721              	.LFE20:
 1723              		.section	.text.lis2dw12_all_sources_get,"ax",%progbits
 1724              		.align	1
 1725              		.global	lis2dw12_all_sources_get
 1726              		.syntax unified
 1727              		.thumb
 1728              		.thumb_func
 1730              	lis2dw12_all_sources_get:
 1731              	.LFB21:
 566:Core/Src/lis2dw12_reg.c **** /**
 567:Core/Src/lis2dw12_reg.c ****   * @brief   Read all the interrupt/status flag of the device.[get]
 568:Core/Src/lis2dw12_reg.c ****   *
 569:Core/Src/lis2dw12_reg.c ****   * @param  ctx      read / write interface definitions
 570:Core/Src/lis2dw12_reg.c ****   * @param  val      registers STATUS_DUP, WAKE_UP_SRC,
 571:Core/Src/lis2dw12_reg.c ****   *                  TAP_SRC, SIXD_SRC, ALL_INT_SRC
 572:Core/Src/lis2dw12_reg.c ****   * @retval          interface status (MANDATORY: return 0 -> no Error)
 573:Core/Src/lis2dw12_reg.c ****   *
 574:Core/Src/lis2dw12_reg.c ****   */
 575:Core/Src/lis2dw12_reg.c **** int32_t lis2dw12_all_sources_get(const stmdev_ctx_t *ctx,
 576:Core/Src/lis2dw12_reg.c ****                                  lis2dw12_all_sources_t *val)
 577:Core/Src/lis2dw12_reg.c **** {
 1732              		.loc 1 577 1
 1733              		.cfi_startproc
 1734              		@ args = 0, pretend = 0, frame = 16
 1735              		@ frame_needed = 1, uses_anonymous_args = 0
 1736 0000 80B5     		push	{r7, lr}
 1737              	.LCFI105:
 1738              		.cfi_def_cfa_offset 8
 1739              		.cfi_offset 7, -8
 1740              		.cfi_offset 14, -4
 1741 0002 84B0     		sub	sp, sp, #16
 1742              	.LCFI106:
 1743              		.cfi_def_cfa_offset 24
 1744 0004 00AF     		add	r7, sp, #0
ARM GAS  C:\Users\vct344\AppData\Local\Temp\ccePc7Ac.s 			page 41


 1745              	.LCFI107:
 1746              		.cfi_def_cfa_register 7
 1747 0006 7860     		str	r0, [r7, #4]
 1748 0008 3960     		str	r1, [r7]
 578:Core/Src/lis2dw12_reg.c ****   int32_t ret;
 579:Core/Src/lis2dw12_reg.c **** 
 580:Core/Src/lis2dw12_reg.c ****   ret = lis2dw12_read_reg(ctx, LIS2DW12_STATUS_DUP, (uint8_t *) val, 5);
 1749              		.loc 1 580 9
 1750 000a 0523     		movs	r3, #5
 1751 000c 3A68     		ldr	r2, [r7]
 1752 000e 3721     		movs	r1, #55
 1753 0010 7868     		ldr	r0, [r7, #4]
 1754 0012 FFF7FEFF 		bl	lis2dw12_read_reg
 1755 0016 F860     		str	r0, [r7, #12]
 581:Core/Src/lis2dw12_reg.c **** 
 582:Core/Src/lis2dw12_reg.c ****   return ret;
 1756              		.loc 1 582 10
 1757 0018 FB68     		ldr	r3, [r7, #12]
 583:Core/Src/lis2dw12_reg.c **** }
 1758              		.loc 1 583 1
 1759 001a 1846     		mov	r0, r3
 1760 001c 1037     		adds	r7, r7, #16
 1761              	.LCFI108:
 1762              		.cfi_def_cfa_offset 8
 1763 001e BD46     		mov	sp, r7
 1764              	.LCFI109:
 1765              		.cfi_def_cfa_register 13
 1766              		@ sp needed
 1767 0020 80BD     		pop	{r7, pc}
 1768              		.cfi_endproc
 1769              	.LFE21:
 1771              		.section	.text.lis2dw12_usr_offset_x_set,"ax",%progbits
 1772              		.align	1
 1773              		.global	lis2dw12_usr_offset_x_set
 1774              		.syntax unified
 1775              		.thumb
 1776              		.thumb_func
 1778              	lis2dw12_usr_offset_x_set:
 1779              	.LFB22:
 584:Core/Src/lis2dw12_reg.c **** 
 585:Core/Src/lis2dw12_reg.c **** /**
 586:Core/Src/lis2dw12_reg.c ****   * @brief  Accelerometer X-axis user offset correction expressed in twos
 587:Core/Src/lis2dw12_reg.c ****   *         complement, weight depends on bit USR_OFF_W. The value must be
 588:Core/Src/lis2dw12_reg.c ****   *         in the range [-127 127].[set]
 589:Core/Src/lis2dw12_reg.c ****   *
 590:Core/Src/lis2dw12_reg.c ****   * @param  ctx      read / write interface definitions
 591:Core/Src/lis2dw12_reg.c ****   * @param  buff     buffer that contains data to write
 592:Core/Src/lis2dw12_reg.c ****   * @retval          interface status (MANDATORY: return 0 -> no Error)
 593:Core/Src/lis2dw12_reg.c ****   *
 594:Core/Src/lis2dw12_reg.c ****   */
 595:Core/Src/lis2dw12_reg.c **** int32_t lis2dw12_usr_offset_x_set(const stmdev_ctx_t *ctx, uint8_t *buff)
 596:Core/Src/lis2dw12_reg.c **** {
 1780              		.loc 1 596 1
 1781              		.cfi_startproc
 1782              		@ args = 0, pretend = 0, frame = 16
 1783              		@ frame_needed = 1, uses_anonymous_args = 0
 1784 0000 80B5     		push	{r7, lr}
ARM GAS  C:\Users\vct344\AppData\Local\Temp\ccePc7Ac.s 			page 42


 1785              	.LCFI110:
 1786              		.cfi_def_cfa_offset 8
 1787              		.cfi_offset 7, -8
 1788              		.cfi_offset 14, -4
 1789 0002 84B0     		sub	sp, sp, #16
 1790              	.LCFI111:
 1791              		.cfi_def_cfa_offset 24
 1792 0004 00AF     		add	r7, sp, #0
 1793              	.LCFI112:
 1794              		.cfi_def_cfa_register 7
 1795 0006 7860     		str	r0, [r7, #4]
 1796 0008 3960     		str	r1, [r7]
 597:Core/Src/lis2dw12_reg.c ****   int32_t ret;
 598:Core/Src/lis2dw12_reg.c **** 
 599:Core/Src/lis2dw12_reg.c ****   ret = lis2dw12_write_reg(ctx, LIS2DW12_X_OFS_USR, buff, 1);
 1797              		.loc 1 599 9
 1798 000a 0123     		movs	r3, #1
 1799 000c 3A68     		ldr	r2, [r7]
 1800 000e 3C21     		movs	r1, #60
 1801 0010 7868     		ldr	r0, [r7, #4]
 1802 0012 FFF7FEFF 		bl	lis2dw12_write_reg
 1803 0016 F860     		str	r0, [r7, #12]
 600:Core/Src/lis2dw12_reg.c **** 
 601:Core/Src/lis2dw12_reg.c ****   return ret;
 1804              		.loc 1 601 10
 1805 0018 FB68     		ldr	r3, [r7, #12]
 602:Core/Src/lis2dw12_reg.c **** }
 1806              		.loc 1 602 1
 1807 001a 1846     		mov	r0, r3
 1808 001c 1037     		adds	r7, r7, #16
 1809              	.LCFI113:
 1810              		.cfi_def_cfa_offset 8
 1811 001e BD46     		mov	sp, r7
 1812              	.LCFI114:
 1813              		.cfi_def_cfa_register 13
 1814              		@ sp needed
 1815 0020 80BD     		pop	{r7, pc}
 1816              		.cfi_endproc
 1817              	.LFE22:
 1819              		.section	.text.lis2dw12_usr_offset_x_get,"ax",%progbits
 1820              		.align	1
 1821              		.global	lis2dw12_usr_offset_x_get
 1822              		.syntax unified
 1823              		.thumb
 1824              		.thumb_func
 1826              	lis2dw12_usr_offset_x_get:
 1827              	.LFB23:
 603:Core/Src/lis2dw12_reg.c **** 
 604:Core/Src/lis2dw12_reg.c **** /**
 605:Core/Src/lis2dw12_reg.c ****   * @brief  Accelerometer X-axis user offset correction expressed in twos
 606:Core/Src/lis2dw12_reg.c ****   *         complement, weight depends on bit USR_OFF_W. The value must be
 607:Core/Src/lis2dw12_reg.c ****   *         in the range [-127 127].[get]
 608:Core/Src/lis2dw12_reg.c ****   *
 609:Core/Src/lis2dw12_reg.c ****   * @param  ctx      read / write interface definitions
 610:Core/Src/lis2dw12_reg.c ****   * @param  buff     buffer that stores data read
 611:Core/Src/lis2dw12_reg.c ****   * @retval          interface status (MANDATORY: return 0 -> no Error)
 612:Core/Src/lis2dw12_reg.c ****   *
ARM GAS  C:\Users\vct344\AppData\Local\Temp\ccePc7Ac.s 			page 43


 613:Core/Src/lis2dw12_reg.c ****   */
 614:Core/Src/lis2dw12_reg.c **** int32_t lis2dw12_usr_offset_x_get(const stmdev_ctx_t *ctx, uint8_t *buff)
 615:Core/Src/lis2dw12_reg.c **** {
 1828              		.loc 1 615 1
 1829              		.cfi_startproc
 1830              		@ args = 0, pretend = 0, frame = 16
 1831              		@ frame_needed = 1, uses_anonymous_args = 0
 1832 0000 80B5     		push	{r7, lr}
 1833              	.LCFI115:
 1834              		.cfi_def_cfa_offset 8
 1835              		.cfi_offset 7, -8
 1836              		.cfi_offset 14, -4
 1837 0002 84B0     		sub	sp, sp, #16
 1838              	.LCFI116:
 1839              		.cfi_def_cfa_offset 24
 1840 0004 00AF     		add	r7, sp, #0
 1841              	.LCFI117:
 1842              		.cfi_def_cfa_register 7
 1843 0006 7860     		str	r0, [r7, #4]
 1844 0008 3960     		str	r1, [r7]
 616:Core/Src/lis2dw12_reg.c ****   int32_t ret;
 617:Core/Src/lis2dw12_reg.c **** 
 618:Core/Src/lis2dw12_reg.c ****   ret = lis2dw12_read_reg(ctx, LIS2DW12_X_OFS_USR, buff, 1);
 1845              		.loc 1 618 9
 1846 000a 0123     		movs	r3, #1
 1847 000c 3A68     		ldr	r2, [r7]
 1848 000e 3C21     		movs	r1, #60
 1849 0010 7868     		ldr	r0, [r7, #4]
 1850 0012 FFF7FEFF 		bl	lis2dw12_read_reg
 1851 0016 F860     		str	r0, [r7, #12]
 619:Core/Src/lis2dw12_reg.c **** 
 620:Core/Src/lis2dw12_reg.c ****   return ret;
 1852              		.loc 1 620 10
 1853 0018 FB68     		ldr	r3, [r7, #12]
 621:Core/Src/lis2dw12_reg.c **** }
 1854              		.loc 1 621 1
 1855 001a 1846     		mov	r0, r3
 1856 001c 1037     		adds	r7, r7, #16
 1857              	.LCFI118:
 1858              		.cfi_def_cfa_offset 8
 1859 001e BD46     		mov	sp, r7
 1860              	.LCFI119:
 1861              		.cfi_def_cfa_register 13
 1862              		@ sp needed
 1863 0020 80BD     		pop	{r7, pc}
 1864              		.cfi_endproc
 1865              	.LFE23:
 1867              		.section	.text.lis2dw12_usr_offset_y_set,"ax",%progbits
 1868              		.align	1
 1869              		.global	lis2dw12_usr_offset_y_set
 1870              		.syntax unified
 1871              		.thumb
 1872              		.thumb_func
 1874              	lis2dw12_usr_offset_y_set:
 1875              	.LFB24:
 622:Core/Src/lis2dw12_reg.c **** 
 623:Core/Src/lis2dw12_reg.c **** /**
ARM GAS  C:\Users\vct344\AppData\Local\Temp\ccePc7Ac.s 			page 44


 624:Core/Src/lis2dw12_reg.c ****   * @brief  Accelerometer Y-axis user offset correction expressed in twos
 625:Core/Src/lis2dw12_reg.c ****   *         complement, weight depends on bit USR_OFF_W. The value must be
 626:Core/Src/lis2dw12_reg.c ****   *         in the range [-127 127].[set]
 627:Core/Src/lis2dw12_reg.c ****   *
 628:Core/Src/lis2dw12_reg.c ****   * @param  ctx      read / write interface definitions
 629:Core/Src/lis2dw12_reg.c ****   * @param  buff     buffer that contains data to write
 630:Core/Src/lis2dw12_reg.c ****   * @retval          interface status (MANDATORY: return 0 -> no Error)
 631:Core/Src/lis2dw12_reg.c ****   *
 632:Core/Src/lis2dw12_reg.c ****   */
 633:Core/Src/lis2dw12_reg.c **** int32_t lis2dw12_usr_offset_y_set(const stmdev_ctx_t *ctx, uint8_t *buff)
 634:Core/Src/lis2dw12_reg.c **** {
 1876              		.loc 1 634 1
 1877              		.cfi_startproc
 1878              		@ args = 0, pretend = 0, frame = 16
 1879              		@ frame_needed = 1, uses_anonymous_args = 0
 1880 0000 80B5     		push	{r7, lr}
 1881              	.LCFI120:
 1882              		.cfi_def_cfa_offset 8
 1883              		.cfi_offset 7, -8
 1884              		.cfi_offset 14, -4
 1885 0002 84B0     		sub	sp, sp, #16
 1886              	.LCFI121:
 1887              		.cfi_def_cfa_offset 24
 1888 0004 00AF     		add	r7, sp, #0
 1889              	.LCFI122:
 1890              		.cfi_def_cfa_register 7
 1891 0006 7860     		str	r0, [r7, #4]
 1892 0008 3960     		str	r1, [r7]
 635:Core/Src/lis2dw12_reg.c ****   int32_t ret;
 636:Core/Src/lis2dw12_reg.c **** 
 637:Core/Src/lis2dw12_reg.c ****   ret = lis2dw12_write_reg(ctx, LIS2DW12_Y_OFS_USR, buff, 1);
 1893              		.loc 1 637 9
 1894 000a 0123     		movs	r3, #1
 1895 000c 3A68     		ldr	r2, [r7]
 1896 000e 3D21     		movs	r1, #61
 1897 0010 7868     		ldr	r0, [r7, #4]
 1898 0012 FFF7FEFF 		bl	lis2dw12_write_reg
 1899 0016 F860     		str	r0, [r7, #12]
 638:Core/Src/lis2dw12_reg.c **** 
 639:Core/Src/lis2dw12_reg.c ****   return ret;
 1900              		.loc 1 639 10
 1901 0018 FB68     		ldr	r3, [r7, #12]
 640:Core/Src/lis2dw12_reg.c **** }
 1902              		.loc 1 640 1
 1903 001a 1846     		mov	r0, r3
 1904 001c 1037     		adds	r7, r7, #16
 1905              	.LCFI123:
 1906              		.cfi_def_cfa_offset 8
 1907 001e BD46     		mov	sp, r7
 1908              	.LCFI124:
 1909              		.cfi_def_cfa_register 13
 1910              		@ sp needed
 1911 0020 80BD     		pop	{r7, pc}
 1912              		.cfi_endproc
 1913              	.LFE24:
 1915              		.section	.text.lis2dw12_usr_offset_y_get,"ax",%progbits
 1916              		.align	1
ARM GAS  C:\Users\vct344\AppData\Local\Temp\ccePc7Ac.s 			page 45


 1917              		.global	lis2dw12_usr_offset_y_get
 1918              		.syntax unified
 1919              		.thumb
 1920              		.thumb_func
 1922              	lis2dw12_usr_offset_y_get:
 1923              	.LFB25:
 641:Core/Src/lis2dw12_reg.c **** 
 642:Core/Src/lis2dw12_reg.c **** /**
 643:Core/Src/lis2dw12_reg.c ****   * @brief  Accelerometer Y-axis user offset correction expressed in twos
 644:Core/Src/lis2dw12_reg.c ****   *         complement, weight depends on bit USR_OFF_W. The value must be
 645:Core/Src/lis2dw12_reg.c ****   *         in the range [-127 127].[get]
 646:Core/Src/lis2dw12_reg.c ****   *
 647:Core/Src/lis2dw12_reg.c ****   * @param  ctx      read / write interface definitions
 648:Core/Src/lis2dw12_reg.c ****   * @param  buff     buffer that stores data read
 649:Core/Src/lis2dw12_reg.c ****   * @retval          interface status (MANDATORY: return 0 -> no Error)
 650:Core/Src/lis2dw12_reg.c ****   *
 651:Core/Src/lis2dw12_reg.c ****   */
 652:Core/Src/lis2dw12_reg.c **** int32_t lis2dw12_usr_offset_y_get(const stmdev_ctx_t *ctx, uint8_t *buff)
 653:Core/Src/lis2dw12_reg.c **** {
 1924              		.loc 1 653 1
 1925              		.cfi_startproc
 1926              		@ args = 0, pretend = 0, frame = 16
 1927              		@ frame_needed = 1, uses_anonymous_args = 0
 1928 0000 80B5     		push	{r7, lr}
 1929              	.LCFI125:
 1930              		.cfi_def_cfa_offset 8
 1931              		.cfi_offset 7, -8
 1932              		.cfi_offset 14, -4
 1933 0002 84B0     		sub	sp, sp, #16
 1934              	.LCFI126:
 1935              		.cfi_def_cfa_offset 24
 1936 0004 00AF     		add	r7, sp, #0
 1937              	.LCFI127:
 1938              		.cfi_def_cfa_register 7
 1939 0006 7860     		str	r0, [r7, #4]
 1940 0008 3960     		str	r1, [r7]
 654:Core/Src/lis2dw12_reg.c ****   int32_t ret;
 655:Core/Src/lis2dw12_reg.c **** 
 656:Core/Src/lis2dw12_reg.c ****   ret = lis2dw12_read_reg(ctx, LIS2DW12_Y_OFS_USR, buff, 1);
 1941              		.loc 1 656 9
 1942 000a 0123     		movs	r3, #1
 1943 000c 3A68     		ldr	r2, [r7]
 1944 000e 3D21     		movs	r1, #61
 1945 0010 7868     		ldr	r0, [r7, #4]
 1946 0012 FFF7FEFF 		bl	lis2dw12_read_reg
 1947 0016 F860     		str	r0, [r7, #12]
 657:Core/Src/lis2dw12_reg.c **** 
 658:Core/Src/lis2dw12_reg.c ****   return ret;
 1948              		.loc 1 658 10
 1949 0018 FB68     		ldr	r3, [r7, #12]
 659:Core/Src/lis2dw12_reg.c **** }
 1950              		.loc 1 659 1
 1951 001a 1846     		mov	r0, r3
 1952 001c 1037     		adds	r7, r7, #16
 1953              	.LCFI128:
 1954              		.cfi_def_cfa_offset 8
 1955 001e BD46     		mov	sp, r7
ARM GAS  C:\Users\vct344\AppData\Local\Temp\ccePc7Ac.s 			page 46


 1956              	.LCFI129:
 1957              		.cfi_def_cfa_register 13
 1958              		@ sp needed
 1959 0020 80BD     		pop	{r7, pc}
 1960              		.cfi_endproc
 1961              	.LFE25:
 1963              		.section	.text.lis2dw12_usr_offset_z_set,"ax",%progbits
 1964              		.align	1
 1965              		.global	lis2dw12_usr_offset_z_set
 1966              		.syntax unified
 1967              		.thumb
 1968              		.thumb_func
 1970              	lis2dw12_usr_offset_z_set:
 1971              	.LFB26:
 660:Core/Src/lis2dw12_reg.c **** 
 661:Core/Src/lis2dw12_reg.c **** /**
 662:Core/Src/lis2dw12_reg.c ****   * @brief  Accelerometer Z-axis user offset correction expressed in twos
 663:Core/Src/lis2dw12_reg.c ****   *         complement, weight depends on bit USR_OFF_W. The value must be
 664:Core/Src/lis2dw12_reg.c ****   *         in the range [-127 127].[set]
 665:Core/Src/lis2dw12_reg.c ****   *
 666:Core/Src/lis2dw12_reg.c ****   * @param  ctx      read / write interface definitions
 667:Core/Src/lis2dw12_reg.c ****   * @param  buff     buffer that contains data to write
 668:Core/Src/lis2dw12_reg.c ****   * @retval          interface status (MANDATORY: return 0 -> no Error)
 669:Core/Src/lis2dw12_reg.c ****   *
 670:Core/Src/lis2dw12_reg.c ****   */
 671:Core/Src/lis2dw12_reg.c **** int32_t lis2dw12_usr_offset_z_set(const stmdev_ctx_t *ctx, uint8_t *buff)
 672:Core/Src/lis2dw12_reg.c **** {
 1972              		.loc 1 672 1
 1973              		.cfi_startproc
 1974              		@ args = 0, pretend = 0, frame = 16
 1975              		@ frame_needed = 1, uses_anonymous_args = 0
 1976 0000 80B5     		push	{r7, lr}
 1977              	.LCFI130:
 1978              		.cfi_def_cfa_offset 8
 1979              		.cfi_offset 7, -8
 1980              		.cfi_offset 14, -4
 1981 0002 84B0     		sub	sp, sp, #16
 1982              	.LCFI131:
 1983              		.cfi_def_cfa_offset 24
 1984 0004 00AF     		add	r7, sp, #0
 1985              	.LCFI132:
 1986              		.cfi_def_cfa_register 7
 1987 0006 7860     		str	r0, [r7, #4]
 1988 0008 3960     		str	r1, [r7]
 673:Core/Src/lis2dw12_reg.c ****   int32_t ret;
 674:Core/Src/lis2dw12_reg.c **** 
 675:Core/Src/lis2dw12_reg.c ****   ret = lis2dw12_write_reg(ctx, LIS2DW12_Z_OFS_USR, buff, 1);
 1989              		.loc 1 675 9
 1990 000a 0123     		movs	r3, #1
 1991 000c 3A68     		ldr	r2, [r7]
 1992 000e 3E21     		movs	r1, #62
 1993 0010 7868     		ldr	r0, [r7, #4]
 1994 0012 FFF7FEFF 		bl	lis2dw12_write_reg
 1995 0016 F860     		str	r0, [r7, #12]
 676:Core/Src/lis2dw12_reg.c **** 
 677:Core/Src/lis2dw12_reg.c ****   return ret;
 1996              		.loc 1 677 10
ARM GAS  C:\Users\vct344\AppData\Local\Temp\ccePc7Ac.s 			page 47


 1997 0018 FB68     		ldr	r3, [r7, #12]
 678:Core/Src/lis2dw12_reg.c **** }
 1998              		.loc 1 678 1
 1999 001a 1846     		mov	r0, r3
 2000 001c 1037     		adds	r7, r7, #16
 2001              	.LCFI133:
 2002              		.cfi_def_cfa_offset 8
 2003 001e BD46     		mov	sp, r7
 2004              	.LCFI134:
 2005              		.cfi_def_cfa_register 13
 2006              		@ sp needed
 2007 0020 80BD     		pop	{r7, pc}
 2008              		.cfi_endproc
 2009              	.LFE26:
 2011              		.section	.text.lis2dw12_usr_offset_z_get,"ax",%progbits
 2012              		.align	1
 2013              		.global	lis2dw12_usr_offset_z_get
 2014              		.syntax unified
 2015              		.thumb
 2016              		.thumb_func
 2018              	lis2dw12_usr_offset_z_get:
 2019              	.LFB27:
 679:Core/Src/lis2dw12_reg.c **** 
 680:Core/Src/lis2dw12_reg.c **** /**
 681:Core/Src/lis2dw12_reg.c ****   * @brief  Accelerometer Z-axis user offset correction expressed in twos
 682:Core/Src/lis2dw12_reg.c ****   *         complement, weight depends on bit USR_OFF_W. The value must be
 683:Core/Src/lis2dw12_reg.c ****   *         in the range [-127 127].[get]
 684:Core/Src/lis2dw12_reg.c ****   *
 685:Core/Src/lis2dw12_reg.c ****   * @param  ctx      read / write interface definitions
 686:Core/Src/lis2dw12_reg.c ****   * @param  buff     buffer that stores data read
 687:Core/Src/lis2dw12_reg.c ****   * @retval          interface status (MANDATORY: return 0 -> no Error)
 688:Core/Src/lis2dw12_reg.c ****   *
 689:Core/Src/lis2dw12_reg.c ****   */
 690:Core/Src/lis2dw12_reg.c **** int32_t lis2dw12_usr_offset_z_get(const stmdev_ctx_t *ctx, uint8_t *buff)
 691:Core/Src/lis2dw12_reg.c **** {
 2020              		.loc 1 691 1
 2021              		.cfi_startproc
 2022              		@ args = 0, pretend = 0, frame = 16
 2023              		@ frame_needed = 1, uses_anonymous_args = 0
 2024 0000 80B5     		push	{r7, lr}
 2025              	.LCFI135:
 2026              		.cfi_def_cfa_offset 8
 2027              		.cfi_offset 7, -8
 2028              		.cfi_offset 14, -4
 2029 0002 84B0     		sub	sp, sp, #16
 2030              	.LCFI136:
 2031              		.cfi_def_cfa_offset 24
 2032 0004 00AF     		add	r7, sp, #0
 2033              	.LCFI137:
 2034              		.cfi_def_cfa_register 7
 2035 0006 7860     		str	r0, [r7, #4]
 2036 0008 3960     		str	r1, [r7]
 692:Core/Src/lis2dw12_reg.c ****   int32_t ret;
 693:Core/Src/lis2dw12_reg.c **** 
 694:Core/Src/lis2dw12_reg.c ****   ret = lis2dw12_read_reg(ctx, LIS2DW12_Z_OFS_USR, buff, 1);
 2037              		.loc 1 694 9
 2038 000a 0123     		movs	r3, #1
ARM GAS  C:\Users\vct344\AppData\Local\Temp\ccePc7Ac.s 			page 48


 2039 000c 3A68     		ldr	r2, [r7]
 2040 000e 3E21     		movs	r1, #62
 2041 0010 7868     		ldr	r0, [r7, #4]
 2042 0012 FFF7FEFF 		bl	lis2dw12_read_reg
 2043 0016 F860     		str	r0, [r7, #12]
 695:Core/Src/lis2dw12_reg.c **** 
 696:Core/Src/lis2dw12_reg.c ****   return ret;
 2044              		.loc 1 696 10
 2045 0018 FB68     		ldr	r3, [r7, #12]
 697:Core/Src/lis2dw12_reg.c **** }
 2046              		.loc 1 697 1
 2047 001a 1846     		mov	r0, r3
 2048 001c 1037     		adds	r7, r7, #16
 2049              	.LCFI138:
 2050              		.cfi_def_cfa_offset 8
 2051 001e BD46     		mov	sp, r7
 2052              	.LCFI139:
 2053              		.cfi_def_cfa_register 13
 2054              		@ sp needed
 2055 0020 80BD     		pop	{r7, pc}
 2056              		.cfi_endproc
 2057              	.LFE27:
 2059              		.section	.text.lis2dw12_offset_weight_set,"ax",%progbits
 2060              		.align	1
 2061              		.global	lis2dw12_offset_weight_set
 2062              		.syntax unified
 2063              		.thumb
 2064              		.thumb_func
 2066              	lis2dw12_offset_weight_set:
 2067              	.LFB28:
 698:Core/Src/lis2dw12_reg.c **** 
 699:Core/Src/lis2dw12_reg.c **** /**
 700:Core/Src/lis2dw12_reg.c ****   * @brief  Weight of XL user offset bits of registers X_OFS_USR,
 701:Core/Src/lis2dw12_reg.c ****   *         Y_OFS_USR, Z_OFS_USR.[set]
 702:Core/Src/lis2dw12_reg.c ****   *
 703:Core/Src/lis2dw12_reg.c ****   * @param  ctx      read / write interface definitions
 704:Core/Src/lis2dw12_reg.c ****   * @param  val      change the values of usr_off_w in
 705:Core/Src/lis2dw12_reg.c ****   *                               reg CTRL_REG7
 706:Core/Src/lis2dw12_reg.c ****   * @retval          interface status (MANDATORY: return 0 -> no Error)
 707:Core/Src/lis2dw12_reg.c ****   *
 708:Core/Src/lis2dw12_reg.c ****   */
 709:Core/Src/lis2dw12_reg.c **** int32_t lis2dw12_offset_weight_set(const stmdev_ctx_t *ctx,
 710:Core/Src/lis2dw12_reg.c ****                                    lis2dw12_usr_off_w_t val)
 711:Core/Src/lis2dw12_reg.c **** {
 2068              		.loc 1 711 1
 2069              		.cfi_startproc
 2070              		@ args = 0, pretend = 0, frame = 16
 2071              		@ frame_needed = 1, uses_anonymous_args = 0
 2072 0000 80B5     		push	{r7, lr}
 2073              	.LCFI140:
 2074              		.cfi_def_cfa_offset 8
 2075              		.cfi_offset 7, -8
 2076              		.cfi_offset 14, -4
 2077 0002 84B0     		sub	sp, sp, #16
 2078              	.LCFI141:
 2079              		.cfi_def_cfa_offset 24
 2080 0004 00AF     		add	r7, sp, #0
ARM GAS  C:\Users\vct344\AppData\Local\Temp\ccePc7Ac.s 			page 49


 2081              	.LCFI142:
 2082              		.cfi_def_cfa_register 7
 2083 0006 7860     		str	r0, [r7, #4]
 2084 0008 0B46     		mov	r3, r1
 2085 000a FB70     		strb	r3, [r7, #3]
 712:Core/Src/lis2dw12_reg.c ****   lis2dw12_ctrl_reg7_t reg;
 713:Core/Src/lis2dw12_reg.c ****   int32_t ret;
 714:Core/Src/lis2dw12_reg.c **** 
 715:Core/Src/lis2dw12_reg.c ****   ret = lis2dw12_read_reg(ctx, LIS2DW12_CTRL_REG7, (uint8_t *) &reg, 1);
 2086              		.loc 1 715 9
 2087 000c 07F10802 		add	r2, r7, #8
 2088 0010 0123     		movs	r3, #1
 2089 0012 3F21     		movs	r1, #63
 2090 0014 7868     		ldr	r0, [r7, #4]
 2091 0016 FFF7FEFF 		bl	lis2dw12_read_reg
 2092 001a F860     		str	r0, [r7, #12]
 716:Core/Src/lis2dw12_reg.c **** 
 717:Core/Src/lis2dw12_reg.c ****   if (ret == 0)
 2093              		.loc 1 717 6
 2094 001c FB68     		ldr	r3, [r7, #12]
 2095 001e 002B     		cmp	r3, #0
 2096 0020 0FD1     		bne	.L129
 718:Core/Src/lis2dw12_reg.c ****   {
 719:Core/Src/lis2dw12_reg.c ****     reg.usr_off_w = (uint8_t) val;
 2097              		.loc 1 719 21
 2098 0022 FB78     		ldrb	r3, [r7, #3]
 2099 0024 03F00103 		and	r3, r3, #1
 2100 0028 DAB2     		uxtb	r2, r3
 2101              		.loc 1 719 19
 2102 002a 3B7A     		ldrb	r3, [r7, #8]
 2103 002c 62F38203 		bfi	r3, r2, #2, #1
 2104 0030 3B72     		strb	r3, [r7, #8]
 720:Core/Src/lis2dw12_reg.c ****     ret = lis2dw12_write_reg(ctx, LIS2DW12_CTRL_REG7, (uint8_t *) &reg, 1);
 2105              		.loc 1 720 11
 2106 0032 07F10802 		add	r2, r7, #8
 2107 0036 0123     		movs	r3, #1
 2108 0038 3F21     		movs	r1, #63
 2109 003a 7868     		ldr	r0, [r7, #4]
 2110 003c FFF7FEFF 		bl	lis2dw12_write_reg
 2111 0040 F860     		str	r0, [r7, #12]
 2112              	.L129:
 721:Core/Src/lis2dw12_reg.c ****   }
 722:Core/Src/lis2dw12_reg.c **** 
 723:Core/Src/lis2dw12_reg.c ****   return ret;
 2113              		.loc 1 723 10
 2114 0042 FB68     		ldr	r3, [r7, #12]
 724:Core/Src/lis2dw12_reg.c **** }
 2115              		.loc 1 724 1
 2116 0044 1846     		mov	r0, r3
 2117 0046 1037     		adds	r7, r7, #16
 2118              	.LCFI143:
 2119              		.cfi_def_cfa_offset 8
 2120 0048 BD46     		mov	sp, r7
 2121              	.LCFI144:
 2122              		.cfi_def_cfa_register 13
 2123              		@ sp needed
 2124 004a 80BD     		pop	{r7, pc}
ARM GAS  C:\Users\vct344\AppData\Local\Temp\ccePc7Ac.s 			page 50


 2125              		.cfi_endproc
 2126              	.LFE28:
 2128              		.section	.text.lis2dw12_offset_weight_get,"ax",%progbits
 2129              		.align	1
 2130              		.global	lis2dw12_offset_weight_get
 2131              		.syntax unified
 2132              		.thumb
 2133              		.thumb_func
 2135              	lis2dw12_offset_weight_get:
 2136              	.LFB29:
 725:Core/Src/lis2dw12_reg.c **** 
 726:Core/Src/lis2dw12_reg.c **** /**
 727:Core/Src/lis2dw12_reg.c ****   * @brief  Weight of XL user offset bits of registers X_OFS_USR,
 728:Core/Src/lis2dw12_reg.c ****   *         Y_OFS_USR, Z_OFS_USR.[get]
 729:Core/Src/lis2dw12_reg.c ****   *
 730:Core/Src/lis2dw12_reg.c ****   * @param  ctx      read / write interface definitions
 731:Core/Src/lis2dw12_reg.c ****   * @param  val      Get the values of usr_off_w in reg CTRL_REG7
 732:Core/Src/lis2dw12_reg.c ****   * @retval          interface status (MANDATORY: return 0 -> no Error)
 733:Core/Src/lis2dw12_reg.c ****   *
 734:Core/Src/lis2dw12_reg.c ****   */
 735:Core/Src/lis2dw12_reg.c **** int32_t lis2dw12_offset_weight_get(const stmdev_ctx_t *ctx,
 736:Core/Src/lis2dw12_reg.c ****                                    lis2dw12_usr_off_w_t *val)
 737:Core/Src/lis2dw12_reg.c **** {
 2137              		.loc 1 737 1
 2138              		.cfi_startproc
 2139              		@ args = 0, pretend = 0, frame = 16
 2140              		@ frame_needed = 1, uses_anonymous_args = 0
 2141 0000 80B5     		push	{r7, lr}
 2142              	.LCFI145:
 2143              		.cfi_def_cfa_offset 8
 2144              		.cfi_offset 7, -8
 2145              		.cfi_offset 14, -4
 2146 0002 84B0     		sub	sp, sp, #16
 2147              	.LCFI146:
 2148              		.cfi_def_cfa_offset 24
 2149 0004 00AF     		add	r7, sp, #0
 2150              	.LCFI147:
 2151              		.cfi_def_cfa_register 7
 2152 0006 7860     		str	r0, [r7, #4]
 2153 0008 3960     		str	r1, [r7]
 738:Core/Src/lis2dw12_reg.c ****   lis2dw12_ctrl_reg7_t reg;
 739:Core/Src/lis2dw12_reg.c ****   int32_t ret;
 740:Core/Src/lis2dw12_reg.c **** 
 741:Core/Src/lis2dw12_reg.c ****   ret = lis2dw12_read_reg(ctx, LIS2DW12_CTRL_REG7, (uint8_t *) &reg, 1);
 2154              		.loc 1 741 9
 2155 000a 07F10802 		add	r2, r7, #8
 2156 000e 0123     		movs	r3, #1
 2157 0010 3F21     		movs	r1, #63
 2158 0012 7868     		ldr	r0, [r7, #4]
 2159 0014 FFF7FEFF 		bl	lis2dw12_read_reg
 2160 0018 F860     		str	r0, [r7, #12]
 742:Core/Src/lis2dw12_reg.c **** 
 743:Core/Src/lis2dw12_reg.c ****   switch (reg.usr_off_w)
 2161              		.loc 1 743 14
 2162 001a 3B7A     		ldrb	r3, [r7, #8]
 2163 001c C3F38003 		ubfx	r3, r3, #2, #1
 2164 0020 DBB2     		uxtb	r3, r3
ARM GAS  C:\Users\vct344\AppData\Local\Temp\ccePc7Ac.s 			page 51


 2165              		.loc 1 743 3
 2166 0022 002B     		cmp	r3, #0
 2167 0024 02D0     		beq	.L132
 2168 0026 012B     		cmp	r3, #1
 2169 0028 04D0     		beq	.L133
 2170 002a 07E0     		b	.L137
 2171              	.L132:
 744:Core/Src/lis2dw12_reg.c ****   {
 745:Core/Src/lis2dw12_reg.c ****     case LIS2DW12_LSb_977ug:
 746:Core/Src/lis2dw12_reg.c ****       *val = LIS2DW12_LSb_977ug;
 2172              		.loc 1 746 12
 2173 002c 3B68     		ldr	r3, [r7]
 2174 002e 0022     		movs	r2, #0
 2175 0030 1A70     		strb	r2, [r3]
 747:Core/Src/lis2dw12_reg.c ****       break;
 2176              		.loc 1 747 7
 2177 0032 07E0     		b	.L135
 2178              	.L133:
 748:Core/Src/lis2dw12_reg.c **** 
 749:Core/Src/lis2dw12_reg.c ****     case LIS2DW12_LSb_15mg6:
 750:Core/Src/lis2dw12_reg.c ****       *val = LIS2DW12_LSb_15mg6;
 2179              		.loc 1 750 12
 2180 0034 3B68     		ldr	r3, [r7]
 2181 0036 0122     		movs	r2, #1
 2182 0038 1A70     		strb	r2, [r3]
 751:Core/Src/lis2dw12_reg.c ****       break;
 2183              		.loc 1 751 7
 2184 003a 03E0     		b	.L135
 2185              	.L137:
 752:Core/Src/lis2dw12_reg.c **** 
 753:Core/Src/lis2dw12_reg.c ****     default:
 754:Core/Src/lis2dw12_reg.c ****       *val = LIS2DW12_LSb_977ug;
 2186              		.loc 1 754 12
 2187 003c 3B68     		ldr	r3, [r7]
 2188 003e 0022     		movs	r2, #0
 2189 0040 1A70     		strb	r2, [r3]
 755:Core/Src/lis2dw12_reg.c ****       break;
 2190              		.loc 1 755 7
 2191 0042 00BF     		nop
 2192              	.L135:
 756:Core/Src/lis2dw12_reg.c ****   }
 757:Core/Src/lis2dw12_reg.c **** 
 758:Core/Src/lis2dw12_reg.c ****   return ret;
 2193              		.loc 1 758 10
 2194 0044 FB68     		ldr	r3, [r7, #12]
 759:Core/Src/lis2dw12_reg.c **** }
 2195              		.loc 1 759 1
 2196 0046 1846     		mov	r0, r3
 2197 0048 1037     		adds	r7, r7, #16
 2198              	.LCFI148:
 2199              		.cfi_def_cfa_offset 8
 2200 004a BD46     		mov	sp, r7
 2201              	.LCFI149:
 2202              		.cfi_def_cfa_register 13
 2203              		@ sp needed
 2204 004c 80BD     		pop	{r7, pc}
 2205              		.cfi_endproc
ARM GAS  C:\Users\vct344\AppData\Local\Temp\ccePc7Ac.s 			page 52


 2206              	.LFE29:
 2208              		.section	.text.lis2dw12_temperature_raw_get,"ax",%progbits
 2209              		.align	1
 2210              		.global	lis2dw12_temperature_raw_get
 2211              		.syntax unified
 2212              		.thumb
 2213              		.thumb_func
 2215              	lis2dw12_temperature_raw_get:
 2216              	.LFB30:
 760:Core/Src/lis2dw12_reg.c **** 
 761:Core/Src/lis2dw12_reg.c **** /**
 762:Core/Src/lis2dw12_reg.c ****   * @}
 763:Core/Src/lis2dw12_reg.c ****   *
 764:Core/Src/lis2dw12_reg.c ****   */
 765:Core/Src/lis2dw12_reg.c **** 
 766:Core/Src/lis2dw12_reg.c **** /**
 767:Core/Src/lis2dw12_reg.c ****   * @defgroup  LIS2DW12_Data_Output
 768:Core/Src/lis2dw12_reg.c ****   * @brief     This section groups all the data output functions.
 769:Core/Src/lis2dw12_reg.c ****   * @{
 770:Core/Src/lis2dw12_reg.c ****   *
 771:Core/Src/lis2dw12_reg.c ****   */
 772:Core/Src/lis2dw12_reg.c **** 
 773:Core/Src/lis2dw12_reg.c **** /**
 774:Core/Src/lis2dw12_reg.c ****   * @brief  Temperature data output register (r). L and H registers
 775:Core/Src/lis2dw12_reg.c ****   *         together express a 16-bit word in twos complement.[get]
 776:Core/Src/lis2dw12_reg.c ****   *
 777:Core/Src/lis2dw12_reg.c ****   * @param  ctx      read / write interface definitions
 778:Core/Src/lis2dw12_reg.c ****   * @param  val      buffer that stores data read
 779:Core/Src/lis2dw12_reg.c ****   * @retval          interface status (MANDATORY: return 0 -> no Error)
 780:Core/Src/lis2dw12_reg.c ****   *
 781:Core/Src/lis2dw12_reg.c ****   */
 782:Core/Src/lis2dw12_reg.c **** int32_t lis2dw12_temperature_raw_get(const stmdev_ctx_t *ctx, int16_t *val)
 783:Core/Src/lis2dw12_reg.c **** {
 2217              		.loc 1 783 1
 2218              		.cfi_startproc
 2219              		@ args = 0, pretend = 0, frame = 16
 2220              		@ frame_needed = 1, uses_anonymous_args = 0
 2221 0000 80B5     		push	{r7, lr}
 2222              	.LCFI150:
 2223              		.cfi_def_cfa_offset 8
 2224              		.cfi_offset 7, -8
 2225              		.cfi_offset 14, -4
 2226 0002 84B0     		sub	sp, sp, #16
 2227              	.LCFI151:
 2228              		.cfi_def_cfa_offset 24
 2229 0004 00AF     		add	r7, sp, #0
 2230              	.LCFI152:
 2231              		.cfi_def_cfa_register 7
 2232 0006 7860     		str	r0, [r7, #4]
 2233 0008 3960     		str	r1, [r7]
 784:Core/Src/lis2dw12_reg.c ****   uint8_t buff[2];
 785:Core/Src/lis2dw12_reg.c ****   int32_t ret;
 786:Core/Src/lis2dw12_reg.c **** 
 787:Core/Src/lis2dw12_reg.c ****   ret = lis2dw12_read_reg(ctx, LIS2DW12_OUT_T_L, buff, 2);
 2234              		.loc 1 787 9
 2235 000a 07F10802 		add	r2, r7, #8
 2236 000e 0223     		movs	r3, #2
ARM GAS  C:\Users\vct344\AppData\Local\Temp\ccePc7Ac.s 			page 53


 2237 0010 0D21     		movs	r1, #13
 2238 0012 7868     		ldr	r0, [r7, #4]
 2239 0014 FFF7FEFF 		bl	lis2dw12_read_reg
 2240 0018 F860     		str	r0, [r7, #12]
 788:Core/Src/lis2dw12_reg.c ****   *val = (int16_t)buff[1];
 2241              		.loc 1 788 23
 2242 001a 7B7A     		ldrb	r3, [r7, #9]	@ zero_extendqisi2
 2243              		.loc 1 788 10
 2244 001c 1AB2     		sxth	r2, r3
 2245              		.loc 1 788 8
 2246 001e 3B68     		ldr	r3, [r7]
 2247 0020 1A80     		strh	r2, [r3]	@ movhi
 789:Core/Src/lis2dw12_reg.c ****   *val = (*val * 256) + (int16_t)buff[0];
 2248              		.loc 1 789 11
 2249 0022 3B68     		ldr	r3, [r7]
 2250 0024 B3F90030 		ldrsh	r3, [r3]
 2251 0028 9BB2     		uxth	r3, r3
 2252              		.loc 1 789 16
 2253 002a 1B02     		lsls	r3, r3, #8
 2254 002c 9BB2     		uxth	r3, r3
 2255              		.loc 1 789 38
 2256 002e 3A7A     		ldrb	r2, [r7, #8]	@ zero_extendqisi2
 2257              		.loc 1 789 23
 2258 0030 1344     		add	r3, r3, r2
 2259 0032 9BB2     		uxth	r3, r3
 2260 0034 1AB2     		sxth	r2, r3
 2261              		.loc 1 789 8
 2262 0036 3B68     		ldr	r3, [r7]
 2263 0038 1A80     		strh	r2, [r3]	@ movhi
 790:Core/Src/lis2dw12_reg.c **** 
 791:Core/Src/lis2dw12_reg.c ****   return ret;
 2264              		.loc 1 791 10
 2265 003a FB68     		ldr	r3, [r7, #12]
 792:Core/Src/lis2dw12_reg.c **** }
 2266              		.loc 1 792 1
 2267 003c 1846     		mov	r0, r3
 2268 003e 1037     		adds	r7, r7, #16
 2269              	.LCFI153:
 2270              		.cfi_def_cfa_offset 8
 2271 0040 BD46     		mov	sp, r7
 2272              	.LCFI154:
 2273              		.cfi_def_cfa_register 13
 2274              		@ sp needed
 2275 0042 80BD     		pop	{r7, pc}
 2276              		.cfi_endproc
 2277              	.LFE30:
 2279              		.section	.text.lis2dw12_acceleration_raw_get,"ax",%progbits
 2280              		.align	1
 2281              		.global	lis2dw12_acceleration_raw_get
 2282              		.syntax unified
 2283              		.thumb
 2284              		.thumb_func
 2286              	lis2dw12_acceleration_raw_get:
 2287              	.LFB31:
 793:Core/Src/lis2dw12_reg.c **** 
 794:Core/Src/lis2dw12_reg.c **** /**
 795:Core/Src/lis2dw12_reg.c ****   * @brief  Linear acceleration output register. The value is expressed as
ARM GAS  C:\Users\vct344\AppData\Local\Temp\ccePc7Ac.s 			page 54


 796:Core/Src/lis2dw12_reg.c ****   *         a 16-bit word in twos complement.[get]
 797:Core/Src/lis2dw12_reg.c ****   *
 798:Core/Src/lis2dw12_reg.c ****   * @param  ctx      read / write interface definitions
 799:Core/Src/lis2dw12_reg.c ****   * @param  val      buffer that stores data read
 800:Core/Src/lis2dw12_reg.c ****   * @retval          interface status (MANDATORY: return 0 -> no Error)
 801:Core/Src/lis2dw12_reg.c ****   *
 802:Core/Src/lis2dw12_reg.c ****   */
 803:Core/Src/lis2dw12_reg.c **** int32_t lis2dw12_acceleration_raw_get(const stmdev_ctx_t *ctx, int16_t *val)
 804:Core/Src/lis2dw12_reg.c **** {
 2288              		.loc 1 804 1
 2289              		.cfi_startproc
 2290              		@ args = 0, pretend = 0, frame = 24
 2291              		@ frame_needed = 1, uses_anonymous_args = 0
 2292 0000 80B5     		push	{r7, lr}
 2293              	.LCFI155:
 2294              		.cfi_def_cfa_offset 8
 2295              		.cfi_offset 7, -8
 2296              		.cfi_offset 14, -4
 2297 0002 86B0     		sub	sp, sp, #24
 2298              	.LCFI156:
 2299              		.cfi_def_cfa_offset 32
 2300 0004 00AF     		add	r7, sp, #0
 2301              	.LCFI157:
 2302              		.cfi_def_cfa_register 7
 2303 0006 7860     		str	r0, [r7, #4]
 2304 0008 3960     		str	r1, [r7]
 805:Core/Src/lis2dw12_reg.c ****   uint8_t buff[6];
 806:Core/Src/lis2dw12_reg.c ****   int32_t ret;
 807:Core/Src/lis2dw12_reg.c **** 
 808:Core/Src/lis2dw12_reg.c ****   ret = lis2dw12_read_reg(ctx, LIS2DW12_OUT_X_L, buff, 6);
 2305              		.loc 1 808 9
 2306 000a 07F10C02 		add	r2, r7, #12
 2307 000e 0623     		movs	r3, #6
 2308 0010 2821     		movs	r1, #40
 2309 0012 7868     		ldr	r0, [r7, #4]
 2310 0014 FFF7FEFF 		bl	lis2dw12_read_reg
 2311 0018 7861     		str	r0, [r7, #20]
 809:Core/Src/lis2dw12_reg.c ****   val[0] = (int16_t)buff[1];
 2312              		.loc 1 809 25
 2313 001a 7B7B     		ldrb	r3, [r7, #13]	@ zero_extendqisi2
 2314              		.loc 1 809 12
 2315 001c 1AB2     		sxth	r2, r3
 2316              		.loc 1 809 10
 2317 001e 3B68     		ldr	r3, [r7]
 2318 0020 1A80     		strh	r2, [r3]	@ movhi
 810:Core/Src/lis2dw12_reg.c ****   val[0] = (val[0] * 256) + (int16_t)buff[0];
 2319              		.loc 1 810 16
 2320 0022 3B68     		ldr	r3, [r7]
 2321 0024 B3F90030 		ldrsh	r3, [r3]
 2322 0028 9BB2     		uxth	r3, r3
 2323              		.loc 1 810 20
 2324 002a 1B02     		lsls	r3, r3, #8
 2325 002c 9BB2     		uxth	r3, r3
 2326              		.loc 1 810 42
 2327 002e 3A7B     		ldrb	r2, [r7, #12]	@ zero_extendqisi2
 2328              		.loc 1 810 27
 2329 0030 1344     		add	r3, r3, r2
ARM GAS  C:\Users\vct344\AppData\Local\Temp\ccePc7Ac.s 			page 55


 2330 0032 9BB2     		uxth	r3, r3
 2331 0034 1AB2     		sxth	r2, r3
 2332              		.loc 1 810 10
 2333 0036 3B68     		ldr	r3, [r7]
 2334 0038 1A80     		strh	r2, [r3]	@ movhi
 811:Core/Src/lis2dw12_reg.c ****   val[1] = (int16_t)buff[3];
 2335              		.loc 1 811 25
 2336 003a FA7B     		ldrb	r2, [r7, #15]	@ zero_extendqisi2
 2337              		.loc 1 811 6
 2338 003c 3B68     		ldr	r3, [r7]
 2339 003e 0233     		adds	r3, r3, #2
 2340              		.loc 1 811 12
 2341 0040 12B2     		sxth	r2, r2
 2342              		.loc 1 811 10
 2343 0042 1A80     		strh	r2, [r3]	@ movhi
 812:Core/Src/lis2dw12_reg.c ****   val[1] = (val[1] * 256) + (int16_t)buff[2];
 2344              		.loc 1 812 16
 2345 0044 3B68     		ldr	r3, [r7]
 2346 0046 0233     		adds	r3, r3, #2
 2347 0048 B3F90030 		ldrsh	r3, [r3]
 2348 004c 9BB2     		uxth	r3, r3
 2349              		.loc 1 812 20
 2350 004e 1B02     		lsls	r3, r3, #8
 2351 0050 9BB2     		uxth	r3, r3
 2352              		.loc 1 812 42
 2353 0052 BA7B     		ldrb	r2, [r7, #14]	@ zero_extendqisi2
 2354              		.loc 1 812 27
 2355 0054 1344     		add	r3, r3, r2
 2356 0056 9AB2     		uxth	r2, r3
 2357              		.loc 1 812 6
 2358 0058 3B68     		ldr	r3, [r7]
 2359 005a 0233     		adds	r3, r3, #2
 2360              		.loc 1 812 27
 2361 005c 12B2     		sxth	r2, r2
 2362              		.loc 1 812 10
 2363 005e 1A80     		strh	r2, [r3]	@ movhi
 813:Core/Src/lis2dw12_reg.c ****   val[2] = (int16_t)buff[5];
 2364              		.loc 1 813 25
 2365 0060 7A7C     		ldrb	r2, [r7, #17]	@ zero_extendqisi2
 2366              		.loc 1 813 6
 2367 0062 3B68     		ldr	r3, [r7]
 2368 0064 0433     		adds	r3, r3, #4
 2369              		.loc 1 813 12
 2370 0066 12B2     		sxth	r2, r2
 2371              		.loc 1 813 10
 2372 0068 1A80     		strh	r2, [r3]	@ movhi
 814:Core/Src/lis2dw12_reg.c ****   val[2] = (val[2] * 256) + (int16_t)buff[4];
 2373              		.loc 1 814 16
 2374 006a 3B68     		ldr	r3, [r7]
 2375 006c 0433     		adds	r3, r3, #4
 2376 006e B3F90030 		ldrsh	r3, [r3]
 2377 0072 9BB2     		uxth	r3, r3
 2378              		.loc 1 814 20
 2379 0074 1B02     		lsls	r3, r3, #8
 2380 0076 9BB2     		uxth	r3, r3
 2381              		.loc 1 814 42
 2382 0078 3A7C     		ldrb	r2, [r7, #16]	@ zero_extendqisi2
ARM GAS  C:\Users\vct344\AppData\Local\Temp\ccePc7Ac.s 			page 56


 2383              		.loc 1 814 27
 2384 007a 1344     		add	r3, r3, r2
 2385 007c 9AB2     		uxth	r2, r3
 2386              		.loc 1 814 6
 2387 007e 3B68     		ldr	r3, [r7]
 2388 0080 0433     		adds	r3, r3, #4
 2389              		.loc 1 814 27
 2390 0082 12B2     		sxth	r2, r2
 2391              		.loc 1 814 10
 2392 0084 1A80     		strh	r2, [r3]	@ movhi
 815:Core/Src/lis2dw12_reg.c **** 
 816:Core/Src/lis2dw12_reg.c ****   return ret;
 2393              		.loc 1 816 10
 2394 0086 7B69     		ldr	r3, [r7, #20]
 817:Core/Src/lis2dw12_reg.c **** }
 2395              		.loc 1 817 1
 2396 0088 1846     		mov	r0, r3
 2397 008a 1837     		adds	r7, r7, #24
 2398              	.LCFI158:
 2399              		.cfi_def_cfa_offset 8
 2400 008c BD46     		mov	sp, r7
 2401              	.LCFI159:
 2402              		.cfi_def_cfa_register 13
 2403              		@ sp needed
 2404 008e 80BD     		pop	{r7, pc}
 2405              		.cfi_endproc
 2406              	.LFE31:
 2408              		.section	.text.lis2dw12_device_id_get,"ax",%progbits
 2409              		.align	1
 2410              		.global	lis2dw12_device_id_get
 2411              		.syntax unified
 2412              		.thumb
 2413              		.thumb_func
 2415              	lis2dw12_device_id_get:
 2416              	.LFB32:
 818:Core/Src/lis2dw12_reg.c **** 
 819:Core/Src/lis2dw12_reg.c **** /**
 820:Core/Src/lis2dw12_reg.c ****   * @}
 821:Core/Src/lis2dw12_reg.c ****   *
 822:Core/Src/lis2dw12_reg.c ****   */
 823:Core/Src/lis2dw12_reg.c **** 
 824:Core/Src/lis2dw12_reg.c **** /**
 825:Core/Src/lis2dw12_reg.c ****   * @defgroup  LIS2DW12_Common
 826:Core/Src/lis2dw12_reg.c ****   * @brief     This section groups common useful functions.
 827:Core/Src/lis2dw12_reg.c ****   * @{
 828:Core/Src/lis2dw12_reg.c ****   *
 829:Core/Src/lis2dw12_reg.c ****   */
 830:Core/Src/lis2dw12_reg.c **** 
 831:Core/Src/lis2dw12_reg.c **** /**
 832:Core/Src/lis2dw12_reg.c ****   * @brief  Device Who am I.[get]
 833:Core/Src/lis2dw12_reg.c ****   *
 834:Core/Src/lis2dw12_reg.c ****   * @param  ctx      read / write interface definitions
 835:Core/Src/lis2dw12_reg.c ****   * @param  buff     buffer that stores data read
 836:Core/Src/lis2dw12_reg.c ****   * @retval          interface status (MANDATORY: return 0 -> no Error)
 837:Core/Src/lis2dw12_reg.c ****   *
 838:Core/Src/lis2dw12_reg.c ****   */
 839:Core/Src/lis2dw12_reg.c **** int32_t lis2dw12_device_id_get(const stmdev_ctx_t *ctx, uint8_t *buff)
ARM GAS  C:\Users\vct344\AppData\Local\Temp\ccePc7Ac.s 			page 57


 840:Core/Src/lis2dw12_reg.c **** {
 2417              		.loc 1 840 1
 2418              		.cfi_startproc
 2419              		@ args = 0, pretend = 0, frame = 16
 2420              		@ frame_needed = 1, uses_anonymous_args = 0
 2421 0000 80B5     		push	{r7, lr}
 2422              	.LCFI160:
 2423              		.cfi_def_cfa_offset 8
 2424              		.cfi_offset 7, -8
 2425              		.cfi_offset 14, -4
 2426 0002 84B0     		sub	sp, sp, #16
 2427              	.LCFI161:
 2428              		.cfi_def_cfa_offset 24
 2429 0004 00AF     		add	r7, sp, #0
 2430              	.LCFI162:
 2431              		.cfi_def_cfa_register 7
 2432 0006 7860     		str	r0, [r7, #4]
 2433 0008 3960     		str	r1, [r7]
 841:Core/Src/lis2dw12_reg.c ****   int32_t ret;
 842:Core/Src/lis2dw12_reg.c **** 
 843:Core/Src/lis2dw12_reg.c ****   ret = lis2dw12_read_reg(ctx, LIS2DW12_WHO_AM_I, buff, 1);
 2434              		.loc 1 843 9
 2435 000a 0123     		movs	r3, #1
 2436 000c 3A68     		ldr	r2, [r7]
 2437 000e 0F21     		movs	r1, #15
 2438 0010 7868     		ldr	r0, [r7, #4]
 2439 0012 FFF7FEFF 		bl	lis2dw12_read_reg
 2440 0016 F860     		str	r0, [r7, #12]
 844:Core/Src/lis2dw12_reg.c **** 
 845:Core/Src/lis2dw12_reg.c ****   return ret;
 2441              		.loc 1 845 10
 2442 0018 FB68     		ldr	r3, [r7, #12]
 846:Core/Src/lis2dw12_reg.c **** }
 2443              		.loc 1 846 1
 2444 001a 1846     		mov	r0, r3
 2445 001c 1037     		adds	r7, r7, #16
 2446              	.LCFI163:
 2447              		.cfi_def_cfa_offset 8
 2448 001e BD46     		mov	sp, r7
 2449              	.LCFI164:
 2450              		.cfi_def_cfa_register 13
 2451              		@ sp needed
 2452 0020 80BD     		pop	{r7, pc}
 2453              		.cfi_endproc
 2454              	.LFE32:
 2456              		.section	.text.lis2dw12_auto_increment_set,"ax",%progbits
 2457              		.align	1
 2458              		.global	lis2dw12_auto_increment_set
 2459              		.syntax unified
 2460              		.thumb
 2461              		.thumb_func
 2463              	lis2dw12_auto_increment_set:
 2464              	.LFB33:
 847:Core/Src/lis2dw12_reg.c **** 
 848:Core/Src/lis2dw12_reg.c **** /**
 849:Core/Src/lis2dw12_reg.c ****   * @brief  Register address automatically incremented during multiple byte
 850:Core/Src/lis2dw12_reg.c ****   *         access with a serial interface.[set]
ARM GAS  C:\Users\vct344\AppData\Local\Temp\ccePc7Ac.s 			page 58


 851:Core/Src/lis2dw12_reg.c ****   *
 852:Core/Src/lis2dw12_reg.c ****   * @param  ctx      read / write interface definitions
 853:Core/Src/lis2dw12_reg.c ****   * @param  val      change the values of if_add_inc in reg CTRL2
 854:Core/Src/lis2dw12_reg.c ****   * @retval          interface status (MANDATORY: return 0 -> no Error)
 855:Core/Src/lis2dw12_reg.c ****   *
 856:Core/Src/lis2dw12_reg.c ****   */
 857:Core/Src/lis2dw12_reg.c **** int32_t lis2dw12_auto_increment_set(const stmdev_ctx_t *ctx, uint8_t val)
 858:Core/Src/lis2dw12_reg.c **** {
 2465              		.loc 1 858 1
 2466              		.cfi_startproc
 2467              		@ args = 0, pretend = 0, frame = 16
 2468              		@ frame_needed = 1, uses_anonymous_args = 0
 2469 0000 80B5     		push	{r7, lr}
 2470              	.LCFI165:
 2471              		.cfi_def_cfa_offset 8
 2472              		.cfi_offset 7, -8
 2473              		.cfi_offset 14, -4
 2474 0002 84B0     		sub	sp, sp, #16
 2475              	.LCFI166:
 2476              		.cfi_def_cfa_offset 24
 2477 0004 00AF     		add	r7, sp, #0
 2478              	.LCFI167:
 2479              		.cfi_def_cfa_register 7
 2480 0006 7860     		str	r0, [r7, #4]
 2481 0008 0B46     		mov	r3, r1
 2482 000a FB70     		strb	r3, [r7, #3]
 859:Core/Src/lis2dw12_reg.c ****   lis2dw12_ctrl2_t reg;
 860:Core/Src/lis2dw12_reg.c ****   int32_t ret;
 861:Core/Src/lis2dw12_reg.c **** 
 862:Core/Src/lis2dw12_reg.c ****   ret = lis2dw12_read_reg(ctx, LIS2DW12_CTRL2, (uint8_t *) &reg, 1);
 2483              		.loc 1 862 9
 2484 000c 07F10802 		add	r2, r7, #8
 2485 0010 0123     		movs	r3, #1
 2486 0012 2121     		movs	r1, #33
 2487 0014 7868     		ldr	r0, [r7, #4]
 2488 0016 FFF7FEFF 		bl	lis2dw12_read_reg
 2489 001a F860     		str	r0, [r7, #12]
 863:Core/Src/lis2dw12_reg.c **** 
 864:Core/Src/lis2dw12_reg.c ****   if (ret == 0)
 2490              		.loc 1 864 6
 2491 001c FB68     		ldr	r3, [r7, #12]
 2492 001e 002B     		cmp	r3, #0
 2493 0020 0FD1     		bne	.L145
 865:Core/Src/lis2dw12_reg.c ****   {
 866:Core/Src/lis2dw12_reg.c ****     reg.if_add_inc = val;
 2494              		.loc 1 866 20
 2495 0022 FB78     		ldrb	r3, [r7, #3]
 2496 0024 03F00103 		and	r3, r3, #1
 2497 0028 DAB2     		uxtb	r2, r3
 2498 002a 3B7A     		ldrb	r3, [r7, #8]
 2499 002c 62F38203 		bfi	r3, r2, #2, #1
 2500 0030 3B72     		strb	r3, [r7, #8]
 867:Core/Src/lis2dw12_reg.c ****     ret = lis2dw12_write_reg(ctx, LIS2DW12_CTRL2, (uint8_t *) &reg, 1);
 2501              		.loc 1 867 11
 2502 0032 07F10802 		add	r2, r7, #8
 2503 0036 0123     		movs	r3, #1
 2504 0038 2121     		movs	r1, #33
ARM GAS  C:\Users\vct344\AppData\Local\Temp\ccePc7Ac.s 			page 59


 2505 003a 7868     		ldr	r0, [r7, #4]
 2506 003c FFF7FEFF 		bl	lis2dw12_write_reg
 2507 0040 F860     		str	r0, [r7, #12]
 2508              	.L145:
 868:Core/Src/lis2dw12_reg.c ****   }
 869:Core/Src/lis2dw12_reg.c **** 
 870:Core/Src/lis2dw12_reg.c ****   return ret;
 2509              		.loc 1 870 10
 2510 0042 FB68     		ldr	r3, [r7, #12]
 871:Core/Src/lis2dw12_reg.c **** }
 2511              		.loc 1 871 1
 2512 0044 1846     		mov	r0, r3
 2513 0046 1037     		adds	r7, r7, #16
 2514              	.LCFI168:
 2515              		.cfi_def_cfa_offset 8
 2516 0048 BD46     		mov	sp, r7
 2517              	.LCFI169:
 2518              		.cfi_def_cfa_register 13
 2519              		@ sp needed
 2520 004a 80BD     		pop	{r7, pc}
 2521              		.cfi_endproc
 2522              	.LFE33:
 2524              		.section	.text.lis2dw12_auto_increment_get,"ax",%progbits
 2525              		.align	1
 2526              		.global	lis2dw12_auto_increment_get
 2527              		.syntax unified
 2528              		.thumb
 2529              		.thumb_func
 2531              	lis2dw12_auto_increment_get:
 2532              	.LFB34:
 872:Core/Src/lis2dw12_reg.c **** 
 873:Core/Src/lis2dw12_reg.c **** /**
 874:Core/Src/lis2dw12_reg.c ****   * @brief  Register address automatically incremented during multiple
 875:Core/Src/lis2dw12_reg.c ****   *         byte access with a serial interface.[get]
 876:Core/Src/lis2dw12_reg.c ****   *
 877:Core/Src/lis2dw12_reg.c ****   * @param  ctx      read / write interface definitions
 878:Core/Src/lis2dw12_reg.c ****   * @param  val      change the values of if_add_inc in reg CTRL2
 879:Core/Src/lis2dw12_reg.c ****   * @retval          interface status (MANDATORY: return 0 -> no Error)
 880:Core/Src/lis2dw12_reg.c ****   *
 881:Core/Src/lis2dw12_reg.c ****   */
 882:Core/Src/lis2dw12_reg.c **** int32_t lis2dw12_auto_increment_get(const stmdev_ctx_t *ctx, uint8_t *val)
 883:Core/Src/lis2dw12_reg.c **** {
 2533              		.loc 1 883 1
 2534              		.cfi_startproc
 2535              		@ args = 0, pretend = 0, frame = 16
 2536              		@ frame_needed = 1, uses_anonymous_args = 0
 2537 0000 80B5     		push	{r7, lr}
 2538              	.LCFI170:
 2539              		.cfi_def_cfa_offset 8
 2540              		.cfi_offset 7, -8
 2541              		.cfi_offset 14, -4
 2542 0002 84B0     		sub	sp, sp, #16
 2543              	.LCFI171:
 2544              		.cfi_def_cfa_offset 24
 2545 0004 00AF     		add	r7, sp, #0
 2546              	.LCFI172:
 2547              		.cfi_def_cfa_register 7
ARM GAS  C:\Users\vct344\AppData\Local\Temp\ccePc7Ac.s 			page 60


 2548 0006 7860     		str	r0, [r7, #4]
 2549 0008 3960     		str	r1, [r7]
 884:Core/Src/lis2dw12_reg.c ****   lis2dw12_ctrl2_t reg;
 885:Core/Src/lis2dw12_reg.c ****   int32_t ret;
 886:Core/Src/lis2dw12_reg.c **** 
 887:Core/Src/lis2dw12_reg.c ****   ret = lis2dw12_read_reg(ctx, LIS2DW12_CTRL2, (uint8_t *) &reg, 1);
 2550              		.loc 1 887 9
 2551 000a 07F10802 		add	r2, r7, #8
 2552 000e 0123     		movs	r3, #1
 2553 0010 2121     		movs	r1, #33
 2554 0012 7868     		ldr	r0, [r7, #4]
 2555 0014 FFF7FEFF 		bl	lis2dw12_read_reg
 2556 0018 F860     		str	r0, [r7, #12]
 888:Core/Src/lis2dw12_reg.c ****   *val = reg.if_add_inc;
 2557              		.loc 1 888 13
 2558 001a 3B7A     		ldrb	r3, [r7, #8]
 2559 001c C3F38003 		ubfx	r3, r3, #2, #1
 2560 0020 DBB2     		uxtb	r3, r3
 2561 0022 1A46     		mov	r2, r3
 2562              		.loc 1 888 8
 2563 0024 3B68     		ldr	r3, [r7]
 2564 0026 1A70     		strb	r2, [r3]
 889:Core/Src/lis2dw12_reg.c **** 
 890:Core/Src/lis2dw12_reg.c ****   return ret;
 2565              		.loc 1 890 10
 2566 0028 FB68     		ldr	r3, [r7, #12]
 891:Core/Src/lis2dw12_reg.c **** }
 2567              		.loc 1 891 1
 2568 002a 1846     		mov	r0, r3
 2569 002c 1037     		adds	r7, r7, #16
 2570              	.LCFI173:
 2571              		.cfi_def_cfa_offset 8
 2572 002e BD46     		mov	sp, r7
 2573              	.LCFI174:
 2574              		.cfi_def_cfa_register 13
 2575              		@ sp needed
 2576 0030 80BD     		pop	{r7, pc}
 2577              		.cfi_endproc
 2578              	.LFE34:
 2580              		.section	.text.lis2dw12_reset_set,"ax",%progbits
 2581              		.align	1
 2582              		.global	lis2dw12_reset_set
 2583              		.syntax unified
 2584              		.thumb
 2585              		.thumb_func
 2587              	lis2dw12_reset_set:
 2588              	.LFB35:
 892:Core/Src/lis2dw12_reg.c **** 
 893:Core/Src/lis2dw12_reg.c **** /**
 894:Core/Src/lis2dw12_reg.c ****   * @brief  Software reset. Restore the default values in user registers.[set]
 895:Core/Src/lis2dw12_reg.c ****   *
 896:Core/Src/lis2dw12_reg.c ****   * @param  ctx      read / write interface definitions
 897:Core/Src/lis2dw12_reg.c ****   * @param  val      change the values of soft_reset in reg CTRL2
 898:Core/Src/lis2dw12_reg.c ****   * @retval          interface status (MANDATORY: return 0 -> no Error)
 899:Core/Src/lis2dw12_reg.c ****   *
 900:Core/Src/lis2dw12_reg.c ****   */
 901:Core/Src/lis2dw12_reg.c **** int32_t lis2dw12_reset_set(const stmdev_ctx_t *ctx, uint8_t val)
ARM GAS  C:\Users\vct344\AppData\Local\Temp\ccePc7Ac.s 			page 61


 902:Core/Src/lis2dw12_reg.c **** {
 2589              		.loc 1 902 1
 2590              		.cfi_startproc
 2591              		@ args = 0, pretend = 0, frame = 16
 2592              		@ frame_needed = 1, uses_anonymous_args = 0
 2593 0000 80B5     		push	{r7, lr}
 2594              	.LCFI175:
 2595              		.cfi_def_cfa_offset 8
 2596              		.cfi_offset 7, -8
 2597              		.cfi_offset 14, -4
 2598 0002 84B0     		sub	sp, sp, #16
 2599              	.LCFI176:
 2600              		.cfi_def_cfa_offset 24
 2601 0004 00AF     		add	r7, sp, #0
 2602              	.LCFI177:
 2603              		.cfi_def_cfa_register 7
 2604 0006 7860     		str	r0, [r7, #4]
 2605 0008 0B46     		mov	r3, r1
 2606 000a FB70     		strb	r3, [r7, #3]
 903:Core/Src/lis2dw12_reg.c ****   lis2dw12_ctrl2_t reg;
 904:Core/Src/lis2dw12_reg.c ****   int32_t ret;
 905:Core/Src/lis2dw12_reg.c **** 
 906:Core/Src/lis2dw12_reg.c ****   ret = lis2dw12_read_reg(ctx, LIS2DW12_CTRL2, (uint8_t *) &reg, 1);
 2607              		.loc 1 906 9
 2608 000c 07F10802 		add	r2, r7, #8
 2609 0010 0123     		movs	r3, #1
 2610 0012 2121     		movs	r1, #33
 2611 0014 7868     		ldr	r0, [r7, #4]
 2612 0016 FFF7FEFF 		bl	lis2dw12_read_reg
 2613 001a F860     		str	r0, [r7, #12]
 907:Core/Src/lis2dw12_reg.c **** 
 908:Core/Src/lis2dw12_reg.c ****   if (ret == 0)
 2614              		.loc 1 908 6
 2615 001c FB68     		ldr	r3, [r7, #12]
 2616 001e 002B     		cmp	r3, #0
 2617 0020 0FD1     		bne	.L150
 909:Core/Src/lis2dw12_reg.c ****   {
 910:Core/Src/lis2dw12_reg.c ****     reg.soft_reset = val;
 2618              		.loc 1 910 20
 2619 0022 FB78     		ldrb	r3, [r7, #3]
 2620 0024 03F00103 		and	r3, r3, #1
 2621 0028 DAB2     		uxtb	r2, r3
 2622 002a 3B7A     		ldrb	r3, [r7, #8]
 2623 002c 62F38613 		bfi	r3, r2, #6, #1
 2624 0030 3B72     		strb	r3, [r7, #8]
 911:Core/Src/lis2dw12_reg.c ****     ret = lis2dw12_write_reg(ctx, LIS2DW12_CTRL2, (uint8_t *) &reg, 1);
 2625              		.loc 1 911 11
 2626 0032 07F10802 		add	r2, r7, #8
 2627 0036 0123     		movs	r3, #1
 2628 0038 2121     		movs	r1, #33
 2629 003a 7868     		ldr	r0, [r7, #4]
 2630 003c FFF7FEFF 		bl	lis2dw12_write_reg
 2631 0040 F860     		str	r0, [r7, #12]
 2632              	.L150:
 912:Core/Src/lis2dw12_reg.c ****   }
 913:Core/Src/lis2dw12_reg.c **** 
 914:Core/Src/lis2dw12_reg.c ****   return ret;
ARM GAS  C:\Users\vct344\AppData\Local\Temp\ccePc7Ac.s 			page 62


 2633              		.loc 1 914 10
 2634 0042 FB68     		ldr	r3, [r7, #12]
 915:Core/Src/lis2dw12_reg.c **** }
 2635              		.loc 1 915 1
 2636 0044 1846     		mov	r0, r3
 2637 0046 1037     		adds	r7, r7, #16
 2638              	.LCFI178:
 2639              		.cfi_def_cfa_offset 8
 2640 0048 BD46     		mov	sp, r7
 2641              	.LCFI179:
 2642              		.cfi_def_cfa_register 13
 2643              		@ sp needed
 2644 004a 80BD     		pop	{r7, pc}
 2645              		.cfi_endproc
 2646              	.LFE35:
 2648              		.section	.text.lis2dw12_reset_get,"ax",%progbits
 2649              		.align	1
 2650              		.global	lis2dw12_reset_get
 2651              		.syntax unified
 2652              		.thumb
 2653              		.thumb_func
 2655              	lis2dw12_reset_get:
 2656              	.LFB36:
 916:Core/Src/lis2dw12_reg.c **** 
 917:Core/Src/lis2dw12_reg.c **** /**
 918:Core/Src/lis2dw12_reg.c ****   * @brief  Software reset. Restore the default values in user registers.[get]
 919:Core/Src/lis2dw12_reg.c ****   *
 920:Core/Src/lis2dw12_reg.c ****   * @param  ctx      read / write interface definitions
 921:Core/Src/lis2dw12_reg.c ****   * @param  val      change the values of soft_reset in reg CTRL2
 922:Core/Src/lis2dw12_reg.c ****   * @retval          interface status (MANDATORY: return 0 -> no Error)
 923:Core/Src/lis2dw12_reg.c ****   *
 924:Core/Src/lis2dw12_reg.c ****   */
 925:Core/Src/lis2dw12_reg.c **** int32_t lis2dw12_reset_get(const stmdev_ctx_t *ctx, uint8_t *val)
 926:Core/Src/lis2dw12_reg.c **** {
 2657              		.loc 1 926 1
 2658              		.cfi_startproc
 2659              		@ args = 0, pretend = 0, frame = 16
 2660              		@ frame_needed = 1, uses_anonymous_args = 0
 2661 0000 80B5     		push	{r7, lr}
 2662              	.LCFI180:
 2663              		.cfi_def_cfa_offset 8
 2664              		.cfi_offset 7, -8
 2665              		.cfi_offset 14, -4
 2666 0002 84B0     		sub	sp, sp, #16
 2667              	.LCFI181:
 2668              		.cfi_def_cfa_offset 24
 2669 0004 00AF     		add	r7, sp, #0
 2670              	.LCFI182:
 2671              		.cfi_def_cfa_register 7
 2672 0006 7860     		str	r0, [r7, #4]
 2673 0008 3960     		str	r1, [r7]
 927:Core/Src/lis2dw12_reg.c ****   lis2dw12_ctrl2_t reg;
 928:Core/Src/lis2dw12_reg.c ****   int32_t ret;
 929:Core/Src/lis2dw12_reg.c **** 
 930:Core/Src/lis2dw12_reg.c ****   ret = lis2dw12_read_reg(ctx, LIS2DW12_CTRL2, (uint8_t *) &reg, 1);
 2674              		.loc 1 930 9
 2675 000a 07F10802 		add	r2, r7, #8
ARM GAS  C:\Users\vct344\AppData\Local\Temp\ccePc7Ac.s 			page 63


 2676 000e 0123     		movs	r3, #1
 2677 0010 2121     		movs	r1, #33
 2678 0012 7868     		ldr	r0, [r7, #4]
 2679 0014 FFF7FEFF 		bl	lis2dw12_read_reg
 2680 0018 F860     		str	r0, [r7, #12]
 931:Core/Src/lis2dw12_reg.c ****   *val = reg.soft_reset;
 2681              		.loc 1 931 13
 2682 001a 3B7A     		ldrb	r3, [r7, #8]
 2683 001c C3F38013 		ubfx	r3, r3, #6, #1
 2684 0020 DBB2     		uxtb	r3, r3
 2685 0022 1A46     		mov	r2, r3
 2686              		.loc 1 931 8
 2687 0024 3B68     		ldr	r3, [r7]
 2688 0026 1A70     		strb	r2, [r3]
 932:Core/Src/lis2dw12_reg.c **** 
 933:Core/Src/lis2dw12_reg.c ****   return ret;
 2689              		.loc 1 933 10
 2690 0028 FB68     		ldr	r3, [r7, #12]
 934:Core/Src/lis2dw12_reg.c **** }
 2691              		.loc 1 934 1
 2692 002a 1846     		mov	r0, r3
 2693 002c 1037     		adds	r7, r7, #16
 2694              	.LCFI183:
 2695              		.cfi_def_cfa_offset 8
 2696 002e BD46     		mov	sp, r7
 2697              	.LCFI184:
 2698              		.cfi_def_cfa_register 13
 2699              		@ sp needed
 2700 0030 80BD     		pop	{r7, pc}
 2701              		.cfi_endproc
 2702              	.LFE36:
 2704              		.section	.text.lis2dw12_boot_set,"ax",%progbits
 2705              		.align	1
 2706              		.global	lis2dw12_boot_set
 2707              		.syntax unified
 2708              		.thumb
 2709              		.thumb_func
 2711              	lis2dw12_boot_set:
 2712              	.LFB37:
 935:Core/Src/lis2dw12_reg.c **** 
 936:Core/Src/lis2dw12_reg.c **** /**
 937:Core/Src/lis2dw12_reg.c ****   * @brief  Reboot memory content. Reload the calibration parameters.[set]
 938:Core/Src/lis2dw12_reg.c ****   *
 939:Core/Src/lis2dw12_reg.c ****   * @param  ctx      read / write interface definitions
 940:Core/Src/lis2dw12_reg.c ****   * @param  val      change the values of boot in reg CTRL2
 941:Core/Src/lis2dw12_reg.c ****   * @retval          interface status (MANDATORY: return 0 -> no Error)
 942:Core/Src/lis2dw12_reg.c ****   *
 943:Core/Src/lis2dw12_reg.c ****   */
 944:Core/Src/lis2dw12_reg.c **** int32_t lis2dw12_boot_set(const stmdev_ctx_t *ctx, uint8_t val)
 945:Core/Src/lis2dw12_reg.c **** {
 2713              		.loc 1 945 1
 2714              		.cfi_startproc
 2715              		@ args = 0, pretend = 0, frame = 16
 2716              		@ frame_needed = 1, uses_anonymous_args = 0
 2717 0000 80B5     		push	{r7, lr}
 2718              	.LCFI185:
 2719              		.cfi_def_cfa_offset 8
ARM GAS  C:\Users\vct344\AppData\Local\Temp\ccePc7Ac.s 			page 64


 2720              		.cfi_offset 7, -8
 2721              		.cfi_offset 14, -4
 2722 0002 84B0     		sub	sp, sp, #16
 2723              	.LCFI186:
 2724              		.cfi_def_cfa_offset 24
 2725 0004 00AF     		add	r7, sp, #0
 2726              	.LCFI187:
 2727              		.cfi_def_cfa_register 7
 2728 0006 7860     		str	r0, [r7, #4]
 2729 0008 0B46     		mov	r3, r1
 2730 000a FB70     		strb	r3, [r7, #3]
 946:Core/Src/lis2dw12_reg.c ****   lis2dw12_ctrl2_t reg;
 947:Core/Src/lis2dw12_reg.c ****   int32_t ret;
 948:Core/Src/lis2dw12_reg.c **** 
 949:Core/Src/lis2dw12_reg.c ****   ret = lis2dw12_read_reg(ctx, LIS2DW12_CTRL2, (uint8_t *) &reg, 1);
 2731              		.loc 1 949 9
 2732 000c 07F10802 		add	r2, r7, #8
 2733 0010 0123     		movs	r3, #1
 2734 0012 2121     		movs	r1, #33
 2735 0014 7868     		ldr	r0, [r7, #4]
 2736 0016 FFF7FEFF 		bl	lis2dw12_read_reg
 2737 001a F860     		str	r0, [r7, #12]
 950:Core/Src/lis2dw12_reg.c **** 
 951:Core/Src/lis2dw12_reg.c ****   if (ret == 0)
 2738              		.loc 1 951 6
 2739 001c FB68     		ldr	r3, [r7, #12]
 2740 001e 002B     		cmp	r3, #0
 2741 0020 0FD1     		bne	.L155
 952:Core/Src/lis2dw12_reg.c ****   {
 953:Core/Src/lis2dw12_reg.c ****     reg.boot = val;
 2742              		.loc 1 953 14
 2743 0022 FB78     		ldrb	r3, [r7, #3]
 2744 0024 03F00103 		and	r3, r3, #1
 2745 0028 DAB2     		uxtb	r2, r3
 2746 002a 3B7A     		ldrb	r3, [r7, #8]
 2747 002c 62F3C713 		bfi	r3, r2, #7, #1
 2748 0030 3B72     		strb	r3, [r7, #8]
 954:Core/Src/lis2dw12_reg.c ****     ret = lis2dw12_write_reg(ctx, LIS2DW12_CTRL2, (uint8_t *) &reg, 1);
 2749              		.loc 1 954 11
 2750 0032 07F10802 		add	r2, r7, #8
 2751 0036 0123     		movs	r3, #1
 2752 0038 2121     		movs	r1, #33
 2753 003a 7868     		ldr	r0, [r7, #4]
 2754 003c FFF7FEFF 		bl	lis2dw12_write_reg
 2755 0040 F860     		str	r0, [r7, #12]
 2756              	.L155:
 955:Core/Src/lis2dw12_reg.c ****   }
 956:Core/Src/lis2dw12_reg.c **** 
 957:Core/Src/lis2dw12_reg.c ****   return ret;
 2757              		.loc 1 957 10
 2758 0042 FB68     		ldr	r3, [r7, #12]
 958:Core/Src/lis2dw12_reg.c **** }
 2759              		.loc 1 958 1
 2760 0044 1846     		mov	r0, r3
 2761 0046 1037     		adds	r7, r7, #16
 2762              	.LCFI188:
 2763              		.cfi_def_cfa_offset 8
ARM GAS  C:\Users\vct344\AppData\Local\Temp\ccePc7Ac.s 			page 65


 2764 0048 BD46     		mov	sp, r7
 2765              	.LCFI189:
 2766              		.cfi_def_cfa_register 13
 2767              		@ sp needed
 2768 004a 80BD     		pop	{r7, pc}
 2769              		.cfi_endproc
 2770              	.LFE37:
 2772              		.section	.text.lis2dw12_boot_get,"ax",%progbits
 2773              		.align	1
 2774              		.global	lis2dw12_boot_get
 2775              		.syntax unified
 2776              		.thumb
 2777              		.thumb_func
 2779              	lis2dw12_boot_get:
 2780              	.LFB38:
 959:Core/Src/lis2dw12_reg.c **** 
 960:Core/Src/lis2dw12_reg.c **** /**
 961:Core/Src/lis2dw12_reg.c ****   * @brief  Reboot memory content. Reload the calibration parameters.[get]
 962:Core/Src/lis2dw12_reg.c ****   *
 963:Core/Src/lis2dw12_reg.c ****   * @param  ctx      read / write interface definitions
 964:Core/Src/lis2dw12_reg.c ****   * @param  val      change the values of boot in reg CTRL2
 965:Core/Src/lis2dw12_reg.c ****   * @retval          interface status (MANDATORY: return 0 -> no Error)
 966:Core/Src/lis2dw12_reg.c ****   *
 967:Core/Src/lis2dw12_reg.c ****   */
 968:Core/Src/lis2dw12_reg.c **** int32_t lis2dw12_boot_get(const stmdev_ctx_t *ctx, uint8_t *val)
 969:Core/Src/lis2dw12_reg.c **** {
 2781              		.loc 1 969 1
 2782              		.cfi_startproc
 2783              		@ args = 0, pretend = 0, frame = 16
 2784              		@ frame_needed = 1, uses_anonymous_args = 0
 2785 0000 80B5     		push	{r7, lr}
 2786              	.LCFI190:
 2787              		.cfi_def_cfa_offset 8
 2788              		.cfi_offset 7, -8
 2789              		.cfi_offset 14, -4
 2790 0002 84B0     		sub	sp, sp, #16
 2791              	.LCFI191:
 2792              		.cfi_def_cfa_offset 24
 2793 0004 00AF     		add	r7, sp, #0
 2794              	.LCFI192:
 2795              		.cfi_def_cfa_register 7
 2796 0006 7860     		str	r0, [r7, #4]
 2797 0008 3960     		str	r1, [r7]
 970:Core/Src/lis2dw12_reg.c ****   lis2dw12_ctrl2_t reg;
 971:Core/Src/lis2dw12_reg.c ****   int32_t ret;
 972:Core/Src/lis2dw12_reg.c **** 
 973:Core/Src/lis2dw12_reg.c ****   ret = lis2dw12_read_reg(ctx, LIS2DW12_CTRL2, (uint8_t *) &reg, 1);
 2798              		.loc 1 973 9
 2799 000a 07F10802 		add	r2, r7, #8
 2800 000e 0123     		movs	r3, #1
 2801 0010 2121     		movs	r1, #33
 2802 0012 7868     		ldr	r0, [r7, #4]
 2803 0014 FFF7FEFF 		bl	lis2dw12_read_reg
 2804 0018 F860     		str	r0, [r7, #12]
 974:Core/Src/lis2dw12_reg.c ****   *val = reg.boot;
 2805              		.loc 1 974 13
 2806 001a 3B7A     		ldrb	r3, [r7, #8]
ARM GAS  C:\Users\vct344\AppData\Local\Temp\ccePc7Ac.s 			page 66


 2807 001c C3F3C013 		ubfx	r3, r3, #7, #1
 2808 0020 DBB2     		uxtb	r3, r3
 2809 0022 1A46     		mov	r2, r3
 2810              		.loc 1 974 8
 2811 0024 3B68     		ldr	r3, [r7]
 2812 0026 1A70     		strb	r2, [r3]
 975:Core/Src/lis2dw12_reg.c **** 
 976:Core/Src/lis2dw12_reg.c ****   return ret;
 2813              		.loc 1 976 10
 2814 0028 FB68     		ldr	r3, [r7, #12]
 977:Core/Src/lis2dw12_reg.c **** }
 2815              		.loc 1 977 1
 2816 002a 1846     		mov	r0, r3
 2817 002c 1037     		adds	r7, r7, #16
 2818              	.LCFI193:
 2819              		.cfi_def_cfa_offset 8
 2820 002e BD46     		mov	sp, r7
 2821              	.LCFI194:
 2822              		.cfi_def_cfa_register 13
 2823              		@ sp needed
 2824 0030 80BD     		pop	{r7, pc}
 2825              		.cfi_endproc
 2826              	.LFE38:
 2828              		.section	.text.lis2dw12_self_test_set,"ax",%progbits
 2829              		.align	1
 2830              		.global	lis2dw12_self_test_set
 2831              		.syntax unified
 2832              		.thumb
 2833              		.thumb_func
 2835              	lis2dw12_self_test_set:
 2836              	.LFB39:
 978:Core/Src/lis2dw12_reg.c **** 
 979:Core/Src/lis2dw12_reg.c **** /**
 980:Core/Src/lis2dw12_reg.c ****   * @brief  Sensor self-test enable.[set]
 981:Core/Src/lis2dw12_reg.c ****   *
 982:Core/Src/lis2dw12_reg.c ****   * @param  ctx      read / write interface definitions
 983:Core/Src/lis2dw12_reg.c ****   * @param  val      change the values of st in reg CTRL3
 984:Core/Src/lis2dw12_reg.c ****   * @retval          interface status (MANDATORY: return 0 -> no Error)
 985:Core/Src/lis2dw12_reg.c ****   *
 986:Core/Src/lis2dw12_reg.c ****   */
 987:Core/Src/lis2dw12_reg.c **** int32_t lis2dw12_self_test_set(const stmdev_ctx_t *ctx, lis2dw12_st_t val)
 988:Core/Src/lis2dw12_reg.c **** {
 2837              		.loc 1 988 1
 2838              		.cfi_startproc
 2839              		@ args = 0, pretend = 0, frame = 16
 2840              		@ frame_needed = 1, uses_anonymous_args = 0
 2841 0000 80B5     		push	{r7, lr}
 2842              	.LCFI195:
 2843              		.cfi_def_cfa_offset 8
 2844              		.cfi_offset 7, -8
 2845              		.cfi_offset 14, -4
 2846 0002 84B0     		sub	sp, sp, #16
 2847              	.LCFI196:
 2848              		.cfi_def_cfa_offset 24
 2849 0004 00AF     		add	r7, sp, #0
 2850              	.LCFI197:
 2851              		.cfi_def_cfa_register 7
ARM GAS  C:\Users\vct344\AppData\Local\Temp\ccePc7Ac.s 			page 67


 2852 0006 7860     		str	r0, [r7, #4]
 2853 0008 0B46     		mov	r3, r1
 2854 000a FB70     		strb	r3, [r7, #3]
 989:Core/Src/lis2dw12_reg.c ****   lis2dw12_ctrl3_t reg;
 990:Core/Src/lis2dw12_reg.c ****   int32_t ret;
 991:Core/Src/lis2dw12_reg.c **** 
 992:Core/Src/lis2dw12_reg.c ****   ret = lis2dw12_read_reg(ctx, LIS2DW12_CTRL3, (uint8_t *) &reg, 1);
 2855              		.loc 1 992 9
 2856 000c 07F10802 		add	r2, r7, #8
 2857 0010 0123     		movs	r3, #1
 2858 0012 2221     		movs	r1, #34
 2859 0014 7868     		ldr	r0, [r7, #4]
 2860 0016 FFF7FEFF 		bl	lis2dw12_read_reg
 2861 001a F860     		str	r0, [r7, #12]
 993:Core/Src/lis2dw12_reg.c **** 
 994:Core/Src/lis2dw12_reg.c ****   if (ret == 0)
 2862              		.loc 1 994 6
 2863 001c FB68     		ldr	r3, [r7, #12]
 2864 001e 002B     		cmp	r3, #0
 2865 0020 0FD1     		bne	.L160
 995:Core/Src/lis2dw12_reg.c ****   {
 996:Core/Src/lis2dw12_reg.c ****     reg.st = (uint8_t) val;
 2866              		.loc 1 996 14
 2867 0022 FB78     		ldrb	r3, [r7, #3]
 2868 0024 03F00303 		and	r3, r3, #3
 2869 0028 DAB2     		uxtb	r2, r3
 2870              		.loc 1 996 12
 2871 002a 3B7A     		ldrb	r3, [r7, #8]
 2872 002c 62F38713 		bfi	r3, r2, #6, #2
 2873 0030 3B72     		strb	r3, [r7, #8]
 997:Core/Src/lis2dw12_reg.c ****     ret = lis2dw12_write_reg(ctx, LIS2DW12_CTRL3, (uint8_t *) &reg, 1);
 2874              		.loc 1 997 11
 2875 0032 07F10802 		add	r2, r7, #8
 2876 0036 0123     		movs	r3, #1
 2877 0038 2221     		movs	r1, #34
 2878 003a 7868     		ldr	r0, [r7, #4]
 2879 003c FFF7FEFF 		bl	lis2dw12_write_reg
 2880 0040 F860     		str	r0, [r7, #12]
 2881              	.L160:
 998:Core/Src/lis2dw12_reg.c ****   }
 999:Core/Src/lis2dw12_reg.c **** 
1000:Core/Src/lis2dw12_reg.c ****   return ret;
 2882              		.loc 1 1000 10
 2883 0042 FB68     		ldr	r3, [r7, #12]
1001:Core/Src/lis2dw12_reg.c **** }
 2884              		.loc 1 1001 1
 2885 0044 1846     		mov	r0, r3
 2886 0046 1037     		adds	r7, r7, #16
 2887              	.LCFI198:
 2888              		.cfi_def_cfa_offset 8
 2889 0048 BD46     		mov	sp, r7
 2890              	.LCFI199:
 2891              		.cfi_def_cfa_register 13
 2892              		@ sp needed
 2893 004a 80BD     		pop	{r7, pc}
 2894              		.cfi_endproc
 2895              	.LFE39:
ARM GAS  C:\Users\vct344\AppData\Local\Temp\ccePc7Ac.s 			page 68


 2897              		.section	.text.lis2dw12_self_test_get,"ax",%progbits
 2898              		.align	1
 2899              		.global	lis2dw12_self_test_get
 2900              		.syntax unified
 2901              		.thumb
 2902              		.thumb_func
 2904              	lis2dw12_self_test_get:
 2905              	.LFB40:
1002:Core/Src/lis2dw12_reg.c **** 
1003:Core/Src/lis2dw12_reg.c **** /**
1004:Core/Src/lis2dw12_reg.c ****   * @brief  Sensor self-test enable.[get]
1005:Core/Src/lis2dw12_reg.c ****   *
1006:Core/Src/lis2dw12_reg.c ****   * @param  ctx      read / write interface definitions
1007:Core/Src/lis2dw12_reg.c ****   * @param  val      Get the values of st in reg CTRL3
1008:Core/Src/lis2dw12_reg.c ****   * @retval          interface status (MANDATORY: return 0 -> no Error)
1009:Core/Src/lis2dw12_reg.c ****   *
1010:Core/Src/lis2dw12_reg.c ****   */
1011:Core/Src/lis2dw12_reg.c **** int32_t lis2dw12_self_test_get(const stmdev_ctx_t *ctx, lis2dw12_st_t *val)
1012:Core/Src/lis2dw12_reg.c **** {
 2906              		.loc 1 1012 1
 2907              		.cfi_startproc
 2908              		@ args = 0, pretend = 0, frame = 16
 2909              		@ frame_needed = 1, uses_anonymous_args = 0
 2910 0000 80B5     		push	{r7, lr}
 2911              	.LCFI200:
 2912              		.cfi_def_cfa_offset 8
 2913              		.cfi_offset 7, -8
 2914              		.cfi_offset 14, -4
 2915 0002 84B0     		sub	sp, sp, #16
 2916              	.LCFI201:
 2917              		.cfi_def_cfa_offset 24
 2918 0004 00AF     		add	r7, sp, #0
 2919              	.LCFI202:
 2920              		.cfi_def_cfa_register 7
 2921 0006 7860     		str	r0, [r7, #4]
 2922 0008 3960     		str	r1, [r7]
1013:Core/Src/lis2dw12_reg.c ****   lis2dw12_ctrl3_t reg;
1014:Core/Src/lis2dw12_reg.c ****   int32_t ret;
1015:Core/Src/lis2dw12_reg.c **** 
1016:Core/Src/lis2dw12_reg.c ****   ret = lis2dw12_read_reg(ctx, LIS2DW12_CTRL3, (uint8_t *) &reg, 1);
 2923              		.loc 1 1016 9
 2924 000a 07F10802 		add	r2, r7, #8
 2925 000e 0123     		movs	r3, #1
 2926 0010 2221     		movs	r1, #34
 2927 0012 7868     		ldr	r0, [r7, #4]
 2928 0014 FFF7FEFF 		bl	lis2dw12_read_reg
 2929 0018 F860     		str	r0, [r7, #12]
1017:Core/Src/lis2dw12_reg.c **** 
1018:Core/Src/lis2dw12_reg.c ****   switch (reg.st)
 2930              		.loc 1 1018 14
 2931 001a 3B7A     		ldrb	r3, [r7, #8]
 2932 001c C3F38113 		ubfx	r3, r3, #6, #2
 2933 0020 DBB2     		uxtb	r3, r3
 2934              		.loc 1 1018 3
 2935 0022 022B     		cmp	r3, #2
 2936 0024 0ED0     		beq	.L163
 2937 0026 022B     		cmp	r3, #2
ARM GAS  C:\Users\vct344\AppData\Local\Temp\ccePc7Ac.s 			page 69


 2938 0028 10DC     		bgt	.L164
 2939 002a 002B     		cmp	r3, #0
 2940 002c 02D0     		beq	.L165
 2941 002e 012B     		cmp	r3, #1
 2942 0030 04D0     		beq	.L166
 2943 0032 0BE0     		b	.L164
 2944              	.L165:
1019:Core/Src/lis2dw12_reg.c ****   {
1020:Core/Src/lis2dw12_reg.c ****     case LIS2DW12_XL_ST_DISABLE:
1021:Core/Src/lis2dw12_reg.c ****       *val = LIS2DW12_XL_ST_DISABLE;
 2945              		.loc 1 1021 12
 2946 0034 3B68     		ldr	r3, [r7]
 2947 0036 0022     		movs	r2, #0
 2948 0038 1A70     		strb	r2, [r3]
1022:Core/Src/lis2dw12_reg.c ****       break;
 2949              		.loc 1 1022 7
 2950 003a 0BE0     		b	.L167
 2951              	.L166:
1023:Core/Src/lis2dw12_reg.c **** 
1024:Core/Src/lis2dw12_reg.c ****     case LIS2DW12_XL_ST_POSITIVE:
1025:Core/Src/lis2dw12_reg.c ****       *val = LIS2DW12_XL_ST_POSITIVE;
 2952              		.loc 1 1025 12
 2953 003c 3B68     		ldr	r3, [r7]
 2954 003e 0122     		movs	r2, #1
 2955 0040 1A70     		strb	r2, [r3]
1026:Core/Src/lis2dw12_reg.c ****       break;
 2956              		.loc 1 1026 7
 2957 0042 07E0     		b	.L167
 2958              	.L163:
1027:Core/Src/lis2dw12_reg.c **** 
1028:Core/Src/lis2dw12_reg.c ****     case LIS2DW12_XL_ST_NEGATIVE:
1029:Core/Src/lis2dw12_reg.c ****       *val = LIS2DW12_XL_ST_NEGATIVE;
 2959              		.loc 1 1029 12
 2960 0044 3B68     		ldr	r3, [r7]
 2961 0046 0222     		movs	r2, #2
 2962 0048 1A70     		strb	r2, [r3]
1030:Core/Src/lis2dw12_reg.c ****       break;
 2963              		.loc 1 1030 7
 2964 004a 03E0     		b	.L167
 2965              	.L164:
1031:Core/Src/lis2dw12_reg.c **** 
1032:Core/Src/lis2dw12_reg.c ****     default:
1033:Core/Src/lis2dw12_reg.c ****       *val = LIS2DW12_XL_ST_DISABLE;
 2966              		.loc 1 1033 12
 2967 004c 3B68     		ldr	r3, [r7]
 2968 004e 0022     		movs	r2, #0
 2969 0050 1A70     		strb	r2, [r3]
1034:Core/Src/lis2dw12_reg.c ****       break;
 2970              		.loc 1 1034 7
 2971 0052 00BF     		nop
 2972              	.L167:
1035:Core/Src/lis2dw12_reg.c ****   }
1036:Core/Src/lis2dw12_reg.c **** 
1037:Core/Src/lis2dw12_reg.c ****   return ret;
 2973              		.loc 1 1037 10
 2974 0054 FB68     		ldr	r3, [r7, #12]
1038:Core/Src/lis2dw12_reg.c **** }
ARM GAS  C:\Users\vct344\AppData\Local\Temp\ccePc7Ac.s 			page 70


 2975              		.loc 1 1038 1
 2976 0056 1846     		mov	r0, r3
 2977 0058 1037     		adds	r7, r7, #16
 2978              	.LCFI203:
 2979              		.cfi_def_cfa_offset 8
 2980 005a BD46     		mov	sp, r7
 2981              	.LCFI204:
 2982              		.cfi_def_cfa_register 13
 2983              		@ sp needed
 2984 005c 80BD     		pop	{r7, pc}
 2985              		.cfi_endproc
 2986              	.LFE40:
 2988              		.section	.text.lis2dw12_data_ready_mode_set,"ax",%progbits
 2989              		.align	1
 2990              		.global	lis2dw12_data_ready_mode_set
 2991              		.syntax unified
 2992              		.thumb
 2993              		.thumb_func
 2995              	lis2dw12_data_ready_mode_set:
 2996              	.LFB41:
1039:Core/Src/lis2dw12_reg.c **** 
1040:Core/Src/lis2dw12_reg.c **** /**
1041:Core/Src/lis2dw12_reg.c ****   * @brief  Data-ready pulsed / letched mode.[set]
1042:Core/Src/lis2dw12_reg.c ****   *
1043:Core/Src/lis2dw12_reg.c ****   * @param  ctx      read / write interface definitions
1044:Core/Src/lis2dw12_reg.c ****   * @param  val      change the values of drdy_pulsed in reg CTRL_REG7
1045:Core/Src/lis2dw12_reg.c ****   * @retval          interface status (MANDATORY: return 0 -> no Error)
1046:Core/Src/lis2dw12_reg.c ****   *
1047:Core/Src/lis2dw12_reg.c ****   */
1048:Core/Src/lis2dw12_reg.c **** int32_t lis2dw12_data_ready_mode_set(const stmdev_ctx_t *ctx,
1049:Core/Src/lis2dw12_reg.c ****                                      lis2dw12_drdy_pulsed_t val)
1050:Core/Src/lis2dw12_reg.c **** {
 2997              		.loc 1 1050 1
 2998              		.cfi_startproc
 2999              		@ args = 0, pretend = 0, frame = 16
 3000              		@ frame_needed = 1, uses_anonymous_args = 0
 3001 0000 80B5     		push	{r7, lr}
 3002              	.LCFI205:
 3003              		.cfi_def_cfa_offset 8
 3004              		.cfi_offset 7, -8
 3005              		.cfi_offset 14, -4
 3006 0002 84B0     		sub	sp, sp, #16
 3007              	.LCFI206:
 3008              		.cfi_def_cfa_offset 24
 3009 0004 00AF     		add	r7, sp, #0
 3010              	.LCFI207:
 3011              		.cfi_def_cfa_register 7
 3012 0006 7860     		str	r0, [r7, #4]
 3013 0008 0B46     		mov	r3, r1
 3014 000a FB70     		strb	r3, [r7, #3]
1051:Core/Src/lis2dw12_reg.c ****   lis2dw12_ctrl_reg7_t reg;
1052:Core/Src/lis2dw12_reg.c ****   int32_t ret;
1053:Core/Src/lis2dw12_reg.c **** 
1054:Core/Src/lis2dw12_reg.c ****   ret = lis2dw12_read_reg(ctx, LIS2DW12_CTRL_REG7, (uint8_t *) &reg, 1);
 3015              		.loc 1 1054 9
 3016 000c 07F10802 		add	r2, r7, #8
 3017 0010 0123     		movs	r3, #1
ARM GAS  C:\Users\vct344\AppData\Local\Temp\ccePc7Ac.s 			page 71


 3018 0012 3F21     		movs	r1, #63
 3019 0014 7868     		ldr	r0, [r7, #4]
 3020 0016 FFF7FEFF 		bl	lis2dw12_read_reg
 3021 001a F860     		str	r0, [r7, #12]
1055:Core/Src/lis2dw12_reg.c **** 
1056:Core/Src/lis2dw12_reg.c ****   if (ret == 0)
 3022              		.loc 1 1056 6
 3023 001c FB68     		ldr	r3, [r7, #12]
 3024 001e 002B     		cmp	r3, #0
 3025 0020 0FD1     		bne	.L170
1057:Core/Src/lis2dw12_reg.c ****   {
1058:Core/Src/lis2dw12_reg.c ****     reg.drdy_pulsed = (uint8_t) val;
 3026              		.loc 1 1058 23
 3027 0022 FB78     		ldrb	r3, [r7, #3]
 3028 0024 03F00103 		and	r3, r3, #1
 3029 0028 DAB2     		uxtb	r2, r3
 3030              		.loc 1 1058 21
 3031 002a 3B7A     		ldrb	r3, [r7, #8]
 3032 002c 62F3C713 		bfi	r3, r2, #7, #1
 3033 0030 3B72     		strb	r3, [r7, #8]
1059:Core/Src/lis2dw12_reg.c ****     ret = lis2dw12_write_reg(ctx, LIS2DW12_CTRL_REG7, (uint8_t *) &reg, 1);
 3034              		.loc 1 1059 11
 3035 0032 07F10802 		add	r2, r7, #8
 3036 0036 0123     		movs	r3, #1
 3037 0038 3F21     		movs	r1, #63
 3038 003a 7868     		ldr	r0, [r7, #4]
 3039 003c FFF7FEFF 		bl	lis2dw12_write_reg
 3040 0040 F860     		str	r0, [r7, #12]
 3041              	.L170:
1060:Core/Src/lis2dw12_reg.c ****   }
1061:Core/Src/lis2dw12_reg.c **** 
1062:Core/Src/lis2dw12_reg.c ****   return ret;
 3042              		.loc 1 1062 10
 3043 0042 FB68     		ldr	r3, [r7, #12]
1063:Core/Src/lis2dw12_reg.c **** }
 3044              		.loc 1 1063 1
 3045 0044 1846     		mov	r0, r3
 3046 0046 1037     		adds	r7, r7, #16
 3047              	.LCFI208:
 3048              		.cfi_def_cfa_offset 8
 3049 0048 BD46     		mov	sp, r7
 3050              	.LCFI209:
 3051              		.cfi_def_cfa_register 13
 3052              		@ sp needed
 3053 004a 80BD     		pop	{r7, pc}
 3054              		.cfi_endproc
 3055              	.LFE41:
 3057              		.section	.text.lis2dw12_data_ready_mode_get,"ax",%progbits
 3058              		.align	1
 3059              		.global	lis2dw12_data_ready_mode_get
 3060              		.syntax unified
 3061              		.thumb
 3062              		.thumb_func
 3064              	lis2dw12_data_ready_mode_get:
 3065              	.LFB42:
1064:Core/Src/lis2dw12_reg.c **** 
1065:Core/Src/lis2dw12_reg.c **** /**
ARM GAS  C:\Users\vct344\AppData\Local\Temp\ccePc7Ac.s 			page 72


1066:Core/Src/lis2dw12_reg.c ****   * @brief  Data-ready pulsed / letched mode.[get]
1067:Core/Src/lis2dw12_reg.c ****   *
1068:Core/Src/lis2dw12_reg.c ****   * @param  ctx      read / write interface definitions
1069:Core/Src/lis2dw12_reg.c ****   * @param  val      Get the values of drdy_pulsed in reg CTRL_REG7
1070:Core/Src/lis2dw12_reg.c ****   * @retval          interface status (MANDATORY: return 0 -> no Error)
1071:Core/Src/lis2dw12_reg.c ****   *
1072:Core/Src/lis2dw12_reg.c ****   */
1073:Core/Src/lis2dw12_reg.c **** int32_t lis2dw12_data_ready_mode_get(const stmdev_ctx_t *ctx,
1074:Core/Src/lis2dw12_reg.c ****                                      lis2dw12_drdy_pulsed_t *val)
1075:Core/Src/lis2dw12_reg.c **** {
 3066              		.loc 1 1075 1
 3067              		.cfi_startproc
 3068              		@ args = 0, pretend = 0, frame = 16
 3069              		@ frame_needed = 1, uses_anonymous_args = 0
 3070 0000 80B5     		push	{r7, lr}
 3071              	.LCFI210:
 3072              		.cfi_def_cfa_offset 8
 3073              		.cfi_offset 7, -8
 3074              		.cfi_offset 14, -4
 3075 0002 84B0     		sub	sp, sp, #16
 3076              	.LCFI211:
 3077              		.cfi_def_cfa_offset 24
 3078 0004 00AF     		add	r7, sp, #0
 3079              	.LCFI212:
 3080              		.cfi_def_cfa_register 7
 3081 0006 7860     		str	r0, [r7, #4]
 3082 0008 3960     		str	r1, [r7]
1076:Core/Src/lis2dw12_reg.c ****   lis2dw12_ctrl_reg7_t reg;
1077:Core/Src/lis2dw12_reg.c ****   int32_t ret;
1078:Core/Src/lis2dw12_reg.c **** 
1079:Core/Src/lis2dw12_reg.c ****   ret = lis2dw12_read_reg(ctx, LIS2DW12_CTRL_REG7, (uint8_t *) &reg, 1);
 3083              		.loc 1 1079 9
 3084 000a 07F10802 		add	r2, r7, #8
 3085 000e 0123     		movs	r3, #1
 3086 0010 3F21     		movs	r1, #63
 3087 0012 7868     		ldr	r0, [r7, #4]
 3088 0014 FFF7FEFF 		bl	lis2dw12_read_reg
 3089 0018 F860     		str	r0, [r7, #12]
1080:Core/Src/lis2dw12_reg.c **** 
1081:Core/Src/lis2dw12_reg.c ****   switch (reg.drdy_pulsed)
 3090              		.loc 1 1081 14
 3091 001a 3B7A     		ldrb	r3, [r7, #8]
 3092 001c C3F3C013 		ubfx	r3, r3, #7, #1
 3093 0020 DBB2     		uxtb	r3, r3
 3094              		.loc 1 1081 3
 3095 0022 002B     		cmp	r3, #0
 3096 0024 02D0     		beq	.L173
 3097 0026 012B     		cmp	r3, #1
 3098 0028 04D0     		beq	.L174
 3099 002a 07E0     		b	.L178
 3100              	.L173:
1082:Core/Src/lis2dw12_reg.c ****   {
1083:Core/Src/lis2dw12_reg.c ****     case LIS2DW12_DRDY_LATCHED:
1084:Core/Src/lis2dw12_reg.c ****       *val = LIS2DW12_DRDY_LATCHED;
 3101              		.loc 1 1084 12
 3102 002c 3B68     		ldr	r3, [r7]
 3103 002e 0022     		movs	r2, #0
ARM GAS  C:\Users\vct344\AppData\Local\Temp\ccePc7Ac.s 			page 73


 3104 0030 1A70     		strb	r2, [r3]
1085:Core/Src/lis2dw12_reg.c ****       break;
 3105              		.loc 1 1085 7
 3106 0032 07E0     		b	.L176
 3107              	.L174:
1086:Core/Src/lis2dw12_reg.c **** 
1087:Core/Src/lis2dw12_reg.c ****     case LIS2DW12_DRDY_PULSED:
1088:Core/Src/lis2dw12_reg.c ****       *val = LIS2DW12_DRDY_PULSED;
 3108              		.loc 1 1088 12
 3109 0034 3B68     		ldr	r3, [r7]
 3110 0036 0122     		movs	r2, #1
 3111 0038 1A70     		strb	r2, [r3]
1089:Core/Src/lis2dw12_reg.c ****       break;
 3112              		.loc 1 1089 7
 3113 003a 03E0     		b	.L176
 3114              	.L178:
1090:Core/Src/lis2dw12_reg.c **** 
1091:Core/Src/lis2dw12_reg.c ****     default:
1092:Core/Src/lis2dw12_reg.c ****       *val = LIS2DW12_DRDY_LATCHED;
 3115              		.loc 1 1092 12
 3116 003c 3B68     		ldr	r3, [r7]
 3117 003e 0022     		movs	r2, #0
 3118 0040 1A70     		strb	r2, [r3]
1093:Core/Src/lis2dw12_reg.c ****       break;
 3119              		.loc 1 1093 7
 3120 0042 00BF     		nop
 3121              	.L176:
1094:Core/Src/lis2dw12_reg.c ****   }
1095:Core/Src/lis2dw12_reg.c **** 
1096:Core/Src/lis2dw12_reg.c ****   return ret;
 3122              		.loc 1 1096 10
 3123 0044 FB68     		ldr	r3, [r7, #12]
1097:Core/Src/lis2dw12_reg.c **** }
 3124              		.loc 1 1097 1
 3125 0046 1846     		mov	r0, r3
 3126 0048 1037     		adds	r7, r7, #16
 3127              	.LCFI213:
 3128              		.cfi_def_cfa_offset 8
 3129 004a BD46     		mov	sp, r7
 3130              	.LCFI214:
 3131              		.cfi_def_cfa_register 13
 3132              		@ sp needed
 3133 004c 80BD     		pop	{r7, pc}
 3134              		.cfi_endproc
 3135              	.LFE42:
 3137              		.section	.text.lis2dw12_filter_path_set,"ax",%progbits
 3138              		.align	1
 3139              		.global	lis2dw12_filter_path_set
 3140              		.syntax unified
 3141              		.thumb
 3142              		.thumb_func
 3144              	lis2dw12_filter_path_set:
 3145              	.LFB43:
1098:Core/Src/lis2dw12_reg.c **** 
1099:Core/Src/lis2dw12_reg.c **** /**
1100:Core/Src/lis2dw12_reg.c ****   * @}
1101:Core/Src/lis2dw12_reg.c ****   *
ARM GAS  C:\Users\vct344\AppData\Local\Temp\ccePc7Ac.s 			page 74


1102:Core/Src/lis2dw12_reg.c ****   */
1103:Core/Src/lis2dw12_reg.c **** 
1104:Core/Src/lis2dw12_reg.c **** /**
1105:Core/Src/lis2dw12_reg.c ****   * @defgroup  LIS2DW12_Filters
1106:Core/Src/lis2dw12_reg.c ****   * @brief     This section group all the functions concerning the filters
1107:Core/Src/lis2dw12_reg.c ****   *            configuration.
1108:Core/Src/lis2dw12_reg.c ****   * @{
1109:Core/Src/lis2dw12_reg.c ****   *
1110:Core/Src/lis2dw12_reg.c ****   */
1111:Core/Src/lis2dw12_reg.c **** 
1112:Core/Src/lis2dw12_reg.c **** /**
1113:Core/Src/lis2dw12_reg.c ****   * @brief  Accelerometer filtering path for outputs.[set]
1114:Core/Src/lis2dw12_reg.c ****   *
1115:Core/Src/lis2dw12_reg.c ****   * @param  ctx      read / write interface definitions
1116:Core/Src/lis2dw12_reg.c ****   * @param  val      change the values of fds in reg CTRL6
1117:Core/Src/lis2dw12_reg.c ****   * @retval          interface status (MANDATORY: return 0 -> no Error)
1118:Core/Src/lis2dw12_reg.c ****   *
1119:Core/Src/lis2dw12_reg.c ****   */
1120:Core/Src/lis2dw12_reg.c **** int32_t lis2dw12_filter_path_set(const stmdev_ctx_t *ctx,
1121:Core/Src/lis2dw12_reg.c ****                                  lis2dw12_fds_t val)
1122:Core/Src/lis2dw12_reg.c **** {
 3146              		.loc 1 1122 1
 3147              		.cfi_startproc
 3148              		@ args = 0, pretend = 0, frame = 24
 3149              		@ frame_needed = 1, uses_anonymous_args = 0
 3150 0000 80B5     		push	{r7, lr}
 3151              	.LCFI215:
 3152              		.cfi_def_cfa_offset 8
 3153              		.cfi_offset 7, -8
 3154              		.cfi_offset 14, -4
 3155 0002 86B0     		sub	sp, sp, #24
 3156              	.LCFI216:
 3157              		.cfi_def_cfa_offset 32
 3158 0004 00AF     		add	r7, sp, #0
 3159              	.LCFI217:
 3160              		.cfi_def_cfa_register 7
 3161 0006 7860     		str	r0, [r7, #4]
 3162 0008 0B46     		mov	r3, r1
 3163 000a FB70     		strb	r3, [r7, #3]
1123:Core/Src/lis2dw12_reg.c ****   lis2dw12_ctrl6_t ctrl6;
1124:Core/Src/lis2dw12_reg.c ****   lis2dw12_ctrl_reg7_t ctrl_reg7;
1125:Core/Src/lis2dw12_reg.c ****   int32_t ret;
1126:Core/Src/lis2dw12_reg.c **** 
1127:Core/Src/lis2dw12_reg.c ****   ret = lis2dw12_read_reg(ctx, LIS2DW12_CTRL6, (uint8_t *) &ctrl6, 1);
 3164              		.loc 1 1127 9
 3165 000c 07F11002 		add	r2, r7, #16
 3166 0010 0123     		movs	r3, #1
 3167 0012 2521     		movs	r1, #37
 3168 0014 7868     		ldr	r0, [r7, #4]
 3169 0016 FFF7FEFF 		bl	lis2dw12_read_reg
 3170 001a 7861     		str	r0, [r7, #20]
1128:Core/Src/lis2dw12_reg.c **** 
1129:Core/Src/lis2dw12_reg.c ****   if (ret == 0)
 3171              		.loc 1 1129 6
 3172 001c 7B69     		ldr	r3, [r7, #20]
 3173 001e 002B     		cmp	r3, #0
 3174 0020 10D1     		bne	.L180
ARM GAS  C:\Users\vct344\AppData\Local\Temp\ccePc7Ac.s 			page 75


1130:Core/Src/lis2dw12_reg.c ****   {
1131:Core/Src/lis2dw12_reg.c ****     ctrl6.fds = ((uint8_t) val & 0x10U) >> 4;
 3175              		.loc 1 1131 41
 3176 0022 FB78     		ldrb	r3, [r7, #3]	@ zero_extendqisi2
 3177 0024 1B09     		lsrs	r3, r3, #4
 3178 0026 03F00103 		and	r3, r3, #1
 3179 002a DAB2     		uxtb	r2, r3
 3180              		.loc 1 1131 15
 3181 002c 3B7C     		ldrb	r3, [r7, #16]
 3182 002e 62F3C303 		bfi	r3, r2, #3, #1
 3183 0032 3B74     		strb	r3, [r7, #16]
1132:Core/Src/lis2dw12_reg.c ****     ret = lis2dw12_write_reg(ctx, LIS2DW12_CTRL6, (uint8_t *) &ctrl6, 1);
 3184              		.loc 1 1132 11
 3185 0034 07F11002 		add	r2, r7, #16
 3186 0038 0123     		movs	r3, #1
 3187 003a 2521     		movs	r1, #37
 3188 003c 7868     		ldr	r0, [r7, #4]
 3189 003e FFF7FEFF 		bl	lis2dw12_write_reg
 3190 0042 7861     		str	r0, [r7, #20]
 3191              	.L180:
1133:Core/Src/lis2dw12_reg.c ****   }
1134:Core/Src/lis2dw12_reg.c **** 
1135:Core/Src/lis2dw12_reg.c ****   if (ret == 0)
 3192              		.loc 1 1135 6
 3193 0044 7B69     		ldr	r3, [r7, #20]
 3194 0046 002B     		cmp	r3, #0
 3195 0048 07D1     		bne	.L181
1136:Core/Src/lis2dw12_reg.c ****   {
1137:Core/Src/lis2dw12_reg.c ****     ret = lis2dw12_read_reg(ctx, LIS2DW12_CTRL_REG7,
 3196              		.loc 1 1137 11
 3197 004a 07F10C02 		add	r2, r7, #12
 3198 004e 0123     		movs	r3, #1
 3199 0050 3F21     		movs	r1, #63
 3200 0052 7868     		ldr	r0, [r7, #4]
 3201 0054 FFF7FEFF 		bl	lis2dw12_read_reg
 3202 0058 7861     		str	r0, [r7, #20]
 3203              	.L181:
1138:Core/Src/lis2dw12_reg.c ****                             (uint8_t *) &ctrl_reg7, 1);
1139:Core/Src/lis2dw12_reg.c ****   }
1140:Core/Src/lis2dw12_reg.c **** 
1141:Core/Src/lis2dw12_reg.c ****   if (ret == 0)
 3204              		.loc 1 1141 6
 3205 005a 7B69     		ldr	r3, [r7, #20]
 3206 005c 002B     		cmp	r3, #0
 3207 005e 0FD1     		bne	.L182
1142:Core/Src/lis2dw12_reg.c ****   {
1143:Core/Src/lis2dw12_reg.c ****     ctrl_reg7.usr_off_on_out = (uint8_t) val & 0x01U;
 3208              		.loc 1 1143 46
 3209 0060 FB78     		ldrb	r3, [r7, #3]
 3210 0062 03F00103 		and	r3, r3, #1
 3211 0066 DAB2     		uxtb	r2, r3
 3212              		.loc 1 1143 30
 3213 0068 3B7B     		ldrb	r3, [r7, #12]
 3214 006a 62F30413 		bfi	r3, r2, #4, #1
 3215 006e 3B73     		strb	r3, [r7, #12]
1144:Core/Src/lis2dw12_reg.c ****     ret = lis2dw12_write_reg(ctx, LIS2DW12_CTRL_REG7,
 3216              		.loc 1 1144 11
ARM GAS  C:\Users\vct344\AppData\Local\Temp\ccePc7Ac.s 			page 76


 3217 0070 07F10C02 		add	r2, r7, #12
 3218 0074 0123     		movs	r3, #1
 3219 0076 3F21     		movs	r1, #63
 3220 0078 7868     		ldr	r0, [r7, #4]
 3221 007a FFF7FEFF 		bl	lis2dw12_write_reg
 3222 007e 7861     		str	r0, [r7, #20]
 3223              	.L182:
1145:Core/Src/lis2dw12_reg.c ****                              (uint8_t *) &ctrl_reg7, 1);
1146:Core/Src/lis2dw12_reg.c ****   }
1147:Core/Src/lis2dw12_reg.c **** 
1148:Core/Src/lis2dw12_reg.c ****   return ret;
 3224              		.loc 1 1148 10
 3225 0080 7B69     		ldr	r3, [r7, #20]
1149:Core/Src/lis2dw12_reg.c **** }
 3226              		.loc 1 1149 1
 3227 0082 1846     		mov	r0, r3
 3228 0084 1837     		adds	r7, r7, #24
 3229              	.LCFI218:
 3230              		.cfi_def_cfa_offset 8
 3231 0086 BD46     		mov	sp, r7
 3232              	.LCFI219:
 3233              		.cfi_def_cfa_register 13
 3234              		@ sp needed
 3235 0088 80BD     		pop	{r7, pc}
 3236              		.cfi_endproc
 3237              	.LFE43:
 3239              		.section	.text.lis2dw12_filter_path_get,"ax",%progbits
 3240              		.align	1
 3241              		.global	lis2dw12_filter_path_get
 3242              		.syntax unified
 3243              		.thumb
 3244              		.thumb_func
 3246              	lis2dw12_filter_path_get:
 3247              	.LFB44:
1150:Core/Src/lis2dw12_reg.c **** 
1151:Core/Src/lis2dw12_reg.c **** /**
1152:Core/Src/lis2dw12_reg.c ****   * @brief  Accelerometer filtering path for outputs.[get]
1153:Core/Src/lis2dw12_reg.c ****   *
1154:Core/Src/lis2dw12_reg.c ****   * @param  ctx      read / write interface definitions
1155:Core/Src/lis2dw12_reg.c ****   * @param  val      Get the values of fds in reg CTRL6
1156:Core/Src/lis2dw12_reg.c ****   * @retval          interface status (MANDATORY: return 0 -> no Error)
1157:Core/Src/lis2dw12_reg.c ****   *
1158:Core/Src/lis2dw12_reg.c ****   */
1159:Core/Src/lis2dw12_reg.c **** int32_t lis2dw12_filter_path_get(const stmdev_ctx_t *ctx,
1160:Core/Src/lis2dw12_reg.c ****                                  lis2dw12_fds_t *val)
1161:Core/Src/lis2dw12_reg.c **** {
 3248              		.loc 1 1161 1
 3249              		.cfi_startproc
 3250              		@ args = 0, pretend = 0, frame = 24
 3251              		@ frame_needed = 1, uses_anonymous_args = 0
 3252 0000 80B5     		push	{r7, lr}
 3253              	.LCFI220:
 3254              		.cfi_def_cfa_offset 8
 3255              		.cfi_offset 7, -8
 3256              		.cfi_offset 14, -4
 3257 0002 86B0     		sub	sp, sp, #24
 3258              	.LCFI221:
ARM GAS  C:\Users\vct344\AppData\Local\Temp\ccePc7Ac.s 			page 77


 3259              		.cfi_def_cfa_offset 32
 3260 0004 00AF     		add	r7, sp, #0
 3261              	.LCFI222:
 3262              		.cfi_def_cfa_register 7
 3263 0006 7860     		str	r0, [r7, #4]
 3264 0008 3960     		str	r1, [r7]
1162:Core/Src/lis2dw12_reg.c ****   lis2dw12_ctrl6_t ctrl6;
1163:Core/Src/lis2dw12_reg.c ****   lis2dw12_ctrl_reg7_t ctrl_reg7;
1164:Core/Src/lis2dw12_reg.c ****   int32_t ret;
1165:Core/Src/lis2dw12_reg.c **** 
1166:Core/Src/lis2dw12_reg.c ****   ret = lis2dw12_read_reg(ctx, LIS2DW12_CTRL6, (uint8_t *) &ctrl6, 1);
 3265              		.loc 1 1166 9
 3266 000a 07F11002 		add	r2, r7, #16
 3267 000e 0123     		movs	r3, #1
 3268 0010 2521     		movs	r1, #37
 3269 0012 7868     		ldr	r0, [r7, #4]
 3270 0014 FFF7FEFF 		bl	lis2dw12_read_reg
 3271 0018 7861     		str	r0, [r7, #20]
1167:Core/Src/lis2dw12_reg.c **** 
1168:Core/Src/lis2dw12_reg.c ****   if (ret == 0)
 3272              		.loc 1 1168 6
 3273 001a 7B69     		ldr	r3, [r7, #20]
 3274 001c 002B     		cmp	r3, #0
 3275 001e 2AD1     		bne	.L185
1169:Core/Src/lis2dw12_reg.c ****   {
1170:Core/Src/lis2dw12_reg.c ****     ret = lis2dw12_read_reg(ctx, LIS2DW12_CTRL_REG7,
 3276              		.loc 1 1170 11
 3277 0020 07F10C02 		add	r2, r7, #12
 3278 0024 0123     		movs	r3, #1
 3279 0026 3F21     		movs	r1, #63
 3280 0028 7868     		ldr	r0, [r7, #4]
 3281 002a FFF7FEFF 		bl	lis2dw12_read_reg
 3282 002e 7861     		str	r0, [r7, #20]
1171:Core/Src/lis2dw12_reg.c ****                             (uint8_t *) &ctrl_reg7, 1);
1172:Core/Src/lis2dw12_reg.c **** 
1173:Core/Src/lis2dw12_reg.c ****     switch ((ctrl6.fds << 4) + ctrl_reg7.usr_off_on_out)
 3283              		.loc 1 1173 19
 3284 0030 3B7C     		ldrb	r3, [r7, #16]
 3285 0032 C3F3C003 		ubfx	r3, r3, #3, #1
 3286 0036 DBB2     		uxtb	r3, r3
 3287              		.loc 1 1173 24
 3288 0038 1B01     		lsls	r3, r3, #4
 3289              		.loc 1 1173 41
 3290 003a 3A7B     		ldrb	r2, [r7, #12]
 3291 003c C2F30012 		ubfx	r2, r2, #4, #1
 3292 0040 D2B2     		uxtb	r2, r2
 3293              		.loc 1 1173 30
 3294 0042 1344     		add	r3, r3, r2
 3295              		.loc 1 1173 5
 3296 0044 102B     		cmp	r3, #16
 3297 0046 0ED0     		beq	.L186
 3298 0048 102B     		cmp	r3, #16
 3299 004a 10DC     		bgt	.L187
 3300 004c 002B     		cmp	r3, #0
 3301 004e 02D0     		beq	.L188
 3302 0050 012B     		cmp	r3, #1
 3303 0052 04D0     		beq	.L189
ARM GAS  C:\Users\vct344\AppData\Local\Temp\ccePc7Ac.s 			page 78


 3304 0054 0BE0     		b	.L187
 3305              	.L188:
1174:Core/Src/lis2dw12_reg.c ****     {
1175:Core/Src/lis2dw12_reg.c ****       case LIS2DW12_LPF_ON_OUT:
1176:Core/Src/lis2dw12_reg.c ****         *val = LIS2DW12_LPF_ON_OUT;
 3306              		.loc 1 1176 14
 3307 0056 3B68     		ldr	r3, [r7]
 3308 0058 0022     		movs	r2, #0
 3309 005a 1A70     		strb	r2, [r3]
1177:Core/Src/lis2dw12_reg.c ****         break;
 3310              		.loc 1 1177 9
 3311 005c 0BE0     		b	.L185
 3312              	.L189:
1178:Core/Src/lis2dw12_reg.c **** 
1179:Core/Src/lis2dw12_reg.c ****       case LIS2DW12_USER_OFFSET_ON_OUT:
1180:Core/Src/lis2dw12_reg.c ****         *val = LIS2DW12_USER_OFFSET_ON_OUT;
 3313              		.loc 1 1180 14
 3314 005e 3B68     		ldr	r3, [r7]
 3315 0060 0122     		movs	r2, #1
 3316 0062 1A70     		strb	r2, [r3]
1181:Core/Src/lis2dw12_reg.c ****         break;
 3317              		.loc 1 1181 9
 3318 0064 07E0     		b	.L185
 3319              	.L186:
1182:Core/Src/lis2dw12_reg.c **** 
1183:Core/Src/lis2dw12_reg.c ****       case LIS2DW12_HIGH_PASS_ON_OUT:
1184:Core/Src/lis2dw12_reg.c ****         *val = LIS2DW12_HIGH_PASS_ON_OUT;
 3320              		.loc 1 1184 14
 3321 0066 3B68     		ldr	r3, [r7]
 3322 0068 1022     		movs	r2, #16
 3323 006a 1A70     		strb	r2, [r3]
1185:Core/Src/lis2dw12_reg.c ****         break;
 3324              		.loc 1 1185 9
 3325 006c 03E0     		b	.L185
 3326              	.L187:
1186:Core/Src/lis2dw12_reg.c **** 
1187:Core/Src/lis2dw12_reg.c ****       default:
1188:Core/Src/lis2dw12_reg.c ****         *val = LIS2DW12_LPF_ON_OUT;
 3327              		.loc 1 1188 14
 3328 006e 3B68     		ldr	r3, [r7]
 3329 0070 0022     		movs	r2, #0
 3330 0072 1A70     		strb	r2, [r3]
1189:Core/Src/lis2dw12_reg.c ****         break;
 3331              		.loc 1 1189 9
 3332 0074 00BF     		nop
 3333              	.L185:
1190:Core/Src/lis2dw12_reg.c ****     }
1191:Core/Src/lis2dw12_reg.c ****   }
1192:Core/Src/lis2dw12_reg.c **** 
1193:Core/Src/lis2dw12_reg.c ****   return ret;
 3334              		.loc 1 1193 10
 3335 0076 7B69     		ldr	r3, [r7, #20]
1194:Core/Src/lis2dw12_reg.c **** }
 3336              		.loc 1 1194 1
 3337 0078 1846     		mov	r0, r3
 3338 007a 1837     		adds	r7, r7, #24
 3339              	.LCFI223:
ARM GAS  C:\Users\vct344\AppData\Local\Temp\ccePc7Ac.s 			page 79


 3340              		.cfi_def_cfa_offset 8
 3341 007c BD46     		mov	sp, r7
 3342              	.LCFI224:
 3343              		.cfi_def_cfa_register 13
 3344              		@ sp needed
 3345 007e 80BD     		pop	{r7, pc}
 3346              		.cfi_endproc
 3347              	.LFE44:
 3349              		.section	.text.lis2dw12_filter_bandwidth_set,"ax",%progbits
 3350              		.align	1
 3351              		.global	lis2dw12_filter_bandwidth_set
 3352              		.syntax unified
 3353              		.thumb
 3354              		.thumb_func
 3356              	lis2dw12_filter_bandwidth_set:
 3357              	.LFB45:
1195:Core/Src/lis2dw12_reg.c **** 
1196:Core/Src/lis2dw12_reg.c **** /**
1197:Core/Src/lis2dw12_reg.c ****   * @brief   Accelerometer cutoff filter frequency. Valid for low and high
1198:Core/Src/lis2dw12_reg.c ****   *          pass filter.[set]
1199:Core/Src/lis2dw12_reg.c ****   *
1200:Core/Src/lis2dw12_reg.c ****   * @param  ctx      read / write interface definitions
1201:Core/Src/lis2dw12_reg.c ****   * @param  val      change the values of bw_filt in reg CTRL6
1202:Core/Src/lis2dw12_reg.c ****   * @retval          interface status (MANDATORY: return 0 -> no Error)
1203:Core/Src/lis2dw12_reg.c ****   *
1204:Core/Src/lis2dw12_reg.c ****   */
1205:Core/Src/lis2dw12_reg.c **** int32_t lis2dw12_filter_bandwidth_set(const stmdev_ctx_t *ctx,
1206:Core/Src/lis2dw12_reg.c ****                                       lis2dw12_bw_filt_t val)
1207:Core/Src/lis2dw12_reg.c **** {
 3358              		.loc 1 1207 1
 3359              		.cfi_startproc
 3360              		@ args = 0, pretend = 0, frame = 16
 3361              		@ frame_needed = 1, uses_anonymous_args = 0
 3362 0000 80B5     		push	{r7, lr}
 3363              	.LCFI225:
 3364              		.cfi_def_cfa_offset 8
 3365              		.cfi_offset 7, -8
 3366              		.cfi_offset 14, -4
 3367 0002 84B0     		sub	sp, sp, #16
 3368              	.LCFI226:
 3369              		.cfi_def_cfa_offset 24
 3370 0004 00AF     		add	r7, sp, #0
 3371              	.LCFI227:
 3372              		.cfi_def_cfa_register 7
 3373 0006 7860     		str	r0, [r7, #4]
 3374 0008 0B46     		mov	r3, r1
 3375 000a FB70     		strb	r3, [r7, #3]
1208:Core/Src/lis2dw12_reg.c ****   lis2dw12_ctrl6_t reg;
1209:Core/Src/lis2dw12_reg.c ****   int32_t ret;
1210:Core/Src/lis2dw12_reg.c **** 
1211:Core/Src/lis2dw12_reg.c ****   ret = lis2dw12_read_reg(ctx, LIS2DW12_CTRL6, (uint8_t *) &reg, 1);
 3376              		.loc 1 1211 9
 3377 000c 07F10802 		add	r2, r7, #8
 3378 0010 0123     		movs	r3, #1
 3379 0012 2521     		movs	r1, #37
 3380 0014 7868     		ldr	r0, [r7, #4]
 3381 0016 FFF7FEFF 		bl	lis2dw12_read_reg
ARM GAS  C:\Users\vct344\AppData\Local\Temp\ccePc7Ac.s 			page 80


 3382 001a F860     		str	r0, [r7, #12]
1212:Core/Src/lis2dw12_reg.c **** 
1213:Core/Src/lis2dw12_reg.c ****   if (ret == 0)
 3383              		.loc 1 1213 6
 3384 001c FB68     		ldr	r3, [r7, #12]
 3385 001e 002B     		cmp	r3, #0
 3386 0020 0FD1     		bne	.L192
1214:Core/Src/lis2dw12_reg.c ****   {
1215:Core/Src/lis2dw12_reg.c ****     reg.bw_filt = (uint8_t) val;
 3387              		.loc 1 1215 19
 3388 0022 FB78     		ldrb	r3, [r7, #3]
 3389 0024 03F00303 		and	r3, r3, #3
 3390 0028 DAB2     		uxtb	r2, r3
 3391              		.loc 1 1215 17
 3392 002a 3B7A     		ldrb	r3, [r7, #8]
 3393 002c 62F38713 		bfi	r3, r2, #6, #2
 3394 0030 3B72     		strb	r3, [r7, #8]
1216:Core/Src/lis2dw12_reg.c ****     ret = lis2dw12_write_reg(ctx, LIS2DW12_CTRL6, (uint8_t *) &reg, 1);
 3395              		.loc 1 1216 11
 3396 0032 07F10802 		add	r2, r7, #8
 3397 0036 0123     		movs	r3, #1
 3398 0038 2521     		movs	r1, #37
 3399 003a 7868     		ldr	r0, [r7, #4]
 3400 003c FFF7FEFF 		bl	lis2dw12_write_reg
 3401 0040 F860     		str	r0, [r7, #12]
 3402              	.L192:
1217:Core/Src/lis2dw12_reg.c ****   }
1218:Core/Src/lis2dw12_reg.c **** 
1219:Core/Src/lis2dw12_reg.c ****   return ret;
 3403              		.loc 1 1219 10
 3404 0042 FB68     		ldr	r3, [r7, #12]
1220:Core/Src/lis2dw12_reg.c **** }
 3405              		.loc 1 1220 1
 3406 0044 1846     		mov	r0, r3
 3407 0046 1037     		adds	r7, r7, #16
 3408              	.LCFI228:
 3409              		.cfi_def_cfa_offset 8
 3410 0048 BD46     		mov	sp, r7
 3411              	.LCFI229:
 3412              		.cfi_def_cfa_register 13
 3413              		@ sp needed
 3414 004a 80BD     		pop	{r7, pc}
 3415              		.cfi_endproc
 3416              	.LFE45:
 3418              		.section	.text.lis2dw12_filter_bandwidth_get,"ax",%progbits
 3419              		.align	1
 3420              		.global	lis2dw12_filter_bandwidth_get
 3421              		.syntax unified
 3422              		.thumb
 3423              		.thumb_func
 3425              	lis2dw12_filter_bandwidth_get:
 3426              	.LFB46:
1221:Core/Src/lis2dw12_reg.c **** 
1222:Core/Src/lis2dw12_reg.c **** /**
1223:Core/Src/lis2dw12_reg.c ****   * @brief   Accelerometer cutoff filter frequency. Valid for low and
1224:Core/Src/lis2dw12_reg.c ****   *          high pass filter.[get]
1225:Core/Src/lis2dw12_reg.c ****   *
ARM GAS  C:\Users\vct344\AppData\Local\Temp\ccePc7Ac.s 			page 81


1226:Core/Src/lis2dw12_reg.c ****   * @param  ctx      read / write interface definitions
1227:Core/Src/lis2dw12_reg.c ****   * @param  val      Get the values of bw_filt in reg CTRL6
1228:Core/Src/lis2dw12_reg.c ****   * @retval          interface status (MANDATORY: return 0 -> no Error)
1229:Core/Src/lis2dw12_reg.c ****   *
1230:Core/Src/lis2dw12_reg.c ****   */
1231:Core/Src/lis2dw12_reg.c **** int32_t lis2dw12_filter_bandwidth_get(const stmdev_ctx_t *ctx,
1232:Core/Src/lis2dw12_reg.c ****                                       lis2dw12_bw_filt_t *val)
1233:Core/Src/lis2dw12_reg.c **** {
 3427              		.loc 1 1233 1
 3428              		.cfi_startproc
 3429              		@ args = 0, pretend = 0, frame = 16
 3430              		@ frame_needed = 1, uses_anonymous_args = 0
 3431 0000 80B5     		push	{r7, lr}
 3432              	.LCFI230:
 3433              		.cfi_def_cfa_offset 8
 3434              		.cfi_offset 7, -8
 3435              		.cfi_offset 14, -4
 3436 0002 84B0     		sub	sp, sp, #16
 3437              	.LCFI231:
 3438              		.cfi_def_cfa_offset 24
 3439 0004 00AF     		add	r7, sp, #0
 3440              	.LCFI232:
 3441              		.cfi_def_cfa_register 7
 3442 0006 7860     		str	r0, [r7, #4]
 3443 0008 3960     		str	r1, [r7]
1234:Core/Src/lis2dw12_reg.c ****   lis2dw12_ctrl6_t reg;
1235:Core/Src/lis2dw12_reg.c ****   int32_t ret;
1236:Core/Src/lis2dw12_reg.c **** 
1237:Core/Src/lis2dw12_reg.c ****   ret = lis2dw12_read_reg(ctx, LIS2DW12_CTRL6, (uint8_t *) &reg, 1);
 3444              		.loc 1 1237 9
 3445 000a 07F10802 		add	r2, r7, #8
 3446 000e 0123     		movs	r3, #1
 3447 0010 2521     		movs	r1, #37
 3448 0012 7868     		ldr	r0, [r7, #4]
 3449 0014 FFF7FEFF 		bl	lis2dw12_read_reg
 3450 0018 F860     		str	r0, [r7, #12]
1238:Core/Src/lis2dw12_reg.c **** 
1239:Core/Src/lis2dw12_reg.c ****   switch (reg.bw_filt)
 3451              		.loc 1 1239 14
 3452 001a 3B7A     		ldrb	r3, [r7, #8]
 3453 001c C3F38113 		ubfx	r3, r3, #6, #2
 3454 0020 DBB2     		uxtb	r3, r3
 3455              		.loc 1 1239 3
 3456 0022 032B     		cmp	r3, #3
 3457 0024 1AD8     		bhi	.L195
 3458 0026 01A2     		adr	r2, .L197
 3459 0028 52F823F0 		ldr	pc, [r2, r3, lsl #2]
 3460              		.p2align 2
 3461              	.L197:
 3462 002c 3D000000 		.word	.L200+1
 3463 0030 45000000 		.word	.L199+1
 3464 0034 4D000000 		.word	.L198+1
 3465 0038 55000000 		.word	.L196+1
 3466              		.p2align 1
 3467              	.L200:
1240:Core/Src/lis2dw12_reg.c ****   {
1241:Core/Src/lis2dw12_reg.c ****     case LIS2DW12_ODR_DIV_2:
ARM GAS  C:\Users\vct344\AppData\Local\Temp\ccePc7Ac.s 			page 82


1242:Core/Src/lis2dw12_reg.c ****       *val = LIS2DW12_ODR_DIV_2;
 3468              		.loc 1 1242 12
 3469 003c 3B68     		ldr	r3, [r7]
 3470 003e 0022     		movs	r2, #0
 3471 0040 1A70     		strb	r2, [r3]
1243:Core/Src/lis2dw12_reg.c ****       break;
 3472              		.loc 1 1243 7
 3473 0042 0FE0     		b	.L201
 3474              	.L199:
1244:Core/Src/lis2dw12_reg.c **** 
1245:Core/Src/lis2dw12_reg.c ****     case LIS2DW12_ODR_DIV_4:
1246:Core/Src/lis2dw12_reg.c ****       *val = LIS2DW12_ODR_DIV_4;
 3475              		.loc 1 1246 12
 3476 0044 3B68     		ldr	r3, [r7]
 3477 0046 0122     		movs	r2, #1
 3478 0048 1A70     		strb	r2, [r3]
1247:Core/Src/lis2dw12_reg.c ****       break;
 3479              		.loc 1 1247 7
 3480 004a 0BE0     		b	.L201
 3481              	.L198:
1248:Core/Src/lis2dw12_reg.c **** 
1249:Core/Src/lis2dw12_reg.c ****     case LIS2DW12_ODR_DIV_10:
1250:Core/Src/lis2dw12_reg.c ****       *val = LIS2DW12_ODR_DIV_10;
 3482              		.loc 1 1250 12
 3483 004c 3B68     		ldr	r3, [r7]
 3484 004e 0222     		movs	r2, #2
 3485 0050 1A70     		strb	r2, [r3]
1251:Core/Src/lis2dw12_reg.c ****       break;
 3486              		.loc 1 1251 7
 3487 0052 07E0     		b	.L201
 3488              	.L196:
1252:Core/Src/lis2dw12_reg.c **** 
1253:Core/Src/lis2dw12_reg.c ****     case LIS2DW12_ODR_DIV_20:
1254:Core/Src/lis2dw12_reg.c ****       *val = LIS2DW12_ODR_DIV_20;
 3489              		.loc 1 1254 12
 3490 0054 3B68     		ldr	r3, [r7]
 3491 0056 0322     		movs	r2, #3
 3492 0058 1A70     		strb	r2, [r3]
1255:Core/Src/lis2dw12_reg.c ****       break;
 3493              		.loc 1 1255 7
 3494 005a 03E0     		b	.L201
 3495              	.L195:
1256:Core/Src/lis2dw12_reg.c **** 
1257:Core/Src/lis2dw12_reg.c ****     default:
1258:Core/Src/lis2dw12_reg.c ****       *val = LIS2DW12_ODR_DIV_2;
 3496              		.loc 1 1258 12
 3497 005c 3B68     		ldr	r3, [r7]
 3498 005e 0022     		movs	r2, #0
 3499 0060 1A70     		strb	r2, [r3]
1259:Core/Src/lis2dw12_reg.c ****       break;
 3500              		.loc 1 1259 7
 3501 0062 00BF     		nop
 3502              	.L201:
1260:Core/Src/lis2dw12_reg.c ****   }
1261:Core/Src/lis2dw12_reg.c **** 
1262:Core/Src/lis2dw12_reg.c ****   return ret;
 3503              		.loc 1 1262 10
ARM GAS  C:\Users\vct344\AppData\Local\Temp\ccePc7Ac.s 			page 83


 3504 0064 FB68     		ldr	r3, [r7, #12]
1263:Core/Src/lis2dw12_reg.c **** }
 3505              		.loc 1 1263 1
 3506 0066 1846     		mov	r0, r3
 3507 0068 1037     		adds	r7, r7, #16
 3508              	.LCFI233:
 3509              		.cfi_def_cfa_offset 8
 3510 006a BD46     		mov	sp, r7
 3511              	.LCFI234:
 3512              		.cfi_def_cfa_register 13
 3513              		@ sp needed
 3514 006c 80BD     		pop	{r7, pc}
 3515              		.cfi_endproc
 3516              	.LFE46:
 3518 006e 00BF     		.section	.text.lis2dw12_reference_mode_set,"ax",%progbits
 3519              		.align	1
 3520              		.global	lis2dw12_reference_mode_set
 3521              		.syntax unified
 3522              		.thumb
 3523              		.thumb_func
 3525              	lis2dw12_reference_mode_set:
 3526              	.LFB47:
1264:Core/Src/lis2dw12_reg.c **** 
1265:Core/Src/lis2dw12_reg.c **** /**
1266:Core/Src/lis2dw12_reg.c ****   * @brief  Enable HP filter reference mode.[set]
1267:Core/Src/lis2dw12_reg.c ****   *
1268:Core/Src/lis2dw12_reg.c ****   * @param  ctx      read / write interface definitions
1269:Core/Src/lis2dw12_reg.c ****   * @param  val      change the values of hp_ref_mode in reg CTRL_REG7
1270:Core/Src/lis2dw12_reg.c ****   * @retval          interface status (MANDATORY: return 0 -> no Error)
1271:Core/Src/lis2dw12_reg.c ****   *
1272:Core/Src/lis2dw12_reg.c ****   */
1273:Core/Src/lis2dw12_reg.c **** int32_t lis2dw12_reference_mode_set(const stmdev_ctx_t *ctx, uint8_t val)
1274:Core/Src/lis2dw12_reg.c **** {
 3527              		.loc 1 1274 1
 3528              		.cfi_startproc
 3529              		@ args = 0, pretend = 0, frame = 16
 3530              		@ frame_needed = 1, uses_anonymous_args = 0
 3531 0000 80B5     		push	{r7, lr}
 3532              	.LCFI235:
 3533              		.cfi_def_cfa_offset 8
 3534              		.cfi_offset 7, -8
 3535              		.cfi_offset 14, -4
 3536 0002 84B0     		sub	sp, sp, #16
 3537              	.LCFI236:
 3538              		.cfi_def_cfa_offset 24
 3539 0004 00AF     		add	r7, sp, #0
 3540              	.LCFI237:
 3541              		.cfi_def_cfa_register 7
 3542 0006 7860     		str	r0, [r7, #4]
 3543 0008 0B46     		mov	r3, r1
 3544 000a FB70     		strb	r3, [r7, #3]
1275:Core/Src/lis2dw12_reg.c ****   lis2dw12_ctrl_reg7_t reg;
1276:Core/Src/lis2dw12_reg.c ****   int32_t ret;
1277:Core/Src/lis2dw12_reg.c **** 
1278:Core/Src/lis2dw12_reg.c ****   ret = lis2dw12_read_reg(ctx, LIS2DW12_CTRL_REG7, (uint8_t *) &reg, 1);
 3545              		.loc 1 1278 9
 3546 000c 07F10802 		add	r2, r7, #8
ARM GAS  C:\Users\vct344\AppData\Local\Temp\ccePc7Ac.s 			page 84


 3547 0010 0123     		movs	r3, #1
 3548 0012 3F21     		movs	r1, #63
 3549 0014 7868     		ldr	r0, [r7, #4]
 3550 0016 FFF7FEFF 		bl	lis2dw12_read_reg
 3551 001a F860     		str	r0, [r7, #12]
1279:Core/Src/lis2dw12_reg.c **** 
1280:Core/Src/lis2dw12_reg.c ****   if (ret == 0)
 3552              		.loc 1 1280 6
 3553 001c FB68     		ldr	r3, [r7, #12]
 3554 001e 002B     		cmp	r3, #0
 3555 0020 0FD1     		bne	.L204
1281:Core/Src/lis2dw12_reg.c ****   {
1282:Core/Src/lis2dw12_reg.c ****     reg.hp_ref_mode = val;
 3556              		.loc 1 1282 21
 3557 0022 FB78     		ldrb	r3, [r7, #3]
 3558 0024 03F00103 		and	r3, r3, #1
 3559 0028 DAB2     		uxtb	r2, r3
 3560 002a 3B7A     		ldrb	r3, [r7, #8]
 3561 002c 62F34103 		bfi	r3, r2, #1, #1
 3562 0030 3B72     		strb	r3, [r7, #8]
1283:Core/Src/lis2dw12_reg.c ****     ret = lis2dw12_write_reg(ctx, LIS2DW12_CTRL_REG7, (uint8_t *) &reg, 1);
 3563              		.loc 1 1283 11
 3564 0032 07F10802 		add	r2, r7, #8
 3565 0036 0123     		movs	r3, #1
 3566 0038 3F21     		movs	r1, #63
 3567 003a 7868     		ldr	r0, [r7, #4]
 3568 003c FFF7FEFF 		bl	lis2dw12_write_reg
 3569 0040 F860     		str	r0, [r7, #12]
 3570              	.L204:
1284:Core/Src/lis2dw12_reg.c ****   }
1285:Core/Src/lis2dw12_reg.c **** 
1286:Core/Src/lis2dw12_reg.c ****   return ret;
 3571              		.loc 1 1286 10
 3572 0042 FB68     		ldr	r3, [r7, #12]
1287:Core/Src/lis2dw12_reg.c **** }
 3573              		.loc 1 1287 1
 3574 0044 1846     		mov	r0, r3
 3575 0046 1037     		adds	r7, r7, #16
 3576              	.LCFI238:
 3577              		.cfi_def_cfa_offset 8
 3578 0048 BD46     		mov	sp, r7
 3579              	.LCFI239:
 3580              		.cfi_def_cfa_register 13
 3581              		@ sp needed
 3582 004a 80BD     		pop	{r7, pc}
 3583              		.cfi_endproc
 3584              	.LFE47:
 3586              		.section	.text.lis2dw12_reference_mode_get,"ax",%progbits
 3587              		.align	1
 3588              		.global	lis2dw12_reference_mode_get
 3589              		.syntax unified
 3590              		.thumb
 3591              		.thumb_func
 3593              	lis2dw12_reference_mode_get:
 3594              	.LFB48:
1288:Core/Src/lis2dw12_reg.c **** 
1289:Core/Src/lis2dw12_reg.c **** /**
ARM GAS  C:\Users\vct344\AppData\Local\Temp\ccePc7Ac.s 			page 85


1290:Core/Src/lis2dw12_reg.c ****   * @brief  Enable HP filter reference mode.[get]
1291:Core/Src/lis2dw12_reg.c ****   *
1292:Core/Src/lis2dw12_reg.c ****   * @param  ctx      read / write interface definitions
1293:Core/Src/lis2dw12_reg.c ****   * @param  val      change the values of hp_ref_mode in reg CTRL_REG7
1294:Core/Src/lis2dw12_reg.c ****   * @retval          interface status (MANDATORY: return 0 -> no Error)
1295:Core/Src/lis2dw12_reg.c ****   *
1296:Core/Src/lis2dw12_reg.c ****   */
1297:Core/Src/lis2dw12_reg.c **** int32_t lis2dw12_reference_mode_get(const stmdev_ctx_t *ctx, uint8_t *val)
1298:Core/Src/lis2dw12_reg.c **** {
 3595              		.loc 1 1298 1
 3596              		.cfi_startproc
 3597              		@ args = 0, pretend = 0, frame = 16
 3598              		@ frame_needed = 1, uses_anonymous_args = 0
 3599 0000 80B5     		push	{r7, lr}
 3600              	.LCFI240:
 3601              		.cfi_def_cfa_offset 8
 3602              		.cfi_offset 7, -8
 3603              		.cfi_offset 14, -4
 3604 0002 84B0     		sub	sp, sp, #16
 3605              	.LCFI241:
 3606              		.cfi_def_cfa_offset 24
 3607 0004 00AF     		add	r7, sp, #0
 3608              	.LCFI242:
 3609              		.cfi_def_cfa_register 7
 3610 0006 7860     		str	r0, [r7, #4]
 3611 0008 3960     		str	r1, [r7]
1299:Core/Src/lis2dw12_reg.c ****   lis2dw12_ctrl_reg7_t reg;
1300:Core/Src/lis2dw12_reg.c ****   int32_t ret;
1301:Core/Src/lis2dw12_reg.c **** 
1302:Core/Src/lis2dw12_reg.c ****   ret = lis2dw12_read_reg(ctx, LIS2DW12_CTRL_REG7, (uint8_t *) &reg, 1);
 3612              		.loc 1 1302 9
 3613 000a 07F10802 		add	r2, r7, #8
 3614 000e 0123     		movs	r3, #1
 3615 0010 3F21     		movs	r1, #63
 3616 0012 7868     		ldr	r0, [r7, #4]
 3617 0014 FFF7FEFF 		bl	lis2dw12_read_reg
 3618 0018 F860     		str	r0, [r7, #12]
1303:Core/Src/lis2dw12_reg.c ****   *val = reg.hp_ref_mode;
 3619              		.loc 1 1303 13
 3620 001a 3B7A     		ldrb	r3, [r7, #8]
 3621 001c C3F34003 		ubfx	r3, r3, #1, #1
 3622 0020 DBB2     		uxtb	r3, r3
 3623 0022 1A46     		mov	r2, r3
 3624              		.loc 1 1303 8
 3625 0024 3B68     		ldr	r3, [r7]
 3626 0026 1A70     		strb	r2, [r3]
1304:Core/Src/lis2dw12_reg.c **** 
1305:Core/Src/lis2dw12_reg.c ****   return ret;
 3627              		.loc 1 1305 10
 3628 0028 FB68     		ldr	r3, [r7, #12]
1306:Core/Src/lis2dw12_reg.c **** }
 3629              		.loc 1 1306 1
 3630 002a 1846     		mov	r0, r3
 3631 002c 1037     		adds	r7, r7, #16
 3632              	.LCFI243:
 3633              		.cfi_def_cfa_offset 8
 3634 002e BD46     		mov	sp, r7
ARM GAS  C:\Users\vct344\AppData\Local\Temp\ccePc7Ac.s 			page 86


 3635              	.LCFI244:
 3636              		.cfi_def_cfa_register 13
 3637              		@ sp needed
 3638 0030 80BD     		pop	{r7, pc}
 3639              		.cfi_endproc
 3640              	.LFE48:
 3642              		.section	.text.lis2dw12_spi_mode_set,"ax",%progbits
 3643              		.align	1
 3644              		.global	lis2dw12_spi_mode_set
 3645              		.syntax unified
 3646              		.thumb
 3647              		.thumb_func
 3649              	lis2dw12_spi_mode_set:
 3650              	.LFB49:
1307:Core/Src/lis2dw12_reg.c **** 
1308:Core/Src/lis2dw12_reg.c **** /**
1309:Core/Src/lis2dw12_reg.c ****   * @}
1310:Core/Src/lis2dw12_reg.c ****   *
1311:Core/Src/lis2dw12_reg.c ****   */
1312:Core/Src/lis2dw12_reg.c **** 
1313:Core/Src/lis2dw12_reg.c **** /**
1314:Core/Src/lis2dw12_reg.c ****   * @defgroup   LIS2DW12_Serial_Interface
1315:Core/Src/lis2dw12_reg.c ****   * @brief      This section groups all the functions concerning main serial
1316:Core/Src/lis2dw12_reg.c ****   *             interface management (not auxiliary)
1317:Core/Src/lis2dw12_reg.c ****   * @{
1318:Core/Src/lis2dw12_reg.c ****   *
1319:Core/Src/lis2dw12_reg.c ****   */
1320:Core/Src/lis2dw12_reg.c **** 
1321:Core/Src/lis2dw12_reg.c **** /**
1322:Core/Src/lis2dw12_reg.c ****   * @brief  SPI Serial Interface Mode selection.[set]
1323:Core/Src/lis2dw12_reg.c ****   *
1324:Core/Src/lis2dw12_reg.c ****   * @param  ctx      read / write interface definitions
1325:Core/Src/lis2dw12_reg.c ****   * @param  val      change the values of sim in reg CTRL2
1326:Core/Src/lis2dw12_reg.c ****   * @retval          interface status (MANDATORY: return 0 -> no Error)
1327:Core/Src/lis2dw12_reg.c ****   *
1328:Core/Src/lis2dw12_reg.c ****   */
1329:Core/Src/lis2dw12_reg.c **** int32_t lis2dw12_spi_mode_set(const stmdev_ctx_t *ctx, lis2dw12_sim_t val)
1330:Core/Src/lis2dw12_reg.c **** {
 3651              		.loc 1 1330 1
 3652              		.cfi_startproc
 3653              		@ args = 0, pretend = 0, frame = 16
 3654              		@ frame_needed = 1, uses_anonymous_args = 0
 3655 0000 80B5     		push	{r7, lr}
 3656              	.LCFI245:
 3657              		.cfi_def_cfa_offset 8
 3658              		.cfi_offset 7, -8
 3659              		.cfi_offset 14, -4
 3660 0002 84B0     		sub	sp, sp, #16
 3661              	.LCFI246:
 3662              		.cfi_def_cfa_offset 24
 3663 0004 00AF     		add	r7, sp, #0
 3664              	.LCFI247:
 3665              		.cfi_def_cfa_register 7
 3666 0006 7860     		str	r0, [r7, #4]
 3667 0008 0B46     		mov	r3, r1
 3668 000a FB70     		strb	r3, [r7, #3]
1331:Core/Src/lis2dw12_reg.c ****   lis2dw12_ctrl2_t reg;
ARM GAS  C:\Users\vct344\AppData\Local\Temp\ccePc7Ac.s 			page 87


1332:Core/Src/lis2dw12_reg.c ****   int32_t ret;
1333:Core/Src/lis2dw12_reg.c **** 
1334:Core/Src/lis2dw12_reg.c ****   ret = lis2dw12_read_reg(ctx, LIS2DW12_CTRL2, (uint8_t *) &reg, 1);
 3669              		.loc 1 1334 9
 3670 000c 07F10802 		add	r2, r7, #8
 3671 0010 0123     		movs	r3, #1
 3672 0012 2121     		movs	r1, #33
 3673 0014 7868     		ldr	r0, [r7, #4]
 3674 0016 FFF7FEFF 		bl	lis2dw12_read_reg
 3675 001a F860     		str	r0, [r7, #12]
1335:Core/Src/lis2dw12_reg.c **** 
1336:Core/Src/lis2dw12_reg.c ****   if (ret == 0)
 3676              		.loc 1 1336 6
 3677 001c FB68     		ldr	r3, [r7, #12]
 3678 001e 002B     		cmp	r3, #0
 3679 0020 0FD1     		bne	.L209
1337:Core/Src/lis2dw12_reg.c ****   {
1338:Core/Src/lis2dw12_reg.c ****     reg.sim = (uint8_t) val;
 3680              		.loc 1 1338 15
 3681 0022 FB78     		ldrb	r3, [r7, #3]
 3682 0024 03F00103 		and	r3, r3, #1
 3683 0028 DAB2     		uxtb	r2, r3
 3684              		.loc 1 1338 13
 3685 002a 3B7A     		ldrb	r3, [r7, #8]
 3686 002c 62F30003 		bfi	r3, r2, #0, #1
 3687 0030 3B72     		strb	r3, [r7, #8]
1339:Core/Src/lis2dw12_reg.c ****     ret = lis2dw12_write_reg(ctx, LIS2DW12_CTRL2, (uint8_t *) &reg, 1);
 3688              		.loc 1 1339 11
 3689 0032 07F10802 		add	r2, r7, #8
 3690 0036 0123     		movs	r3, #1
 3691 0038 2121     		movs	r1, #33
 3692 003a 7868     		ldr	r0, [r7, #4]
 3693 003c FFF7FEFF 		bl	lis2dw12_write_reg
 3694 0040 F860     		str	r0, [r7, #12]
 3695              	.L209:
1340:Core/Src/lis2dw12_reg.c ****   }
1341:Core/Src/lis2dw12_reg.c **** 
1342:Core/Src/lis2dw12_reg.c ****   return ret;
 3696              		.loc 1 1342 10
 3697 0042 FB68     		ldr	r3, [r7, #12]
1343:Core/Src/lis2dw12_reg.c **** }
 3698              		.loc 1 1343 1
 3699 0044 1846     		mov	r0, r3
 3700 0046 1037     		adds	r7, r7, #16
 3701              	.LCFI248:
 3702              		.cfi_def_cfa_offset 8
 3703 0048 BD46     		mov	sp, r7
 3704              	.LCFI249:
 3705              		.cfi_def_cfa_register 13
 3706              		@ sp needed
 3707 004a 80BD     		pop	{r7, pc}
 3708              		.cfi_endproc
 3709              	.LFE49:
 3711              		.section	.text.lis2dw12_spi_mode_get,"ax",%progbits
 3712              		.align	1
 3713              		.global	lis2dw12_spi_mode_get
 3714              		.syntax unified
ARM GAS  C:\Users\vct344\AppData\Local\Temp\ccePc7Ac.s 			page 88


 3715              		.thumb
 3716              		.thumb_func
 3718              	lis2dw12_spi_mode_get:
 3719              	.LFB50:
1344:Core/Src/lis2dw12_reg.c **** 
1345:Core/Src/lis2dw12_reg.c **** /**
1346:Core/Src/lis2dw12_reg.c ****   * @brief  SPI Serial Interface Mode selection.[get]
1347:Core/Src/lis2dw12_reg.c ****   *
1348:Core/Src/lis2dw12_reg.c ****   * @param  ctx      read / write interface definitions
1349:Core/Src/lis2dw12_reg.c ****   * @param  val      Get the values of sim in reg CTRL2
1350:Core/Src/lis2dw12_reg.c ****   * @retval          interface status (MANDATORY: return 0 -> no Error)
1351:Core/Src/lis2dw12_reg.c ****   *
1352:Core/Src/lis2dw12_reg.c ****   */
1353:Core/Src/lis2dw12_reg.c **** int32_t lis2dw12_spi_mode_get(const stmdev_ctx_t *ctx, lis2dw12_sim_t *val)
1354:Core/Src/lis2dw12_reg.c **** {
 3720              		.loc 1 1354 1
 3721              		.cfi_startproc
 3722              		@ args = 0, pretend = 0, frame = 16
 3723              		@ frame_needed = 1, uses_anonymous_args = 0
 3724 0000 80B5     		push	{r7, lr}
 3725              	.LCFI250:
 3726              		.cfi_def_cfa_offset 8
 3727              		.cfi_offset 7, -8
 3728              		.cfi_offset 14, -4
 3729 0002 84B0     		sub	sp, sp, #16
 3730              	.LCFI251:
 3731              		.cfi_def_cfa_offset 24
 3732 0004 00AF     		add	r7, sp, #0
 3733              	.LCFI252:
 3734              		.cfi_def_cfa_register 7
 3735 0006 7860     		str	r0, [r7, #4]
 3736 0008 3960     		str	r1, [r7]
1355:Core/Src/lis2dw12_reg.c ****   lis2dw12_ctrl2_t reg;
1356:Core/Src/lis2dw12_reg.c ****   int32_t ret;
1357:Core/Src/lis2dw12_reg.c **** 
1358:Core/Src/lis2dw12_reg.c ****   ret = lis2dw12_read_reg(ctx, LIS2DW12_CTRL2, (uint8_t *) &reg, 1);
 3737              		.loc 1 1358 9
 3738 000a 07F10802 		add	r2, r7, #8
 3739 000e 0123     		movs	r3, #1
 3740 0010 2121     		movs	r1, #33
 3741 0012 7868     		ldr	r0, [r7, #4]
 3742 0014 FFF7FEFF 		bl	lis2dw12_read_reg
 3743 0018 F860     		str	r0, [r7, #12]
1359:Core/Src/lis2dw12_reg.c **** 
1360:Core/Src/lis2dw12_reg.c ****   switch (reg.sim)
 3744              		.loc 1 1360 14
 3745 001a 3B7A     		ldrb	r3, [r7, #8]
 3746 001c C3F30003 		ubfx	r3, r3, #0, #1
 3747 0020 DBB2     		uxtb	r3, r3
 3748              		.loc 1 1360 3
 3749 0022 002B     		cmp	r3, #0
 3750 0024 02D0     		beq	.L212
 3751 0026 012B     		cmp	r3, #1
 3752 0028 04D0     		beq	.L213
 3753 002a 07E0     		b	.L217
 3754              	.L212:
1361:Core/Src/lis2dw12_reg.c ****   {
ARM GAS  C:\Users\vct344\AppData\Local\Temp\ccePc7Ac.s 			page 89


1362:Core/Src/lis2dw12_reg.c ****     case LIS2DW12_SPI_4_WIRE:
1363:Core/Src/lis2dw12_reg.c ****       *val = LIS2DW12_SPI_4_WIRE;
 3755              		.loc 1 1363 12
 3756 002c 3B68     		ldr	r3, [r7]
 3757 002e 0022     		movs	r2, #0
 3758 0030 1A70     		strb	r2, [r3]
1364:Core/Src/lis2dw12_reg.c ****       break;
 3759              		.loc 1 1364 7
 3760 0032 07E0     		b	.L215
 3761              	.L213:
1365:Core/Src/lis2dw12_reg.c **** 
1366:Core/Src/lis2dw12_reg.c ****     case LIS2DW12_SPI_3_WIRE:
1367:Core/Src/lis2dw12_reg.c ****       *val = LIS2DW12_SPI_3_WIRE;
 3762              		.loc 1 1367 12
 3763 0034 3B68     		ldr	r3, [r7]
 3764 0036 0122     		movs	r2, #1
 3765 0038 1A70     		strb	r2, [r3]
1368:Core/Src/lis2dw12_reg.c ****       break;
 3766              		.loc 1 1368 7
 3767 003a 03E0     		b	.L215
 3768              	.L217:
1369:Core/Src/lis2dw12_reg.c **** 
1370:Core/Src/lis2dw12_reg.c ****     default:
1371:Core/Src/lis2dw12_reg.c ****       *val = LIS2DW12_SPI_4_WIRE;
 3769              		.loc 1 1371 12
 3770 003c 3B68     		ldr	r3, [r7]
 3771 003e 0022     		movs	r2, #0
 3772 0040 1A70     		strb	r2, [r3]
1372:Core/Src/lis2dw12_reg.c ****       break;
 3773              		.loc 1 1372 7
 3774 0042 00BF     		nop
 3775              	.L215:
1373:Core/Src/lis2dw12_reg.c ****   }
1374:Core/Src/lis2dw12_reg.c **** 
1375:Core/Src/lis2dw12_reg.c ****   return ret;
 3776              		.loc 1 1375 10
 3777 0044 FB68     		ldr	r3, [r7, #12]
1376:Core/Src/lis2dw12_reg.c **** }
 3778              		.loc 1 1376 1
 3779 0046 1846     		mov	r0, r3
 3780 0048 1037     		adds	r7, r7, #16
 3781              	.LCFI253:
 3782              		.cfi_def_cfa_offset 8
 3783 004a BD46     		mov	sp, r7
 3784              	.LCFI254:
 3785              		.cfi_def_cfa_register 13
 3786              		@ sp needed
 3787 004c 80BD     		pop	{r7, pc}
 3788              		.cfi_endproc
 3789              	.LFE50:
 3791              		.section	.text.lis2dw12_i2c_interface_set,"ax",%progbits
 3792              		.align	1
 3793              		.global	lis2dw12_i2c_interface_set
 3794              		.syntax unified
 3795              		.thumb
 3796              		.thumb_func
 3798              	lis2dw12_i2c_interface_set:
ARM GAS  C:\Users\vct344\AppData\Local\Temp\ccePc7Ac.s 			page 90


 3799              	.LFB51:
1377:Core/Src/lis2dw12_reg.c **** 
1378:Core/Src/lis2dw12_reg.c **** /**
1379:Core/Src/lis2dw12_reg.c ****   * @brief  Disable / Enable I2C interface.[set]
1380:Core/Src/lis2dw12_reg.c ****   *
1381:Core/Src/lis2dw12_reg.c ****   * @param  ctx      read / write interface definitions
1382:Core/Src/lis2dw12_reg.c ****   * @param  val      change the values of i2c_disable in
1383:Core/Src/lis2dw12_reg.c ****   *                                 reg CTRL2
1384:Core/Src/lis2dw12_reg.c ****   * @retval          interface status (MANDATORY: return 0 -> no Error)
1385:Core/Src/lis2dw12_reg.c ****   *
1386:Core/Src/lis2dw12_reg.c ****   */
1387:Core/Src/lis2dw12_reg.c **** int32_t lis2dw12_i2c_interface_set(const stmdev_ctx_t *ctx,
1388:Core/Src/lis2dw12_reg.c ****                                    lis2dw12_i2c_disable_t val)
1389:Core/Src/lis2dw12_reg.c **** {
 3800              		.loc 1 1389 1
 3801              		.cfi_startproc
 3802              		@ args = 0, pretend = 0, frame = 16
 3803              		@ frame_needed = 1, uses_anonymous_args = 0
 3804 0000 80B5     		push	{r7, lr}
 3805              	.LCFI255:
 3806              		.cfi_def_cfa_offset 8
 3807              		.cfi_offset 7, -8
 3808              		.cfi_offset 14, -4
 3809 0002 84B0     		sub	sp, sp, #16
 3810              	.LCFI256:
 3811              		.cfi_def_cfa_offset 24
 3812 0004 00AF     		add	r7, sp, #0
 3813              	.LCFI257:
 3814              		.cfi_def_cfa_register 7
 3815 0006 7860     		str	r0, [r7, #4]
 3816 0008 0B46     		mov	r3, r1
 3817 000a FB70     		strb	r3, [r7, #3]
1390:Core/Src/lis2dw12_reg.c ****   lis2dw12_ctrl2_t reg;
1391:Core/Src/lis2dw12_reg.c ****   int32_t ret;
1392:Core/Src/lis2dw12_reg.c **** 
1393:Core/Src/lis2dw12_reg.c ****   ret = lis2dw12_read_reg(ctx, LIS2DW12_CTRL2, (uint8_t *) &reg, 1);
 3818              		.loc 1 1393 9
 3819 000c 07F10802 		add	r2, r7, #8
 3820 0010 0123     		movs	r3, #1
 3821 0012 2121     		movs	r1, #33
 3822 0014 7868     		ldr	r0, [r7, #4]
 3823 0016 FFF7FEFF 		bl	lis2dw12_read_reg
 3824 001a F860     		str	r0, [r7, #12]
1394:Core/Src/lis2dw12_reg.c **** 
1395:Core/Src/lis2dw12_reg.c ****   if (ret == 0)
 3825              		.loc 1 1395 6
 3826 001c FB68     		ldr	r3, [r7, #12]
 3827 001e 002B     		cmp	r3, #0
 3828 0020 0FD1     		bne	.L219
1396:Core/Src/lis2dw12_reg.c ****   {
1397:Core/Src/lis2dw12_reg.c ****     reg.i2c_disable = (uint8_t) val;
 3829              		.loc 1 1397 23
 3830 0022 FB78     		ldrb	r3, [r7, #3]
 3831 0024 03F00103 		and	r3, r3, #1
 3832 0028 DAB2     		uxtb	r2, r3
 3833              		.loc 1 1397 21
 3834 002a 3B7A     		ldrb	r3, [r7, #8]
ARM GAS  C:\Users\vct344\AppData\Local\Temp\ccePc7Ac.s 			page 91


 3835 002c 62F34103 		bfi	r3, r2, #1, #1
 3836 0030 3B72     		strb	r3, [r7, #8]
1398:Core/Src/lis2dw12_reg.c ****     ret = lis2dw12_write_reg(ctx, LIS2DW12_CTRL2, (uint8_t *) &reg, 1);
 3837              		.loc 1 1398 11
 3838 0032 07F10802 		add	r2, r7, #8
 3839 0036 0123     		movs	r3, #1
 3840 0038 2121     		movs	r1, #33
 3841 003a 7868     		ldr	r0, [r7, #4]
 3842 003c FFF7FEFF 		bl	lis2dw12_write_reg
 3843 0040 F860     		str	r0, [r7, #12]
 3844              	.L219:
1399:Core/Src/lis2dw12_reg.c ****   }
1400:Core/Src/lis2dw12_reg.c **** 
1401:Core/Src/lis2dw12_reg.c ****   return ret;
 3845              		.loc 1 1401 10
 3846 0042 FB68     		ldr	r3, [r7, #12]
1402:Core/Src/lis2dw12_reg.c **** }
 3847              		.loc 1 1402 1
 3848 0044 1846     		mov	r0, r3
 3849 0046 1037     		adds	r7, r7, #16
 3850              	.LCFI258:
 3851              		.cfi_def_cfa_offset 8
 3852 0048 BD46     		mov	sp, r7
 3853              	.LCFI259:
 3854              		.cfi_def_cfa_register 13
 3855              		@ sp needed
 3856 004a 80BD     		pop	{r7, pc}
 3857              		.cfi_endproc
 3858              	.LFE51:
 3860              		.section	.text.lis2dw12_i2c_interface_get,"ax",%progbits
 3861              		.align	1
 3862              		.global	lis2dw12_i2c_interface_get
 3863              		.syntax unified
 3864              		.thumb
 3865              		.thumb_func
 3867              	lis2dw12_i2c_interface_get:
 3868              	.LFB52:
1403:Core/Src/lis2dw12_reg.c **** 
1404:Core/Src/lis2dw12_reg.c **** /**
1405:Core/Src/lis2dw12_reg.c ****   * @brief  Disable / Enable I2C interface.[get]
1406:Core/Src/lis2dw12_reg.c ****   *
1407:Core/Src/lis2dw12_reg.c ****   * @param  ctx      read / write interface definitions
1408:Core/Src/lis2dw12_reg.c ****   * @param  val      Get the values of i2c_disable in reg CTRL2
1409:Core/Src/lis2dw12_reg.c ****   * @retval          interface status (MANDATORY: return 0 -> no Error)
1410:Core/Src/lis2dw12_reg.c ****   *
1411:Core/Src/lis2dw12_reg.c ****   */
1412:Core/Src/lis2dw12_reg.c **** int32_t lis2dw12_i2c_interface_get(const stmdev_ctx_t *ctx,
1413:Core/Src/lis2dw12_reg.c ****                                    lis2dw12_i2c_disable_t *val)
1414:Core/Src/lis2dw12_reg.c **** {
 3869              		.loc 1 1414 1
 3870              		.cfi_startproc
 3871              		@ args = 0, pretend = 0, frame = 16
 3872              		@ frame_needed = 1, uses_anonymous_args = 0
 3873 0000 80B5     		push	{r7, lr}
 3874              	.LCFI260:
 3875              		.cfi_def_cfa_offset 8
 3876              		.cfi_offset 7, -8
ARM GAS  C:\Users\vct344\AppData\Local\Temp\ccePc7Ac.s 			page 92


 3877              		.cfi_offset 14, -4
 3878 0002 84B0     		sub	sp, sp, #16
 3879              	.LCFI261:
 3880              		.cfi_def_cfa_offset 24
 3881 0004 00AF     		add	r7, sp, #0
 3882              	.LCFI262:
 3883              		.cfi_def_cfa_register 7
 3884 0006 7860     		str	r0, [r7, #4]
 3885 0008 3960     		str	r1, [r7]
1415:Core/Src/lis2dw12_reg.c ****   lis2dw12_ctrl2_t reg;
1416:Core/Src/lis2dw12_reg.c ****   int32_t ret;
1417:Core/Src/lis2dw12_reg.c **** 
1418:Core/Src/lis2dw12_reg.c ****   ret = lis2dw12_read_reg(ctx, LIS2DW12_CTRL2, (uint8_t *) &reg, 1);
 3886              		.loc 1 1418 9
 3887 000a 07F10802 		add	r2, r7, #8
 3888 000e 0123     		movs	r3, #1
 3889 0010 2121     		movs	r1, #33
 3890 0012 7868     		ldr	r0, [r7, #4]
 3891 0014 FFF7FEFF 		bl	lis2dw12_read_reg
 3892 0018 F860     		str	r0, [r7, #12]
1419:Core/Src/lis2dw12_reg.c **** 
1420:Core/Src/lis2dw12_reg.c ****   switch (reg.i2c_disable)
 3893              		.loc 1 1420 14
 3894 001a 3B7A     		ldrb	r3, [r7, #8]
 3895 001c C3F34003 		ubfx	r3, r3, #1, #1
 3896 0020 DBB2     		uxtb	r3, r3
 3897              		.loc 1 1420 3
 3898 0022 002B     		cmp	r3, #0
 3899 0024 02D0     		beq	.L222
 3900 0026 012B     		cmp	r3, #1
 3901 0028 04D0     		beq	.L223
 3902 002a 07E0     		b	.L227
 3903              	.L222:
1421:Core/Src/lis2dw12_reg.c ****   {
1422:Core/Src/lis2dw12_reg.c ****     case LIS2DW12_I2C_ENABLE:
1423:Core/Src/lis2dw12_reg.c ****       *val = LIS2DW12_I2C_ENABLE;
 3904              		.loc 1 1423 12
 3905 002c 3B68     		ldr	r3, [r7]
 3906 002e 0022     		movs	r2, #0
 3907 0030 1A70     		strb	r2, [r3]
1424:Core/Src/lis2dw12_reg.c ****       break;
 3908              		.loc 1 1424 7
 3909 0032 07E0     		b	.L225
 3910              	.L223:
1425:Core/Src/lis2dw12_reg.c **** 
1426:Core/Src/lis2dw12_reg.c ****     case LIS2DW12_I2C_DISABLE:
1427:Core/Src/lis2dw12_reg.c ****       *val = LIS2DW12_I2C_DISABLE;
 3911              		.loc 1 1427 12
 3912 0034 3B68     		ldr	r3, [r7]
 3913 0036 0122     		movs	r2, #1
 3914 0038 1A70     		strb	r2, [r3]
1428:Core/Src/lis2dw12_reg.c ****       break;
 3915              		.loc 1 1428 7
 3916 003a 03E0     		b	.L225
 3917              	.L227:
1429:Core/Src/lis2dw12_reg.c **** 
1430:Core/Src/lis2dw12_reg.c ****     default:
ARM GAS  C:\Users\vct344\AppData\Local\Temp\ccePc7Ac.s 			page 93


1431:Core/Src/lis2dw12_reg.c ****       *val = LIS2DW12_I2C_ENABLE;
 3918              		.loc 1 1431 12
 3919 003c 3B68     		ldr	r3, [r7]
 3920 003e 0022     		movs	r2, #0
 3921 0040 1A70     		strb	r2, [r3]
1432:Core/Src/lis2dw12_reg.c ****       break;
 3922              		.loc 1 1432 7
 3923 0042 00BF     		nop
 3924              	.L225:
1433:Core/Src/lis2dw12_reg.c ****   }
1434:Core/Src/lis2dw12_reg.c **** 
1435:Core/Src/lis2dw12_reg.c ****   return ret;
 3925              		.loc 1 1435 10
 3926 0044 FB68     		ldr	r3, [r7, #12]
1436:Core/Src/lis2dw12_reg.c **** }
 3927              		.loc 1 1436 1
 3928 0046 1846     		mov	r0, r3
 3929 0048 1037     		adds	r7, r7, #16
 3930              	.LCFI263:
 3931              		.cfi_def_cfa_offset 8
 3932 004a BD46     		mov	sp, r7
 3933              	.LCFI264:
 3934              		.cfi_def_cfa_register 13
 3935              		@ sp needed
 3936 004c 80BD     		pop	{r7, pc}
 3937              		.cfi_endproc
 3938              	.LFE52:
 3940              		.section	.text.lis2dw12_cs_mode_set,"ax",%progbits
 3941              		.align	1
 3942              		.global	lis2dw12_cs_mode_set
 3943              		.syntax unified
 3944              		.thumb
 3945              		.thumb_func
 3947              	lis2dw12_cs_mode_set:
 3948              	.LFB53:
1437:Core/Src/lis2dw12_reg.c **** 
1438:Core/Src/lis2dw12_reg.c **** /**
1439:Core/Src/lis2dw12_reg.c ****   * @brief  Disconnect CS pull-up.[set]
1440:Core/Src/lis2dw12_reg.c ****   *
1441:Core/Src/lis2dw12_reg.c ****   * @param  ctx      read / write interface definitions
1442:Core/Src/lis2dw12_reg.c ****   * @param  val      change the values of cs_pu_disc in reg CTRL2
1443:Core/Src/lis2dw12_reg.c ****   * @retval          interface status (MANDATORY: return 0 -> no Error)
1444:Core/Src/lis2dw12_reg.c ****   *
1445:Core/Src/lis2dw12_reg.c ****   */
1446:Core/Src/lis2dw12_reg.c **** int32_t lis2dw12_cs_mode_set(const stmdev_ctx_t *ctx,
1447:Core/Src/lis2dw12_reg.c ****                              lis2dw12_cs_pu_disc_t val)
1448:Core/Src/lis2dw12_reg.c **** {
 3949              		.loc 1 1448 1
 3950              		.cfi_startproc
 3951              		@ args = 0, pretend = 0, frame = 16
 3952              		@ frame_needed = 1, uses_anonymous_args = 0
 3953 0000 80B5     		push	{r7, lr}
 3954              	.LCFI265:
 3955              		.cfi_def_cfa_offset 8
 3956              		.cfi_offset 7, -8
 3957              		.cfi_offset 14, -4
 3958 0002 84B0     		sub	sp, sp, #16
ARM GAS  C:\Users\vct344\AppData\Local\Temp\ccePc7Ac.s 			page 94


 3959              	.LCFI266:
 3960              		.cfi_def_cfa_offset 24
 3961 0004 00AF     		add	r7, sp, #0
 3962              	.LCFI267:
 3963              		.cfi_def_cfa_register 7
 3964 0006 7860     		str	r0, [r7, #4]
 3965 0008 0B46     		mov	r3, r1
 3966 000a FB70     		strb	r3, [r7, #3]
1449:Core/Src/lis2dw12_reg.c ****   lis2dw12_ctrl2_t reg;
1450:Core/Src/lis2dw12_reg.c ****   int32_t ret;
1451:Core/Src/lis2dw12_reg.c **** 
1452:Core/Src/lis2dw12_reg.c ****   ret = lis2dw12_read_reg(ctx, LIS2DW12_CTRL2, (uint8_t *) &reg, 1);
 3967              		.loc 1 1452 9
 3968 000c 07F10802 		add	r2, r7, #8
 3969 0010 0123     		movs	r3, #1
 3970 0012 2121     		movs	r1, #33
 3971 0014 7868     		ldr	r0, [r7, #4]
 3972 0016 FFF7FEFF 		bl	lis2dw12_read_reg
 3973 001a F860     		str	r0, [r7, #12]
1453:Core/Src/lis2dw12_reg.c **** 
1454:Core/Src/lis2dw12_reg.c ****   if (ret == 0)
 3974              		.loc 1 1454 6
 3975 001c FB68     		ldr	r3, [r7, #12]
 3976 001e 002B     		cmp	r3, #0
 3977 0020 0FD1     		bne	.L229
1455:Core/Src/lis2dw12_reg.c ****   {
1456:Core/Src/lis2dw12_reg.c ****     reg.cs_pu_disc = (uint8_t) val;
 3978              		.loc 1 1456 22
 3979 0022 FB78     		ldrb	r3, [r7, #3]
 3980 0024 03F00103 		and	r3, r3, #1
 3981 0028 DAB2     		uxtb	r2, r3
 3982              		.loc 1 1456 20
 3983 002a 3B7A     		ldrb	r3, [r7, #8]
 3984 002c 62F30413 		bfi	r3, r2, #4, #1
 3985 0030 3B72     		strb	r3, [r7, #8]
1457:Core/Src/lis2dw12_reg.c ****     ret = lis2dw12_write_reg(ctx, LIS2DW12_CTRL2, (uint8_t *) &reg, 1);
 3986              		.loc 1 1457 11
 3987 0032 07F10802 		add	r2, r7, #8
 3988 0036 0123     		movs	r3, #1
 3989 0038 2121     		movs	r1, #33
 3990 003a 7868     		ldr	r0, [r7, #4]
 3991 003c FFF7FEFF 		bl	lis2dw12_write_reg
 3992 0040 F860     		str	r0, [r7, #12]
 3993              	.L229:
1458:Core/Src/lis2dw12_reg.c ****   }
1459:Core/Src/lis2dw12_reg.c **** 
1460:Core/Src/lis2dw12_reg.c ****   return ret;
 3994              		.loc 1 1460 10
 3995 0042 FB68     		ldr	r3, [r7, #12]
1461:Core/Src/lis2dw12_reg.c **** }
 3996              		.loc 1 1461 1
 3997 0044 1846     		mov	r0, r3
 3998 0046 1037     		adds	r7, r7, #16
 3999              	.LCFI268:
 4000              		.cfi_def_cfa_offset 8
 4001 0048 BD46     		mov	sp, r7
 4002              	.LCFI269:
ARM GAS  C:\Users\vct344\AppData\Local\Temp\ccePc7Ac.s 			page 95


 4003              		.cfi_def_cfa_register 13
 4004              		@ sp needed
 4005 004a 80BD     		pop	{r7, pc}
 4006              		.cfi_endproc
 4007              	.LFE53:
 4009              		.section	.text.lis2dw12_cs_mode_get,"ax",%progbits
 4010              		.align	1
 4011              		.global	lis2dw12_cs_mode_get
 4012              		.syntax unified
 4013              		.thumb
 4014              		.thumb_func
 4016              	lis2dw12_cs_mode_get:
 4017              	.LFB54:
1462:Core/Src/lis2dw12_reg.c **** 
1463:Core/Src/lis2dw12_reg.c **** /**
1464:Core/Src/lis2dw12_reg.c ****   * @brief  Disconnect CS pull-up.[get]
1465:Core/Src/lis2dw12_reg.c ****   *
1466:Core/Src/lis2dw12_reg.c ****   * @param  ctx      read / write interface definitions
1467:Core/Src/lis2dw12_reg.c ****   * @param  val      Get the values of cs_pu_disc in reg CTRL2
1468:Core/Src/lis2dw12_reg.c ****   * @retval          interface status (MANDATORY: return 0 -> no Error)
1469:Core/Src/lis2dw12_reg.c ****   *
1470:Core/Src/lis2dw12_reg.c ****   */
1471:Core/Src/lis2dw12_reg.c **** int32_t lis2dw12_cs_mode_get(const stmdev_ctx_t *ctx,
1472:Core/Src/lis2dw12_reg.c ****                              lis2dw12_cs_pu_disc_t *val)
1473:Core/Src/lis2dw12_reg.c **** {
 4018              		.loc 1 1473 1
 4019              		.cfi_startproc
 4020              		@ args = 0, pretend = 0, frame = 16
 4021              		@ frame_needed = 1, uses_anonymous_args = 0
 4022 0000 80B5     		push	{r7, lr}
 4023              	.LCFI270:
 4024              		.cfi_def_cfa_offset 8
 4025              		.cfi_offset 7, -8
 4026              		.cfi_offset 14, -4
 4027 0002 84B0     		sub	sp, sp, #16
 4028              	.LCFI271:
 4029              		.cfi_def_cfa_offset 24
 4030 0004 00AF     		add	r7, sp, #0
 4031              	.LCFI272:
 4032              		.cfi_def_cfa_register 7
 4033 0006 7860     		str	r0, [r7, #4]
 4034 0008 3960     		str	r1, [r7]
1474:Core/Src/lis2dw12_reg.c ****   lis2dw12_ctrl2_t reg;
1475:Core/Src/lis2dw12_reg.c ****   int32_t ret;
1476:Core/Src/lis2dw12_reg.c **** 
1477:Core/Src/lis2dw12_reg.c ****   ret = lis2dw12_read_reg(ctx, LIS2DW12_CTRL2, (uint8_t *) &reg, 1);
 4035              		.loc 1 1477 9
 4036 000a 07F10802 		add	r2, r7, #8
 4037 000e 0123     		movs	r3, #1
 4038 0010 2121     		movs	r1, #33
 4039 0012 7868     		ldr	r0, [r7, #4]
 4040 0014 FFF7FEFF 		bl	lis2dw12_read_reg
 4041 0018 F860     		str	r0, [r7, #12]
1478:Core/Src/lis2dw12_reg.c **** 
1479:Core/Src/lis2dw12_reg.c ****   switch (reg.cs_pu_disc)
 4042              		.loc 1 1479 14
 4043 001a 3B7A     		ldrb	r3, [r7, #8]
ARM GAS  C:\Users\vct344\AppData\Local\Temp\ccePc7Ac.s 			page 96


 4044 001c C3F30013 		ubfx	r3, r3, #4, #1
 4045 0020 DBB2     		uxtb	r3, r3
 4046              		.loc 1 1479 3
 4047 0022 002B     		cmp	r3, #0
 4048 0024 02D0     		beq	.L232
 4049 0026 012B     		cmp	r3, #1
 4050 0028 04D0     		beq	.L233
 4051 002a 07E0     		b	.L237
 4052              	.L232:
1480:Core/Src/lis2dw12_reg.c ****   {
1481:Core/Src/lis2dw12_reg.c ****     case LIS2DW12_PULL_UP_CONNECT:
1482:Core/Src/lis2dw12_reg.c ****       *val = LIS2DW12_PULL_UP_CONNECT;
 4053              		.loc 1 1482 12
 4054 002c 3B68     		ldr	r3, [r7]
 4055 002e 0022     		movs	r2, #0
 4056 0030 1A70     		strb	r2, [r3]
1483:Core/Src/lis2dw12_reg.c ****       break;
 4057              		.loc 1 1483 7
 4058 0032 07E0     		b	.L235
 4059              	.L233:
1484:Core/Src/lis2dw12_reg.c **** 
1485:Core/Src/lis2dw12_reg.c ****     case LIS2DW12_PULL_UP_DISCONNECT:
1486:Core/Src/lis2dw12_reg.c ****       *val = LIS2DW12_PULL_UP_DISCONNECT;
 4060              		.loc 1 1486 12
 4061 0034 3B68     		ldr	r3, [r7]
 4062 0036 0122     		movs	r2, #1
 4063 0038 1A70     		strb	r2, [r3]
1487:Core/Src/lis2dw12_reg.c ****       break;
 4064              		.loc 1 1487 7
 4065 003a 03E0     		b	.L235
 4066              	.L237:
1488:Core/Src/lis2dw12_reg.c **** 
1489:Core/Src/lis2dw12_reg.c ****     default:
1490:Core/Src/lis2dw12_reg.c ****       *val = LIS2DW12_PULL_UP_CONNECT;
 4067              		.loc 1 1490 12
 4068 003c 3B68     		ldr	r3, [r7]
 4069 003e 0022     		movs	r2, #0
 4070 0040 1A70     		strb	r2, [r3]
1491:Core/Src/lis2dw12_reg.c ****       break;
 4071              		.loc 1 1491 7
 4072 0042 00BF     		nop
 4073              	.L235:
1492:Core/Src/lis2dw12_reg.c ****   }
1493:Core/Src/lis2dw12_reg.c **** 
1494:Core/Src/lis2dw12_reg.c ****   return ret;
 4074              		.loc 1 1494 10
 4075 0044 FB68     		ldr	r3, [r7, #12]
1495:Core/Src/lis2dw12_reg.c **** }
 4076              		.loc 1 1495 1
 4077 0046 1846     		mov	r0, r3
 4078 0048 1037     		adds	r7, r7, #16
 4079              	.LCFI273:
 4080              		.cfi_def_cfa_offset 8
 4081 004a BD46     		mov	sp, r7
 4082              	.LCFI274:
 4083              		.cfi_def_cfa_register 13
 4084              		@ sp needed
ARM GAS  C:\Users\vct344\AppData\Local\Temp\ccePc7Ac.s 			page 97


 4085 004c 80BD     		pop	{r7, pc}
 4086              		.cfi_endproc
 4087              	.LFE54:
 4089              		.section	.text.lis2dw12_pin_polarity_set,"ax",%progbits
 4090              		.align	1
 4091              		.global	lis2dw12_pin_polarity_set
 4092              		.syntax unified
 4093              		.thumb
 4094              		.thumb_func
 4096              	lis2dw12_pin_polarity_set:
 4097              	.LFB55:
1496:Core/Src/lis2dw12_reg.c **** 
1497:Core/Src/lis2dw12_reg.c **** /**
1498:Core/Src/lis2dw12_reg.c ****   * @}
1499:Core/Src/lis2dw12_reg.c ****   *
1500:Core/Src/lis2dw12_reg.c ****   */
1501:Core/Src/lis2dw12_reg.c **** 
1502:Core/Src/lis2dw12_reg.c **** /**
1503:Core/Src/lis2dw12_reg.c ****   * @defgroup  LIS2DW12_Interrupt_Pins
1504:Core/Src/lis2dw12_reg.c ****   * @brief     This section groups all the functions that manage interrupt pins
1505:Core/Src/lis2dw12_reg.c ****   * @{
1506:Core/Src/lis2dw12_reg.c ****   *
1507:Core/Src/lis2dw12_reg.c ****   */
1508:Core/Src/lis2dw12_reg.c **** 
1509:Core/Src/lis2dw12_reg.c **** /**
1510:Core/Src/lis2dw12_reg.c ****   * @brief  Interrupt active-high/low.[set]
1511:Core/Src/lis2dw12_reg.c ****   *
1512:Core/Src/lis2dw12_reg.c ****   * @param  ctx      read / write interface definitions
1513:Core/Src/lis2dw12_reg.c ****   * @param  val      change the values of h_lactive in reg CTRL3
1514:Core/Src/lis2dw12_reg.c ****   * @retval          interface status (MANDATORY: return 0 -> no Error)
1515:Core/Src/lis2dw12_reg.c ****   *
1516:Core/Src/lis2dw12_reg.c ****   */
1517:Core/Src/lis2dw12_reg.c **** int32_t lis2dw12_pin_polarity_set(const stmdev_ctx_t *ctx,
1518:Core/Src/lis2dw12_reg.c ****                                   lis2dw12_h_lactive_t val)
1519:Core/Src/lis2dw12_reg.c **** {
 4098              		.loc 1 1519 1
 4099              		.cfi_startproc
 4100              		@ args = 0, pretend = 0, frame = 16
 4101              		@ frame_needed = 1, uses_anonymous_args = 0
 4102 0000 80B5     		push	{r7, lr}
 4103              	.LCFI275:
 4104              		.cfi_def_cfa_offset 8
 4105              		.cfi_offset 7, -8
 4106              		.cfi_offset 14, -4
 4107 0002 84B0     		sub	sp, sp, #16
 4108              	.LCFI276:
 4109              		.cfi_def_cfa_offset 24
 4110 0004 00AF     		add	r7, sp, #0
 4111              	.LCFI277:
 4112              		.cfi_def_cfa_register 7
 4113 0006 7860     		str	r0, [r7, #4]
 4114 0008 0B46     		mov	r3, r1
 4115 000a FB70     		strb	r3, [r7, #3]
1520:Core/Src/lis2dw12_reg.c ****   lis2dw12_ctrl3_t reg;
1521:Core/Src/lis2dw12_reg.c ****   int32_t ret;
1522:Core/Src/lis2dw12_reg.c **** 
1523:Core/Src/lis2dw12_reg.c ****   ret = lis2dw12_read_reg(ctx, LIS2DW12_CTRL3, (uint8_t *) &reg, 1);
ARM GAS  C:\Users\vct344\AppData\Local\Temp\ccePc7Ac.s 			page 98


 4116              		.loc 1 1523 9
 4117 000c 07F10802 		add	r2, r7, #8
 4118 0010 0123     		movs	r3, #1
 4119 0012 2221     		movs	r1, #34
 4120 0014 7868     		ldr	r0, [r7, #4]
 4121 0016 FFF7FEFF 		bl	lis2dw12_read_reg
 4122 001a F860     		str	r0, [r7, #12]
1524:Core/Src/lis2dw12_reg.c **** 
1525:Core/Src/lis2dw12_reg.c ****   if (ret == 0)
 4123              		.loc 1 1525 6
 4124 001c FB68     		ldr	r3, [r7, #12]
 4125 001e 002B     		cmp	r3, #0
 4126 0020 0FD1     		bne	.L239
1526:Core/Src/lis2dw12_reg.c ****   {
1527:Core/Src/lis2dw12_reg.c ****     reg.h_lactive = (uint8_t) val;
 4127              		.loc 1 1527 21
 4128 0022 FB78     		ldrb	r3, [r7, #3]
 4129 0024 03F00103 		and	r3, r3, #1
 4130 0028 DAB2     		uxtb	r2, r3
 4131              		.loc 1 1527 19
 4132 002a 3B7A     		ldrb	r3, [r7, #8]
 4133 002c 62F3C303 		bfi	r3, r2, #3, #1
 4134 0030 3B72     		strb	r3, [r7, #8]
1528:Core/Src/lis2dw12_reg.c ****     ret = lis2dw12_write_reg(ctx, LIS2DW12_CTRL3, (uint8_t *) &reg, 1);
 4135              		.loc 1 1528 11
 4136 0032 07F10802 		add	r2, r7, #8
 4137 0036 0123     		movs	r3, #1
 4138 0038 2221     		movs	r1, #34
 4139 003a 7868     		ldr	r0, [r7, #4]
 4140 003c FFF7FEFF 		bl	lis2dw12_write_reg
 4141 0040 F860     		str	r0, [r7, #12]
 4142              	.L239:
1529:Core/Src/lis2dw12_reg.c ****   }
1530:Core/Src/lis2dw12_reg.c **** 
1531:Core/Src/lis2dw12_reg.c ****   return ret;
 4143              		.loc 1 1531 10
 4144 0042 FB68     		ldr	r3, [r7, #12]
1532:Core/Src/lis2dw12_reg.c **** }
 4145              		.loc 1 1532 1
 4146 0044 1846     		mov	r0, r3
 4147 0046 1037     		adds	r7, r7, #16
 4148              	.LCFI278:
 4149              		.cfi_def_cfa_offset 8
 4150 0048 BD46     		mov	sp, r7
 4151              	.LCFI279:
 4152              		.cfi_def_cfa_register 13
 4153              		@ sp needed
 4154 004a 80BD     		pop	{r7, pc}
 4155              		.cfi_endproc
 4156              	.LFE55:
 4158              		.section	.text.lis2dw12_pin_polarity_get,"ax",%progbits
 4159              		.align	1
 4160              		.global	lis2dw12_pin_polarity_get
 4161              		.syntax unified
 4162              		.thumb
 4163              		.thumb_func
 4165              	lis2dw12_pin_polarity_get:
ARM GAS  C:\Users\vct344\AppData\Local\Temp\ccePc7Ac.s 			page 99


 4166              	.LFB56:
1533:Core/Src/lis2dw12_reg.c **** 
1534:Core/Src/lis2dw12_reg.c **** /**
1535:Core/Src/lis2dw12_reg.c ****   * @brief  Interrupt active-high/low.[get]
1536:Core/Src/lis2dw12_reg.c ****   *
1537:Core/Src/lis2dw12_reg.c ****   * @param  ctx      read / write interface definitions
1538:Core/Src/lis2dw12_reg.c ****   * @param  val      Get the values of h_lactive in reg CTRL3
1539:Core/Src/lis2dw12_reg.c ****   * @retval          interface status (MANDATORY: return 0 -> no Error)
1540:Core/Src/lis2dw12_reg.c ****   *
1541:Core/Src/lis2dw12_reg.c ****   */
1542:Core/Src/lis2dw12_reg.c **** int32_t lis2dw12_pin_polarity_get(const stmdev_ctx_t *ctx,
1543:Core/Src/lis2dw12_reg.c ****                                   lis2dw12_h_lactive_t *val)
1544:Core/Src/lis2dw12_reg.c **** {
 4167              		.loc 1 1544 1
 4168              		.cfi_startproc
 4169              		@ args = 0, pretend = 0, frame = 16
 4170              		@ frame_needed = 1, uses_anonymous_args = 0
 4171 0000 80B5     		push	{r7, lr}
 4172              	.LCFI280:
 4173              		.cfi_def_cfa_offset 8
 4174              		.cfi_offset 7, -8
 4175              		.cfi_offset 14, -4
 4176 0002 84B0     		sub	sp, sp, #16
 4177              	.LCFI281:
 4178              		.cfi_def_cfa_offset 24
 4179 0004 00AF     		add	r7, sp, #0
 4180              	.LCFI282:
 4181              		.cfi_def_cfa_register 7
 4182 0006 7860     		str	r0, [r7, #4]
 4183 0008 3960     		str	r1, [r7]
1545:Core/Src/lis2dw12_reg.c ****   lis2dw12_ctrl3_t reg;
1546:Core/Src/lis2dw12_reg.c ****   int32_t ret;
1547:Core/Src/lis2dw12_reg.c **** 
1548:Core/Src/lis2dw12_reg.c ****   ret = lis2dw12_read_reg(ctx, LIS2DW12_CTRL3, (uint8_t *) &reg, 1);
 4184              		.loc 1 1548 9
 4185 000a 07F10802 		add	r2, r7, #8
 4186 000e 0123     		movs	r3, #1
 4187 0010 2221     		movs	r1, #34
 4188 0012 7868     		ldr	r0, [r7, #4]
 4189 0014 FFF7FEFF 		bl	lis2dw12_read_reg
 4190 0018 F860     		str	r0, [r7, #12]
1549:Core/Src/lis2dw12_reg.c **** 
1550:Core/Src/lis2dw12_reg.c ****   switch (reg.h_lactive)
 4191              		.loc 1 1550 14
 4192 001a 3B7A     		ldrb	r3, [r7, #8]
 4193 001c C3F3C003 		ubfx	r3, r3, #3, #1
 4194 0020 DBB2     		uxtb	r3, r3
 4195              		.loc 1 1550 3
 4196 0022 002B     		cmp	r3, #0
 4197 0024 02D0     		beq	.L242
 4198 0026 012B     		cmp	r3, #1
 4199 0028 04D0     		beq	.L243
 4200 002a 07E0     		b	.L247
 4201              	.L242:
1551:Core/Src/lis2dw12_reg.c ****   {
1552:Core/Src/lis2dw12_reg.c ****     case LIS2DW12_ACTIVE_HIGH:
1553:Core/Src/lis2dw12_reg.c ****       *val = LIS2DW12_ACTIVE_HIGH;
ARM GAS  C:\Users\vct344\AppData\Local\Temp\ccePc7Ac.s 			page 100


 4202              		.loc 1 1553 12
 4203 002c 3B68     		ldr	r3, [r7]
 4204 002e 0022     		movs	r2, #0
 4205 0030 1A70     		strb	r2, [r3]
1554:Core/Src/lis2dw12_reg.c ****       break;
 4206              		.loc 1 1554 7
 4207 0032 07E0     		b	.L245
 4208              	.L243:
1555:Core/Src/lis2dw12_reg.c **** 
1556:Core/Src/lis2dw12_reg.c ****     case LIS2DW12_ACTIVE_LOW:
1557:Core/Src/lis2dw12_reg.c ****       *val = LIS2DW12_ACTIVE_LOW;
 4209              		.loc 1 1557 12
 4210 0034 3B68     		ldr	r3, [r7]
 4211 0036 0122     		movs	r2, #1
 4212 0038 1A70     		strb	r2, [r3]
1558:Core/Src/lis2dw12_reg.c ****       break;
 4213              		.loc 1 1558 7
 4214 003a 03E0     		b	.L245
 4215              	.L247:
1559:Core/Src/lis2dw12_reg.c **** 
1560:Core/Src/lis2dw12_reg.c ****     default:
1561:Core/Src/lis2dw12_reg.c ****       *val = LIS2DW12_ACTIVE_HIGH;
 4216              		.loc 1 1561 12
 4217 003c 3B68     		ldr	r3, [r7]
 4218 003e 0022     		movs	r2, #0
 4219 0040 1A70     		strb	r2, [r3]
1562:Core/Src/lis2dw12_reg.c ****       break;
 4220              		.loc 1 1562 7
 4221 0042 00BF     		nop
 4222              	.L245:
1563:Core/Src/lis2dw12_reg.c ****   }
1564:Core/Src/lis2dw12_reg.c **** 
1565:Core/Src/lis2dw12_reg.c ****   return ret;
 4223              		.loc 1 1565 10
 4224 0044 FB68     		ldr	r3, [r7, #12]
1566:Core/Src/lis2dw12_reg.c **** }
 4225              		.loc 1 1566 1
 4226 0046 1846     		mov	r0, r3
 4227 0048 1037     		adds	r7, r7, #16
 4228              	.LCFI283:
 4229              		.cfi_def_cfa_offset 8
 4230 004a BD46     		mov	sp, r7
 4231              	.LCFI284:
 4232              		.cfi_def_cfa_register 13
 4233              		@ sp needed
 4234 004c 80BD     		pop	{r7, pc}
 4235              		.cfi_endproc
 4236              	.LFE56:
 4238              		.section	.text.lis2dw12_int_notification_set,"ax",%progbits
 4239              		.align	1
 4240              		.global	lis2dw12_int_notification_set
 4241              		.syntax unified
 4242              		.thumb
 4243              		.thumb_func
 4245              	lis2dw12_int_notification_set:
 4246              	.LFB57:
1567:Core/Src/lis2dw12_reg.c **** 
ARM GAS  C:\Users\vct344\AppData\Local\Temp\ccePc7Ac.s 			page 101


1568:Core/Src/lis2dw12_reg.c **** /**
1569:Core/Src/lis2dw12_reg.c ****   * @brief  Latched/pulsed interrupt.[set]
1570:Core/Src/lis2dw12_reg.c ****   *
1571:Core/Src/lis2dw12_reg.c ****   * @param  ctx      read / write interface definitions
1572:Core/Src/lis2dw12_reg.c ****   * @param  val      change the values of lir in reg CTRL3
1573:Core/Src/lis2dw12_reg.c ****   * @retval          interface status (MANDATORY: return 0 -> no Error)
1574:Core/Src/lis2dw12_reg.c ****   *
1575:Core/Src/lis2dw12_reg.c ****   */
1576:Core/Src/lis2dw12_reg.c **** int32_t lis2dw12_int_notification_set(const stmdev_ctx_t *ctx,
1577:Core/Src/lis2dw12_reg.c ****                                       lis2dw12_lir_t val)
1578:Core/Src/lis2dw12_reg.c **** {
 4247              		.loc 1 1578 1
 4248              		.cfi_startproc
 4249              		@ args = 0, pretend = 0, frame = 16
 4250              		@ frame_needed = 1, uses_anonymous_args = 0
 4251 0000 80B5     		push	{r7, lr}
 4252              	.LCFI285:
 4253              		.cfi_def_cfa_offset 8
 4254              		.cfi_offset 7, -8
 4255              		.cfi_offset 14, -4
 4256 0002 84B0     		sub	sp, sp, #16
 4257              	.LCFI286:
 4258              		.cfi_def_cfa_offset 24
 4259 0004 00AF     		add	r7, sp, #0
 4260              	.LCFI287:
 4261              		.cfi_def_cfa_register 7
 4262 0006 7860     		str	r0, [r7, #4]
 4263 0008 0B46     		mov	r3, r1
 4264 000a FB70     		strb	r3, [r7, #3]
1579:Core/Src/lis2dw12_reg.c ****   lis2dw12_ctrl3_t reg;
1580:Core/Src/lis2dw12_reg.c ****   int32_t ret;
1581:Core/Src/lis2dw12_reg.c **** 
1582:Core/Src/lis2dw12_reg.c ****   ret = lis2dw12_read_reg(ctx, LIS2DW12_CTRL3, (uint8_t *) &reg, 1);
 4265              		.loc 1 1582 9
 4266 000c 07F10802 		add	r2, r7, #8
 4267 0010 0123     		movs	r3, #1
 4268 0012 2221     		movs	r1, #34
 4269 0014 7868     		ldr	r0, [r7, #4]
 4270 0016 FFF7FEFF 		bl	lis2dw12_read_reg
 4271 001a F860     		str	r0, [r7, #12]
1583:Core/Src/lis2dw12_reg.c **** 
1584:Core/Src/lis2dw12_reg.c ****   if (ret == 0)
 4272              		.loc 1 1584 6
 4273 001c FB68     		ldr	r3, [r7, #12]
 4274 001e 002B     		cmp	r3, #0
 4275 0020 0FD1     		bne	.L249
1585:Core/Src/lis2dw12_reg.c ****   {
1586:Core/Src/lis2dw12_reg.c ****     reg.lir = (uint8_t) val;
 4276              		.loc 1 1586 15
 4277 0022 FB78     		ldrb	r3, [r7, #3]
 4278 0024 03F00103 		and	r3, r3, #1
 4279 0028 DAB2     		uxtb	r2, r3
 4280              		.loc 1 1586 13
 4281 002a 3B7A     		ldrb	r3, [r7, #8]
 4282 002c 62F30413 		bfi	r3, r2, #4, #1
 4283 0030 3B72     		strb	r3, [r7, #8]
1587:Core/Src/lis2dw12_reg.c ****     ret = lis2dw12_write_reg(ctx, LIS2DW12_CTRL3, (uint8_t *) &reg, 1);
ARM GAS  C:\Users\vct344\AppData\Local\Temp\ccePc7Ac.s 			page 102


 4284              		.loc 1 1587 11
 4285 0032 07F10802 		add	r2, r7, #8
 4286 0036 0123     		movs	r3, #1
 4287 0038 2221     		movs	r1, #34
 4288 003a 7868     		ldr	r0, [r7, #4]
 4289 003c FFF7FEFF 		bl	lis2dw12_write_reg
 4290 0040 F860     		str	r0, [r7, #12]
 4291              	.L249:
1588:Core/Src/lis2dw12_reg.c ****   }
1589:Core/Src/lis2dw12_reg.c **** 
1590:Core/Src/lis2dw12_reg.c ****   return ret;
 4292              		.loc 1 1590 10
 4293 0042 FB68     		ldr	r3, [r7, #12]
1591:Core/Src/lis2dw12_reg.c **** }
 4294              		.loc 1 1591 1
 4295 0044 1846     		mov	r0, r3
 4296 0046 1037     		adds	r7, r7, #16
 4297              	.LCFI288:
 4298              		.cfi_def_cfa_offset 8
 4299 0048 BD46     		mov	sp, r7
 4300              	.LCFI289:
 4301              		.cfi_def_cfa_register 13
 4302              		@ sp needed
 4303 004a 80BD     		pop	{r7, pc}
 4304              		.cfi_endproc
 4305              	.LFE57:
 4307              		.section	.text.lis2dw12_int_notification_get,"ax",%progbits
 4308              		.align	1
 4309              		.global	lis2dw12_int_notification_get
 4310              		.syntax unified
 4311              		.thumb
 4312              		.thumb_func
 4314              	lis2dw12_int_notification_get:
 4315              	.LFB58:
1592:Core/Src/lis2dw12_reg.c **** 
1593:Core/Src/lis2dw12_reg.c **** /**
1594:Core/Src/lis2dw12_reg.c ****   * @brief  Latched/pulsed interrupt.[get]
1595:Core/Src/lis2dw12_reg.c ****   *
1596:Core/Src/lis2dw12_reg.c ****   * @param  ctx      read / write interface definitions
1597:Core/Src/lis2dw12_reg.c ****   * @param  val      Get the values of lir in reg CTRL3
1598:Core/Src/lis2dw12_reg.c ****   * @retval          interface status (MANDATORY: return 0 -> no Error)
1599:Core/Src/lis2dw12_reg.c ****   *
1600:Core/Src/lis2dw12_reg.c ****   */
1601:Core/Src/lis2dw12_reg.c **** int32_t lis2dw12_int_notification_get(const stmdev_ctx_t *ctx,
1602:Core/Src/lis2dw12_reg.c ****                                       lis2dw12_lir_t *val)
1603:Core/Src/lis2dw12_reg.c **** {
 4316              		.loc 1 1603 1
 4317              		.cfi_startproc
 4318              		@ args = 0, pretend = 0, frame = 16
 4319              		@ frame_needed = 1, uses_anonymous_args = 0
 4320 0000 80B5     		push	{r7, lr}
 4321              	.LCFI290:
 4322              		.cfi_def_cfa_offset 8
 4323              		.cfi_offset 7, -8
 4324              		.cfi_offset 14, -4
 4325 0002 84B0     		sub	sp, sp, #16
 4326              	.LCFI291:
ARM GAS  C:\Users\vct344\AppData\Local\Temp\ccePc7Ac.s 			page 103


 4327              		.cfi_def_cfa_offset 24
 4328 0004 00AF     		add	r7, sp, #0
 4329              	.LCFI292:
 4330              		.cfi_def_cfa_register 7
 4331 0006 7860     		str	r0, [r7, #4]
 4332 0008 3960     		str	r1, [r7]
1604:Core/Src/lis2dw12_reg.c ****   lis2dw12_ctrl3_t reg;
1605:Core/Src/lis2dw12_reg.c ****   int32_t ret;
1606:Core/Src/lis2dw12_reg.c **** 
1607:Core/Src/lis2dw12_reg.c ****   ret = lis2dw12_read_reg(ctx, LIS2DW12_CTRL3, (uint8_t *) &reg, 1);
 4333              		.loc 1 1607 9
 4334 000a 07F10802 		add	r2, r7, #8
 4335 000e 0123     		movs	r3, #1
 4336 0010 2221     		movs	r1, #34
 4337 0012 7868     		ldr	r0, [r7, #4]
 4338 0014 FFF7FEFF 		bl	lis2dw12_read_reg
 4339 0018 F860     		str	r0, [r7, #12]
1608:Core/Src/lis2dw12_reg.c **** 
1609:Core/Src/lis2dw12_reg.c ****   switch (reg.lir)
 4340              		.loc 1 1609 14
 4341 001a 3B7A     		ldrb	r3, [r7, #8]
 4342 001c C3F30013 		ubfx	r3, r3, #4, #1
 4343 0020 DBB2     		uxtb	r3, r3
 4344              		.loc 1 1609 3
 4345 0022 002B     		cmp	r3, #0
 4346 0024 02D0     		beq	.L252
 4347 0026 012B     		cmp	r3, #1
 4348 0028 04D0     		beq	.L253
 4349 002a 07E0     		b	.L257
 4350              	.L252:
1610:Core/Src/lis2dw12_reg.c ****   {
1611:Core/Src/lis2dw12_reg.c ****     case LIS2DW12_INT_PULSED:
1612:Core/Src/lis2dw12_reg.c ****       *val = LIS2DW12_INT_PULSED;
 4351              		.loc 1 1612 12
 4352 002c 3B68     		ldr	r3, [r7]
 4353 002e 0022     		movs	r2, #0
 4354 0030 1A70     		strb	r2, [r3]
1613:Core/Src/lis2dw12_reg.c ****       break;
 4355              		.loc 1 1613 7
 4356 0032 07E0     		b	.L255
 4357              	.L253:
1614:Core/Src/lis2dw12_reg.c **** 
1615:Core/Src/lis2dw12_reg.c ****     case LIS2DW12_INT_LATCHED:
1616:Core/Src/lis2dw12_reg.c ****       *val = LIS2DW12_INT_LATCHED;
 4358              		.loc 1 1616 12
 4359 0034 3B68     		ldr	r3, [r7]
 4360 0036 0122     		movs	r2, #1
 4361 0038 1A70     		strb	r2, [r3]
1617:Core/Src/lis2dw12_reg.c ****       break;
 4362              		.loc 1 1617 7
 4363 003a 03E0     		b	.L255
 4364              	.L257:
1618:Core/Src/lis2dw12_reg.c **** 
1619:Core/Src/lis2dw12_reg.c ****     default:
1620:Core/Src/lis2dw12_reg.c ****       *val = LIS2DW12_INT_PULSED;
 4365              		.loc 1 1620 12
 4366 003c 3B68     		ldr	r3, [r7]
ARM GAS  C:\Users\vct344\AppData\Local\Temp\ccePc7Ac.s 			page 104


 4367 003e 0022     		movs	r2, #0
 4368 0040 1A70     		strb	r2, [r3]
1621:Core/Src/lis2dw12_reg.c ****       break;
 4369              		.loc 1 1621 7
 4370 0042 00BF     		nop
 4371              	.L255:
1622:Core/Src/lis2dw12_reg.c ****   }
1623:Core/Src/lis2dw12_reg.c **** 
1624:Core/Src/lis2dw12_reg.c ****   return ret;
 4372              		.loc 1 1624 10
 4373 0044 FB68     		ldr	r3, [r7, #12]
1625:Core/Src/lis2dw12_reg.c **** }
 4374              		.loc 1 1625 1
 4375 0046 1846     		mov	r0, r3
 4376 0048 1037     		adds	r7, r7, #16
 4377              	.LCFI293:
 4378              		.cfi_def_cfa_offset 8
 4379 004a BD46     		mov	sp, r7
 4380              	.LCFI294:
 4381              		.cfi_def_cfa_register 13
 4382              		@ sp needed
 4383 004c 80BD     		pop	{r7, pc}
 4384              		.cfi_endproc
 4385              	.LFE58:
 4387              		.section	.text.lis2dw12_pin_mode_set,"ax",%progbits
 4388              		.align	1
 4389              		.global	lis2dw12_pin_mode_set
 4390              		.syntax unified
 4391              		.thumb
 4392              		.thumb_func
 4394              	lis2dw12_pin_mode_set:
 4395              	.LFB59:
1626:Core/Src/lis2dw12_reg.c **** 
1627:Core/Src/lis2dw12_reg.c **** /**
1628:Core/Src/lis2dw12_reg.c ****   * @brief  Push-pull/open drain selection on interrupt pads.[set]
1629:Core/Src/lis2dw12_reg.c ****   *
1630:Core/Src/lis2dw12_reg.c ****   * @param  ctx      read / write interface definitions
1631:Core/Src/lis2dw12_reg.c ****   * @param  val      change the values of pp_od in reg CTRL3
1632:Core/Src/lis2dw12_reg.c ****   * @retval          interface status (MANDATORY: return 0 -> no Error)
1633:Core/Src/lis2dw12_reg.c ****   *
1634:Core/Src/lis2dw12_reg.c ****   */
1635:Core/Src/lis2dw12_reg.c **** int32_t lis2dw12_pin_mode_set(const stmdev_ctx_t *ctx, lis2dw12_pp_od_t val)
1636:Core/Src/lis2dw12_reg.c **** {
 4396              		.loc 1 1636 1
 4397              		.cfi_startproc
 4398              		@ args = 0, pretend = 0, frame = 16
 4399              		@ frame_needed = 1, uses_anonymous_args = 0
 4400 0000 80B5     		push	{r7, lr}
 4401              	.LCFI295:
 4402              		.cfi_def_cfa_offset 8
 4403              		.cfi_offset 7, -8
 4404              		.cfi_offset 14, -4
 4405 0002 84B0     		sub	sp, sp, #16
 4406              	.LCFI296:
 4407              		.cfi_def_cfa_offset 24
 4408 0004 00AF     		add	r7, sp, #0
 4409              	.LCFI297:
ARM GAS  C:\Users\vct344\AppData\Local\Temp\ccePc7Ac.s 			page 105


 4410              		.cfi_def_cfa_register 7
 4411 0006 7860     		str	r0, [r7, #4]
 4412 0008 0B46     		mov	r3, r1
 4413 000a FB70     		strb	r3, [r7, #3]
1637:Core/Src/lis2dw12_reg.c ****   lis2dw12_ctrl3_t reg;
1638:Core/Src/lis2dw12_reg.c ****   int32_t ret;
1639:Core/Src/lis2dw12_reg.c **** 
1640:Core/Src/lis2dw12_reg.c ****   ret = lis2dw12_read_reg(ctx, LIS2DW12_CTRL3, (uint8_t *) &reg, 1);
 4414              		.loc 1 1640 9
 4415 000c 07F10802 		add	r2, r7, #8
 4416 0010 0123     		movs	r3, #1
 4417 0012 2221     		movs	r1, #34
 4418 0014 7868     		ldr	r0, [r7, #4]
 4419 0016 FFF7FEFF 		bl	lis2dw12_read_reg
 4420 001a F860     		str	r0, [r7, #12]
1641:Core/Src/lis2dw12_reg.c **** 
1642:Core/Src/lis2dw12_reg.c ****   if (ret == 0)
 4421              		.loc 1 1642 6
 4422 001c FB68     		ldr	r3, [r7, #12]
 4423 001e 002B     		cmp	r3, #0
 4424 0020 0FD1     		bne	.L259
1643:Core/Src/lis2dw12_reg.c ****   {
1644:Core/Src/lis2dw12_reg.c ****     reg.pp_od = (uint8_t) val;
 4425              		.loc 1 1644 17
 4426 0022 FB78     		ldrb	r3, [r7, #3]
 4427 0024 03F00103 		and	r3, r3, #1
 4428 0028 DAB2     		uxtb	r2, r3
 4429              		.loc 1 1644 15
 4430 002a 3B7A     		ldrb	r3, [r7, #8]
 4431 002c 62F34513 		bfi	r3, r2, #5, #1
 4432 0030 3B72     		strb	r3, [r7, #8]
1645:Core/Src/lis2dw12_reg.c ****     ret = lis2dw12_write_reg(ctx, LIS2DW12_CTRL3, (uint8_t *) &reg, 1);
 4433              		.loc 1 1645 11
 4434 0032 07F10802 		add	r2, r7, #8
 4435 0036 0123     		movs	r3, #1
 4436 0038 2221     		movs	r1, #34
 4437 003a 7868     		ldr	r0, [r7, #4]
 4438 003c FFF7FEFF 		bl	lis2dw12_write_reg
 4439 0040 F860     		str	r0, [r7, #12]
 4440              	.L259:
1646:Core/Src/lis2dw12_reg.c ****   }
1647:Core/Src/lis2dw12_reg.c **** 
1648:Core/Src/lis2dw12_reg.c ****   return ret;
 4441              		.loc 1 1648 10
 4442 0042 FB68     		ldr	r3, [r7, #12]
1649:Core/Src/lis2dw12_reg.c **** }
 4443              		.loc 1 1649 1
 4444 0044 1846     		mov	r0, r3
 4445 0046 1037     		adds	r7, r7, #16
 4446              	.LCFI298:
 4447              		.cfi_def_cfa_offset 8
 4448 0048 BD46     		mov	sp, r7
 4449              	.LCFI299:
 4450              		.cfi_def_cfa_register 13
 4451              		@ sp needed
 4452 004a 80BD     		pop	{r7, pc}
 4453              		.cfi_endproc
ARM GAS  C:\Users\vct344\AppData\Local\Temp\ccePc7Ac.s 			page 106


 4454              	.LFE59:
 4456              		.section	.text.lis2dw12_pin_mode_get,"ax",%progbits
 4457              		.align	1
 4458              		.global	lis2dw12_pin_mode_get
 4459              		.syntax unified
 4460              		.thumb
 4461              		.thumb_func
 4463              	lis2dw12_pin_mode_get:
 4464              	.LFB60:
1650:Core/Src/lis2dw12_reg.c **** 
1651:Core/Src/lis2dw12_reg.c **** /**
1652:Core/Src/lis2dw12_reg.c ****   * @brief  Push-pull/open drain selection on interrupt pads.[get]
1653:Core/Src/lis2dw12_reg.c ****   *
1654:Core/Src/lis2dw12_reg.c ****   * @param  ctx      read / write interface definitions
1655:Core/Src/lis2dw12_reg.c ****   * @param  val      Get the values of pp_od in reg CTRL3
1656:Core/Src/lis2dw12_reg.c ****   * @retval          interface status (MANDATORY: return 0 -> no Error)
1657:Core/Src/lis2dw12_reg.c ****   *
1658:Core/Src/lis2dw12_reg.c ****   */
1659:Core/Src/lis2dw12_reg.c **** int32_t lis2dw12_pin_mode_get(const stmdev_ctx_t *ctx,
1660:Core/Src/lis2dw12_reg.c ****                               lis2dw12_pp_od_t *val)
1661:Core/Src/lis2dw12_reg.c **** {
 4465              		.loc 1 1661 1
 4466              		.cfi_startproc
 4467              		@ args = 0, pretend = 0, frame = 16
 4468              		@ frame_needed = 1, uses_anonymous_args = 0
 4469 0000 80B5     		push	{r7, lr}
 4470              	.LCFI300:
 4471              		.cfi_def_cfa_offset 8
 4472              		.cfi_offset 7, -8
 4473              		.cfi_offset 14, -4
 4474 0002 84B0     		sub	sp, sp, #16
 4475              	.LCFI301:
 4476              		.cfi_def_cfa_offset 24
 4477 0004 00AF     		add	r7, sp, #0
 4478              	.LCFI302:
 4479              		.cfi_def_cfa_register 7
 4480 0006 7860     		str	r0, [r7, #4]
 4481 0008 3960     		str	r1, [r7]
1662:Core/Src/lis2dw12_reg.c ****   lis2dw12_ctrl3_t reg;
1663:Core/Src/lis2dw12_reg.c ****   int32_t ret;
1664:Core/Src/lis2dw12_reg.c **** 
1665:Core/Src/lis2dw12_reg.c ****   ret = lis2dw12_read_reg(ctx, LIS2DW12_CTRL3, (uint8_t *) &reg, 1);
 4482              		.loc 1 1665 9
 4483 000a 07F10802 		add	r2, r7, #8
 4484 000e 0123     		movs	r3, #1
 4485 0010 2221     		movs	r1, #34
 4486 0012 7868     		ldr	r0, [r7, #4]
 4487 0014 FFF7FEFF 		bl	lis2dw12_read_reg
 4488 0018 F860     		str	r0, [r7, #12]
1666:Core/Src/lis2dw12_reg.c **** 
1667:Core/Src/lis2dw12_reg.c ****   switch (reg.pp_od)
 4489              		.loc 1 1667 14
 4490 001a 3B7A     		ldrb	r3, [r7, #8]
 4491 001c C3F34013 		ubfx	r3, r3, #5, #1
 4492 0020 DBB2     		uxtb	r3, r3
 4493              		.loc 1 1667 3
 4494 0022 002B     		cmp	r3, #0
ARM GAS  C:\Users\vct344\AppData\Local\Temp\ccePc7Ac.s 			page 107


 4495 0024 02D0     		beq	.L262
 4496 0026 012B     		cmp	r3, #1
 4497 0028 04D0     		beq	.L263
 4498 002a 07E0     		b	.L267
 4499              	.L262:
1668:Core/Src/lis2dw12_reg.c ****   {
1669:Core/Src/lis2dw12_reg.c ****     case LIS2DW12_PUSH_PULL:
1670:Core/Src/lis2dw12_reg.c ****       *val = LIS2DW12_PUSH_PULL;
 4500              		.loc 1 1670 12
 4501 002c 3B68     		ldr	r3, [r7]
 4502 002e 0022     		movs	r2, #0
 4503 0030 1A70     		strb	r2, [r3]
1671:Core/Src/lis2dw12_reg.c ****       break;
 4504              		.loc 1 1671 7
 4505 0032 07E0     		b	.L265
 4506              	.L263:
1672:Core/Src/lis2dw12_reg.c **** 
1673:Core/Src/lis2dw12_reg.c ****     case LIS2DW12_OPEN_DRAIN:
1674:Core/Src/lis2dw12_reg.c ****       *val = LIS2DW12_OPEN_DRAIN;
 4507              		.loc 1 1674 12
 4508 0034 3B68     		ldr	r3, [r7]
 4509 0036 0122     		movs	r2, #1
 4510 0038 1A70     		strb	r2, [r3]
1675:Core/Src/lis2dw12_reg.c ****       break;
 4511              		.loc 1 1675 7
 4512 003a 03E0     		b	.L265
 4513              	.L267:
1676:Core/Src/lis2dw12_reg.c **** 
1677:Core/Src/lis2dw12_reg.c ****     default:
1678:Core/Src/lis2dw12_reg.c ****       *val = LIS2DW12_PUSH_PULL;
 4514              		.loc 1 1678 12
 4515 003c 3B68     		ldr	r3, [r7]
 4516 003e 0022     		movs	r2, #0
 4517 0040 1A70     		strb	r2, [r3]
1679:Core/Src/lis2dw12_reg.c ****       break;
 4518              		.loc 1 1679 7
 4519 0042 00BF     		nop
 4520              	.L265:
1680:Core/Src/lis2dw12_reg.c ****   }
1681:Core/Src/lis2dw12_reg.c **** 
1682:Core/Src/lis2dw12_reg.c ****   return ret;
 4521              		.loc 1 1682 10
 4522 0044 FB68     		ldr	r3, [r7, #12]
1683:Core/Src/lis2dw12_reg.c **** }
 4523              		.loc 1 1683 1
 4524 0046 1846     		mov	r0, r3
 4525 0048 1037     		adds	r7, r7, #16
 4526              	.LCFI303:
 4527              		.cfi_def_cfa_offset 8
 4528 004a BD46     		mov	sp, r7
 4529              	.LCFI304:
 4530              		.cfi_def_cfa_register 13
 4531              		@ sp needed
 4532 004c 80BD     		pop	{r7, pc}
 4533              		.cfi_endproc
 4534              	.LFE60:
 4536              		.section	.text.lis2dw12_pin_int1_route_set,"ax",%progbits
ARM GAS  C:\Users\vct344\AppData\Local\Temp\ccePc7Ac.s 			page 108


 4537              		.align	1
 4538              		.global	lis2dw12_pin_int1_route_set
 4539              		.syntax unified
 4540              		.thumb
 4541              		.thumb_func
 4543              	lis2dw12_pin_int1_route_set:
 4544              	.LFB61:
1684:Core/Src/lis2dw12_reg.c **** 
1685:Core/Src/lis2dw12_reg.c **** /**
1686:Core/Src/lis2dw12_reg.c ****   * @brief  Select the signal that need to route on int1 pad.[set]
1687:Core/Src/lis2dw12_reg.c ****   *
1688:Core/Src/lis2dw12_reg.c ****   * @param  ctx      read / write interface definitions
1689:Core/Src/lis2dw12_reg.c ****   * @param  val      register CTRL4_INT1_PAD_CTRL.
1690:Core/Src/lis2dw12_reg.c ****   * @retval          interface status (MANDATORY: return 0 -> no Error)
1691:Core/Src/lis2dw12_reg.c ****   *
1692:Core/Src/lis2dw12_reg.c ****   */
1693:Core/Src/lis2dw12_reg.c **** int32_t lis2dw12_pin_int1_route_set(const stmdev_ctx_t *ctx,
1694:Core/Src/lis2dw12_reg.c ****                                     lis2dw12_ctrl4_int1_pad_ctrl_t *val)
1695:Core/Src/lis2dw12_reg.c **** {
 4545              		.loc 1 1695 1
 4546              		.cfi_startproc
 4547              		@ args = 0, pretend = 0, frame = 24
 4548              		@ frame_needed = 1, uses_anonymous_args = 0
 4549 0000 80B5     		push	{r7, lr}
 4550              	.LCFI305:
 4551              		.cfi_def_cfa_offset 8
 4552              		.cfi_offset 7, -8
 4553              		.cfi_offset 14, -4
 4554 0002 86B0     		sub	sp, sp, #24
 4555              	.LCFI306:
 4556              		.cfi_def_cfa_offset 32
 4557 0004 00AF     		add	r7, sp, #0
 4558              	.LCFI307:
 4559              		.cfi_def_cfa_register 7
 4560 0006 7860     		str	r0, [r7, #4]
 4561 0008 3960     		str	r1, [r7]
1696:Core/Src/lis2dw12_reg.c ****   lis2dw12_ctrl5_int2_pad_ctrl_t ctrl5_int2_pad_ctrl;
1697:Core/Src/lis2dw12_reg.c ****   lis2dw12_ctrl_reg7_t reg;
1698:Core/Src/lis2dw12_reg.c ****   int32_t ret;
1699:Core/Src/lis2dw12_reg.c **** 
1700:Core/Src/lis2dw12_reg.c ****   ret = lis2dw12_read_reg(ctx, LIS2DW12_CTRL5_INT2_PAD_CTRL,
 4562              		.loc 1 1700 9
 4563 000a 07F11002 		add	r2, r7, #16
 4564 000e 0123     		movs	r3, #1
 4565 0010 2421     		movs	r1, #36
 4566 0012 7868     		ldr	r0, [r7, #4]
 4567 0014 FFF7FEFF 		bl	lis2dw12_read_reg
 4568 0018 7861     		str	r0, [r7, #20]
1701:Core/Src/lis2dw12_reg.c ****                           (uint8_t *)&ctrl5_int2_pad_ctrl, 1);
1702:Core/Src/lis2dw12_reg.c **** 
1703:Core/Src/lis2dw12_reg.c ****   if (ret == 0)
 4569              		.loc 1 1703 6
 4570 001a 7B69     		ldr	r3, [r7, #20]
 4571 001c 002B     		cmp	r3, #0
 4572 001e 07D1     		bne	.L269
1704:Core/Src/lis2dw12_reg.c ****   {
1705:Core/Src/lis2dw12_reg.c ****     ret = lis2dw12_read_reg(ctx, LIS2DW12_CTRL_REG7, (uint8_t *) &reg, 1);
ARM GAS  C:\Users\vct344\AppData\Local\Temp\ccePc7Ac.s 			page 109


 4573              		.loc 1 1705 11
 4574 0020 07F10C02 		add	r2, r7, #12
 4575 0024 0123     		movs	r3, #1
 4576 0026 3F21     		movs	r1, #63
 4577 0028 7868     		ldr	r0, [r7, #4]
 4578 002a FFF7FEFF 		bl	lis2dw12_read_reg
 4579 002e 7861     		str	r0, [r7, #20]
 4580              	.L269:
1706:Core/Src/lis2dw12_reg.c ****   }
1707:Core/Src/lis2dw12_reg.c **** 
1708:Core/Src/lis2dw12_reg.c ****   if (ret == 0)
 4581              		.loc 1 1708 6
 4582 0030 7B69     		ldr	r3, [r7, #20]
 4583 0032 002B     		cmp	r3, #0
 4584 0034 3ED1     		bne	.L270
1709:Core/Src/lis2dw12_reg.c ****   {
1710:Core/Src/lis2dw12_reg.c ****     if ((val->int1_tap |
 4585              		.loc 1 1710 13
 4586 0036 3B68     		ldr	r3, [r7]
 4587 0038 1B78     		ldrb	r3, [r3]
 4588 003a C3F3C003 		ubfx	r3, r3, #3, #1
 4589 003e DAB2     		uxtb	r2, r3
1711:Core/Src/lis2dw12_reg.c ****          val->int1_ff |
 4590              		.loc 1 1711 13
 4591 0040 3B68     		ldr	r3, [r7]
 4592 0042 1B78     		ldrb	r3, [r3]
 4593 0044 C3F30013 		ubfx	r3, r3, #4, #1
 4594 0048 DBB2     		uxtb	r3, r3
1710:Core/Src/lis2dw12_reg.c ****          val->int1_ff |
 4595              		.loc 1 1710 24
 4596 004a 1343     		orrs	r3, r3, r2
 4597 004c DAB2     		uxtb	r2, r3
1712:Core/Src/lis2dw12_reg.c ****          val->int1_wu |
 4598              		.loc 1 1712 13
 4599 004e 3B68     		ldr	r3, [r7]
 4600 0050 1B78     		ldrb	r3, [r3]
 4601 0052 C3F34013 		ubfx	r3, r3, #5, #1
 4602 0056 DBB2     		uxtb	r3, r3
1711:Core/Src/lis2dw12_reg.c ****          val->int1_ff |
 4603              		.loc 1 1711 23
 4604 0058 1343     		orrs	r3, r3, r2
 4605 005a DAB2     		uxtb	r2, r3
1713:Core/Src/lis2dw12_reg.c ****          val->int1_single_tap |
 4606              		.loc 1 1713 13
 4607 005c 3B68     		ldr	r3, [r7]
 4608 005e 1B78     		ldrb	r3, [r3]
 4609 0060 C3F38013 		ubfx	r3, r3, #6, #1
 4610 0064 DBB2     		uxtb	r3, r3
1712:Core/Src/lis2dw12_reg.c ****          val->int1_wu |
 4611              		.loc 1 1712 23
 4612 0066 1343     		orrs	r3, r3, r2
 4613 0068 DAB2     		uxtb	r2, r3
1714:Core/Src/lis2dw12_reg.c ****          val->int1_6d |
 4614              		.loc 1 1714 13
 4615 006a 3B68     		ldr	r3, [r7]
 4616 006c 1B78     		ldrb	r3, [r3]
 4617 006e C3F3C013 		ubfx	r3, r3, #7, #1
ARM GAS  C:\Users\vct344\AppData\Local\Temp\ccePc7Ac.s 			page 110


 4618 0072 DBB2     		uxtb	r3, r3
1713:Core/Src/lis2dw12_reg.c ****          val->int1_single_tap |
 4619              		.loc 1 1713 31
 4620 0074 1343     		orrs	r3, r3, r2
 4621 0076 DAB2     		uxtb	r2, r3
1715:Core/Src/lis2dw12_reg.c ****          ctrl5_int2_pad_ctrl.int2_sleep_state |
 4622              		.loc 1 1715 29
 4623 0078 3B7C     		ldrb	r3, [r7, #16]
 4624 007a C3F3C013 		ubfx	r3, r3, #7, #1
 4625 007e DBB2     		uxtb	r3, r3
1714:Core/Src/lis2dw12_reg.c ****          val->int1_6d |
 4626              		.loc 1 1714 23
 4627 0080 1343     		orrs	r3, r3, r2
 4628 0082 DAB2     		uxtb	r2, r3
1716:Core/Src/lis2dw12_reg.c ****          ctrl5_int2_pad_ctrl.int2_sleep_chg) != PROPERTY_DISABLE)
 4629              		.loc 1 1716 29
 4630 0084 3B7C     		ldrb	r3, [r7, #16]
 4631 0086 C3F38013 		ubfx	r3, r3, #6, #1
 4632 008a DBB2     		uxtb	r3, r3
1715:Core/Src/lis2dw12_reg.c ****          ctrl5_int2_pad_ctrl.int2_sleep_state |
 4633              		.loc 1 1715 47
 4634 008c 1343     		orrs	r3, r3, r2
 4635 008e DBB2     		uxtb	r3, r3
1710:Core/Src/lis2dw12_reg.c ****          val->int1_ff |
 4636              		.loc 1 1710 8
 4637 0090 002B     		cmp	r3, #0
 4638 0092 04D0     		beq	.L271
1717:Core/Src/lis2dw12_reg.c ****     {
1718:Core/Src/lis2dw12_reg.c ****       reg.interrupts_enable = PROPERTY_ENABLE;
 4639              		.loc 1 1718 29
 4640 0094 3B7B     		ldrb	r3, [r7, #12]
 4641 0096 43F02003 		orr	r3, r3, #32
 4642 009a 3B73     		strb	r3, [r7, #12]
 4643 009c 03E0     		b	.L272
 4644              	.L271:
1719:Core/Src/lis2dw12_reg.c ****     }
1720:Core/Src/lis2dw12_reg.c **** 
1721:Core/Src/lis2dw12_reg.c ****     else
1722:Core/Src/lis2dw12_reg.c ****     {
1723:Core/Src/lis2dw12_reg.c ****       reg.interrupts_enable = PROPERTY_DISABLE;
 4645              		.loc 1 1723 29
 4646 009e 3B7B     		ldrb	r3, [r7, #12]
 4647 00a0 6FF34513 		bfc	r3, #5, #1
 4648 00a4 3B73     		strb	r3, [r7, #12]
 4649              	.L272:
1724:Core/Src/lis2dw12_reg.c ****     }
1725:Core/Src/lis2dw12_reg.c **** 
1726:Core/Src/lis2dw12_reg.c ****     ret = lis2dw12_write_reg(ctx, LIS2DW12_CTRL4_INT1_PAD_CTRL,
 4650              		.loc 1 1726 11
 4651 00a6 0123     		movs	r3, #1
 4652 00a8 3A68     		ldr	r2, [r7]
 4653 00aa 2321     		movs	r1, #35
 4654 00ac 7868     		ldr	r0, [r7, #4]
 4655 00ae FFF7FEFF 		bl	lis2dw12_write_reg
 4656 00b2 7861     		str	r0, [r7, #20]
 4657              	.L270:
1727:Core/Src/lis2dw12_reg.c ****                              (uint8_t *) val, 1);
ARM GAS  C:\Users\vct344\AppData\Local\Temp\ccePc7Ac.s 			page 111


1728:Core/Src/lis2dw12_reg.c ****   }
1729:Core/Src/lis2dw12_reg.c **** 
1730:Core/Src/lis2dw12_reg.c ****   if (ret == 0)
 4658              		.loc 1 1730 6
 4659 00b4 7B69     		ldr	r3, [r7, #20]
 4660 00b6 002B     		cmp	r3, #0
 4661 00b8 07D1     		bne	.L273
1731:Core/Src/lis2dw12_reg.c ****   {
1732:Core/Src/lis2dw12_reg.c ****     ret = lis2dw12_write_reg(ctx, LIS2DW12_CTRL_REG7, (uint8_t *) &reg, 1);
 4662              		.loc 1 1732 11
 4663 00ba 07F10C02 		add	r2, r7, #12
 4664 00be 0123     		movs	r3, #1
 4665 00c0 3F21     		movs	r1, #63
 4666 00c2 7868     		ldr	r0, [r7, #4]
 4667 00c4 FFF7FEFF 		bl	lis2dw12_write_reg
 4668 00c8 7861     		str	r0, [r7, #20]
 4669              	.L273:
1733:Core/Src/lis2dw12_reg.c ****   }
1734:Core/Src/lis2dw12_reg.c **** 
1735:Core/Src/lis2dw12_reg.c ****   return ret;
 4670              		.loc 1 1735 10
 4671 00ca 7B69     		ldr	r3, [r7, #20]
1736:Core/Src/lis2dw12_reg.c **** }
 4672              		.loc 1 1736 1
 4673 00cc 1846     		mov	r0, r3
 4674 00ce 1837     		adds	r7, r7, #24
 4675              	.LCFI308:
 4676              		.cfi_def_cfa_offset 8
 4677 00d0 BD46     		mov	sp, r7
 4678              	.LCFI309:
 4679              		.cfi_def_cfa_register 13
 4680              		@ sp needed
 4681 00d2 80BD     		pop	{r7, pc}
 4682              		.cfi_endproc
 4683              	.LFE61:
 4685              		.section	.text.lis2dw12_pin_int1_route_get,"ax",%progbits
 4686              		.align	1
 4687              		.global	lis2dw12_pin_int1_route_get
 4688              		.syntax unified
 4689              		.thumb
 4690              		.thumb_func
 4692              	lis2dw12_pin_int1_route_get:
 4693              	.LFB62:
1737:Core/Src/lis2dw12_reg.c **** 
1738:Core/Src/lis2dw12_reg.c **** /**
1739:Core/Src/lis2dw12_reg.c ****   * @brief  Select the signal that need to route on int1 pad.[get]
1740:Core/Src/lis2dw12_reg.c ****   *
1741:Core/Src/lis2dw12_reg.c ****   * @param  ctx      read / write interface definitions
1742:Core/Src/lis2dw12_reg.c ****   * @param  val      register CTRL4_INT1_PAD_CTRL.
1743:Core/Src/lis2dw12_reg.c ****   * @retval          interface status (MANDATORY: return 0 -> no Error)
1744:Core/Src/lis2dw12_reg.c ****   *
1745:Core/Src/lis2dw12_reg.c ****   */
1746:Core/Src/lis2dw12_reg.c **** int32_t lis2dw12_pin_int1_route_get(const stmdev_ctx_t *ctx,
1747:Core/Src/lis2dw12_reg.c ****                                     lis2dw12_ctrl4_int1_pad_ctrl_t *val)
1748:Core/Src/lis2dw12_reg.c **** {
 4694              		.loc 1 1748 1
 4695              		.cfi_startproc
ARM GAS  C:\Users\vct344\AppData\Local\Temp\ccePc7Ac.s 			page 112


 4696              		@ args = 0, pretend = 0, frame = 16
 4697              		@ frame_needed = 1, uses_anonymous_args = 0
 4698 0000 80B5     		push	{r7, lr}
 4699              	.LCFI310:
 4700              		.cfi_def_cfa_offset 8
 4701              		.cfi_offset 7, -8
 4702              		.cfi_offset 14, -4
 4703 0002 84B0     		sub	sp, sp, #16
 4704              	.LCFI311:
 4705              		.cfi_def_cfa_offset 24
 4706 0004 00AF     		add	r7, sp, #0
 4707              	.LCFI312:
 4708              		.cfi_def_cfa_register 7
 4709 0006 7860     		str	r0, [r7, #4]
 4710 0008 3960     		str	r1, [r7]
1749:Core/Src/lis2dw12_reg.c ****   int32_t ret;
1750:Core/Src/lis2dw12_reg.c **** 
1751:Core/Src/lis2dw12_reg.c ****   ret = lis2dw12_read_reg(ctx, LIS2DW12_CTRL4_INT1_PAD_CTRL,
 4711              		.loc 1 1751 9
 4712 000a 0123     		movs	r3, #1
 4713 000c 3A68     		ldr	r2, [r7]
 4714 000e 2321     		movs	r1, #35
 4715 0010 7868     		ldr	r0, [r7, #4]
 4716 0012 FFF7FEFF 		bl	lis2dw12_read_reg
 4717 0016 F860     		str	r0, [r7, #12]
1752:Core/Src/lis2dw12_reg.c ****                           (uint8_t *) val, 1);
1753:Core/Src/lis2dw12_reg.c **** 
1754:Core/Src/lis2dw12_reg.c ****   return ret;
 4718              		.loc 1 1754 10
 4719 0018 FB68     		ldr	r3, [r7, #12]
1755:Core/Src/lis2dw12_reg.c **** }
 4720              		.loc 1 1755 1
 4721 001a 1846     		mov	r0, r3
 4722 001c 1037     		adds	r7, r7, #16
 4723              	.LCFI313:
 4724              		.cfi_def_cfa_offset 8
 4725 001e BD46     		mov	sp, r7
 4726              	.LCFI314:
 4727              		.cfi_def_cfa_register 13
 4728              		@ sp needed
 4729 0020 80BD     		pop	{r7, pc}
 4730              		.cfi_endproc
 4731              	.LFE62:
 4733              		.section	.text.lis2dw12_pin_int2_route_set,"ax",%progbits
 4734              		.align	1
 4735              		.global	lis2dw12_pin_int2_route_set
 4736              		.syntax unified
 4737              		.thumb
 4738              		.thumb_func
 4740              	lis2dw12_pin_int2_route_set:
 4741              	.LFB63:
1756:Core/Src/lis2dw12_reg.c **** 
1757:Core/Src/lis2dw12_reg.c **** /**
1758:Core/Src/lis2dw12_reg.c ****   * @brief   Select the signal that need to route on int2 pad.[set]
1759:Core/Src/lis2dw12_reg.c ****   *
1760:Core/Src/lis2dw12_reg.c ****   * @param  ctx      read / write interface definitions
1761:Core/Src/lis2dw12_reg.c ****   * @param  val      register CTRL5_INT2_PAD_CTRL.
ARM GAS  C:\Users\vct344\AppData\Local\Temp\ccePc7Ac.s 			page 113


1762:Core/Src/lis2dw12_reg.c ****   * @retval          interface status (MANDATORY: return 0 -> no Error)
1763:Core/Src/lis2dw12_reg.c ****   *
1764:Core/Src/lis2dw12_reg.c ****   */
1765:Core/Src/lis2dw12_reg.c **** int32_t lis2dw12_pin_int2_route_set(const stmdev_ctx_t *ctx,
1766:Core/Src/lis2dw12_reg.c ****                                     lis2dw12_ctrl5_int2_pad_ctrl_t *val)
1767:Core/Src/lis2dw12_reg.c **** {
 4742              		.loc 1 1767 1
 4743              		.cfi_startproc
 4744              		@ args = 0, pretend = 0, frame = 24
 4745              		@ frame_needed = 1, uses_anonymous_args = 0
 4746 0000 80B5     		push	{r7, lr}
 4747              	.LCFI315:
 4748              		.cfi_def_cfa_offset 8
 4749              		.cfi_offset 7, -8
 4750              		.cfi_offset 14, -4
 4751 0002 86B0     		sub	sp, sp, #24
 4752              	.LCFI316:
 4753              		.cfi_def_cfa_offset 32
 4754 0004 00AF     		add	r7, sp, #0
 4755              	.LCFI317:
 4756              		.cfi_def_cfa_register 7
 4757 0006 7860     		str	r0, [r7, #4]
 4758 0008 3960     		str	r1, [r7]
1768:Core/Src/lis2dw12_reg.c ****   lis2dw12_ctrl4_int1_pad_ctrl_t ctrl4_int1_pad_ctrl;
1769:Core/Src/lis2dw12_reg.c ****   lis2dw12_ctrl_reg7_t reg;
1770:Core/Src/lis2dw12_reg.c ****   int32_t ret;
1771:Core/Src/lis2dw12_reg.c **** 
1772:Core/Src/lis2dw12_reg.c ****   ret = lis2dw12_read_reg(ctx, LIS2DW12_CTRL4_INT1_PAD_CTRL,
 4759              		.loc 1 1772 9
 4760 000a 07F11002 		add	r2, r7, #16
 4761 000e 0123     		movs	r3, #1
 4762 0010 2321     		movs	r1, #35
 4763 0012 7868     		ldr	r0, [r7, #4]
 4764 0014 FFF7FEFF 		bl	lis2dw12_read_reg
 4765 0018 7861     		str	r0, [r7, #20]
1773:Core/Src/lis2dw12_reg.c ****                           (uint8_t *) &ctrl4_int1_pad_ctrl, 1);
1774:Core/Src/lis2dw12_reg.c **** 
1775:Core/Src/lis2dw12_reg.c ****   if (ret == 0)
 4766              		.loc 1 1775 6
 4767 001a 7B69     		ldr	r3, [r7, #20]
 4768 001c 002B     		cmp	r3, #0
 4769 001e 07D1     		bne	.L278
1776:Core/Src/lis2dw12_reg.c ****   {
1777:Core/Src/lis2dw12_reg.c ****     ret = lis2dw12_read_reg(ctx, LIS2DW12_CTRL_REG7, (uint8_t *) &reg, 1);
 4770              		.loc 1 1777 11
 4771 0020 07F10C02 		add	r2, r7, #12
 4772 0024 0123     		movs	r3, #1
 4773 0026 3F21     		movs	r1, #63
 4774 0028 7868     		ldr	r0, [r7, #4]
 4775 002a FFF7FEFF 		bl	lis2dw12_read_reg
 4776 002e 7861     		str	r0, [r7, #20]
 4777              	.L278:
1778:Core/Src/lis2dw12_reg.c ****   }
1779:Core/Src/lis2dw12_reg.c **** 
1780:Core/Src/lis2dw12_reg.c ****   if (ret == 0)
 4778              		.loc 1 1780 6
 4779 0030 7B69     		ldr	r3, [r7, #20]
ARM GAS  C:\Users\vct344\AppData\Local\Temp\ccePc7Ac.s 			page 114


 4780 0032 002B     		cmp	r3, #0
 4781 0034 3BD1     		bne	.L279
1781:Core/Src/lis2dw12_reg.c ****   {
1782:Core/Src/lis2dw12_reg.c ****     if ((ctrl4_int1_pad_ctrl.int1_tap |
 4782              		.loc 1 1782 29
 4783 0036 3B7C     		ldrb	r3, [r7, #16]
 4784 0038 C3F3C003 		ubfx	r3, r3, #3, #1
 4785 003c DAB2     		uxtb	r2, r3
1783:Core/Src/lis2dw12_reg.c ****          ctrl4_int1_pad_ctrl.int1_ff |
 4786              		.loc 1 1783 29
 4787 003e 3B7C     		ldrb	r3, [r7, #16]
 4788 0040 C3F30013 		ubfx	r3, r3, #4, #1
 4789 0044 DBB2     		uxtb	r3, r3
1782:Core/Src/lis2dw12_reg.c ****          ctrl4_int1_pad_ctrl.int1_ff |
 4790              		.loc 1 1782 39
 4791 0046 1343     		orrs	r3, r3, r2
 4792 0048 DAB2     		uxtb	r2, r3
1784:Core/Src/lis2dw12_reg.c ****          ctrl4_int1_pad_ctrl.int1_wu |
 4793              		.loc 1 1784 29
 4794 004a 3B7C     		ldrb	r3, [r7, #16]
 4795 004c C3F34013 		ubfx	r3, r3, #5, #1
 4796 0050 DBB2     		uxtb	r3, r3
1783:Core/Src/lis2dw12_reg.c ****          ctrl4_int1_pad_ctrl.int1_ff |
 4797              		.loc 1 1783 38
 4798 0052 1343     		orrs	r3, r3, r2
 4799 0054 DAB2     		uxtb	r2, r3
1785:Core/Src/lis2dw12_reg.c ****          ctrl4_int1_pad_ctrl.int1_single_tap |
 4800              		.loc 1 1785 29
 4801 0056 3B7C     		ldrb	r3, [r7, #16]
 4802 0058 C3F38013 		ubfx	r3, r3, #6, #1
 4803 005c DBB2     		uxtb	r3, r3
1784:Core/Src/lis2dw12_reg.c ****          ctrl4_int1_pad_ctrl.int1_wu |
 4804              		.loc 1 1784 38
 4805 005e 1343     		orrs	r3, r3, r2
 4806 0060 DAB2     		uxtb	r2, r3
1786:Core/Src/lis2dw12_reg.c ****          ctrl4_int1_pad_ctrl.int1_6d |
 4807              		.loc 1 1786 29
 4808 0062 3B7C     		ldrb	r3, [r7, #16]
 4809 0064 C3F3C013 		ubfx	r3, r3, #7, #1
 4810 0068 DBB2     		uxtb	r3, r3
1785:Core/Src/lis2dw12_reg.c ****          ctrl4_int1_pad_ctrl.int1_single_tap |
 4811              		.loc 1 1785 46
 4812 006a 1343     		orrs	r3, r3, r2
 4813 006c DAB2     		uxtb	r2, r3
1787:Core/Src/lis2dw12_reg.c ****          val->int2_sleep_state | val->int2_sleep_chg) != PROPERTY_DISABLE)
 4814              		.loc 1 1787 13
 4815 006e 3B68     		ldr	r3, [r7]
 4816 0070 1B78     		ldrb	r3, [r3]
 4817 0072 C3F3C013 		ubfx	r3, r3, #7, #1
 4818 0076 DBB2     		uxtb	r3, r3
1786:Core/Src/lis2dw12_reg.c ****          ctrl4_int1_pad_ctrl.int1_6d |
 4819              		.loc 1 1786 38
 4820 0078 1343     		orrs	r3, r3, r2
 4821 007a DAB2     		uxtb	r2, r3
 4822              		.loc 1 1787 37
 4823 007c 3B68     		ldr	r3, [r7]
 4824 007e 1B78     		ldrb	r3, [r3]
ARM GAS  C:\Users\vct344\AppData\Local\Temp\ccePc7Ac.s 			page 115


 4825 0080 C3F38013 		ubfx	r3, r3, #6, #1
 4826 0084 DBB2     		uxtb	r3, r3
 4827              		.loc 1 1787 32
 4828 0086 1343     		orrs	r3, r3, r2
 4829 0088 DBB2     		uxtb	r3, r3
1782:Core/Src/lis2dw12_reg.c ****          ctrl4_int1_pad_ctrl.int1_ff |
 4830              		.loc 1 1782 8
 4831 008a 002B     		cmp	r3, #0
 4832 008c 04D0     		beq	.L280
1788:Core/Src/lis2dw12_reg.c ****     {
1789:Core/Src/lis2dw12_reg.c ****       reg.interrupts_enable = PROPERTY_ENABLE;
 4833              		.loc 1 1789 29
 4834 008e 3B7B     		ldrb	r3, [r7, #12]
 4835 0090 43F02003 		orr	r3, r3, #32
 4836 0094 3B73     		strb	r3, [r7, #12]
 4837 0096 03E0     		b	.L281
 4838              	.L280:
1790:Core/Src/lis2dw12_reg.c ****     }
1791:Core/Src/lis2dw12_reg.c **** 
1792:Core/Src/lis2dw12_reg.c ****     else
1793:Core/Src/lis2dw12_reg.c ****     {
1794:Core/Src/lis2dw12_reg.c ****       reg.interrupts_enable = PROPERTY_DISABLE;
 4839              		.loc 1 1794 29
 4840 0098 3B7B     		ldrb	r3, [r7, #12]
 4841 009a 6FF34513 		bfc	r3, #5, #1
 4842 009e 3B73     		strb	r3, [r7, #12]
 4843              	.L281:
1795:Core/Src/lis2dw12_reg.c ****     }
1796:Core/Src/lis2dw12_reg.c **** 
1797:Core/Src/lis2dw12_reg.c ****     ret = lis2dw12_write_reg(ctx, LIS2DW12_CTRL5_INT2_PAD_CTRL,
 4844              		.loc 1 1797 11
 4845 00a0 0123     		movs	r3, #1
 4846 00a2 3A68     		ldr	r2, [r7]
 4847 00a4 2421     		movs	r1, #36
 4848 00a6 7868     		ldr	r0, [r7, #4]
 4849 00a8 FFF7FEFF 		bl	lis2dw12_write_reg
 4850 00ac 7861     		str	r0, [r7, #20]
 4851              	.L279:
1798:Core/Src/lis2dw12_reg.c ****                              (uint8_t *) val, 1);
1799:Core/Src/lis2dw12_reg.c ****   }
1800:Core/Src/lis2dw12_reg.c **** 
1801:Core/Src/lis2dw12_reg.c ****   if (ret == 0)
 4852              		.loc 1 1801 6
 4853 00ae 7B69     		ldr	r3, [r7, #20]
 4854 00b0 002B     		cmp	r3, #0
 4855 00b2 07D1     		bne	.L282
1802:Core/Src/lis2dw12_reg.c ****   {
1803:Core/Src/lis2dw12_reg.c ****     ret = lis2dw12_write_reg(ctx, LIS2DW12_CTRL_REG7, (uint8_t *) &reg, 1);
 4856              		.loc 1 1803 11
 4857 00b4 07F10C02 		add	r2, r7, #12
 4858 00b8 0123     		movs	r3, #1
 4859 00ba 3F21     		movs	r1, #63
 4860 00bc 7868     		ldr	r0, [r7, #4]
 4861 00be FFF7FEFF 		bl	lis2dw12_write_reg
 4862 00c2 7861     		str	r0, [r7, #20]
 4863              	.L282:
1804:Core/Src/lis2dw12_reg.c ****   }
ARM GAS  C:\Users\vct344\AppData\Local\Temp\ccePc7Ac.s 			page 116


1805:Core/Src/lis2dw12_reg.c **** 
1806:Core/Src/lis2dw12_reg.c ****   return ret;
 4864              		.loc 1 1806 10
 4865 00c4 7B69     		ldr	r3, [r7, #20]
1807:Core/Src/lis2dw12_reg.c **** }
 4866              		.loc 1 1807 1
 4867 00c6 1846     		mov	r0, r3
 4868 00c8 1837     		adds	r7, r7, #24
 4869              	.LCFI318:
 4870              		.cfi_def_cfa_offset 8
 4871 00ca BD46     		mov	sp, r7
 4872              	.LCFI319:
 4873              		.cfi_def_cfa_register 13
 4874              		@ sp needed
 4875 00cc 80BD     		pop	{r7, pc}
 4876              		.cfi_endproc
 4877              	.LFE63:
 4879              		.section	.text.lis2dw12_pin_int2_route_get,"ax",%progbits
 4880              		.align	1
 4881              		.global	lis2dw12_pin_int2_route_get
 4882              		.syntax unified
 4883              		.thumb
 4884              		.thumb_func
 4886              	lis2dw12_pin_int2_route_get:
 4887              	.LFB64:
1808:Core/Src/lis2dw12_reg.c **** 
1809:Core/Src/lis2dw12_reg.c **** /**
1810:Core/Src/lis2dw12_reg.c ****   * @brief  Select the signal that need to route on int2 pad.[get]
1811:Core/Src/lis2dw12_reg.c ****   *
1812:Core/Src/lis2dw12_reg.c ****   * @param  ctx      read / write interface definitions
1813:Core/Src/lis2dw12_reg.c ****   * @param  val      register CTRL5_INT2_PAD_CTRL
1814:Core/Src/lis2dw12_reg.c ****   * @retval          interface status (MANDATORY: return 0 -> no Error)
1815:Core/Src/lis2dw12_reg.c ****   *
1816:Core/Src/lis2dw12_reg.c ****   */
1817:Core/Src/lis2dw12_reg.c **** int32_t lis2dw12_pin_int2_route_get(const stmdev_ctx_t *ctx,
1818:Core/Src/lis2dw12_reg.c ****                                     lis2dw12_ctrl5_int2_pad_ctrl_t *val)
1819:Core/Src/lis2dw12_reg.c **** {
 4888              		.loc 1 1819 1
 4889              		.cfi_startproc
 4890              		@ args = 0, pretend = 0, frame = 16
 4891              		@ frame_needed = 1, uses_anonymous_args = 0
 4892 0000 80B5     		push	{r7, lr}
 4893              	.LCFI320:
 4894              		.cfi_def_cfa_offset 8
 4895              		.cfi_offset 7, -8
 4896              		.cfi_offset 14, -4
 4897 0002 84B0     		sub	sp, sp, #16
 4898              	.LCFI321:
 4899              		.cfi_def_cfa_offset 24
 4900 0004 00AF     		add	r7, sp, #0
 4901              	.LCFI322:
 4902              		.cfi_def_cfa_register 7
 4903 0006 7860     		str	r0, [r7, #4]
 4904 0008 3960     		str	r1, [r7]
1820:Core/Src/lis2dw12_reg.c ****   int32_t ret;
1821:Core/Src/lis2dw12_reg.c **** 
1822:Core/Src/lis2dw12_reg.c ****   ret = lis2dw12_read_reg(ctx, LIS2DW12_CTRL5_INT2_PAD_CTRL,
ARM GAS  C:\Users\vct344\AppData\Local\Temp\ccePc7Ac.s 			page 117


 4905              		.loc 1 1822 9
 4906 000a 0123     		movs	r3, #1
 4907 000c 3A68     		ldr	r2, [r7]
 4908 000e 2421     		movs	r1, #36
 4909 0010 7868     		ldr	r0, [r7, #4]
 4910 0012 FFF7FEFF 		bl	lis2dw12_read_reg
 4911 0016 F860     		str	r0, [r7, #12]
1823:Core/Src/lis2dw12_reg.c ****                           (uint8_t *) val, 1);
1824:Core/Src/lis2dw12_reg.c **** 
1825:Core/Src/lis2dw12_reg.c ****   return ret;
 4912              		.loc 1 1825 10
 4913 0018 FB68     		ldr	r3, [r7, #12]
1826:Core/Src/lis2dw12_reg.c **** }
 4914              		.loc 1 1826 1
 4915 001a 1846     		mov	r0, r3
 4916 001c 1037     		adds	r7, r7, #16
 4917              	.LCFI323:
 4918              		.cfi_def_cfa_offset 8
 4919 001e BD46     		mov	sp, r7
 4920              	.LCFI324:
 4921              		.cfi_def_cfa_register 13
 4922              		@ sp needed
 4923 0020 80BD     		pop	{r7, pc}
 4924              		.cfi_endproc
 4925              	.LFE64:
 4927              		.section	.text.lis2dw12_all_on_int1_set,"ax",%progbits
 4928              		.align	1
 4929              		.global	lis2dw12_all_on_int1_set
 4930              		.syntax unified
 4931              		.thumb
 4932              		.thumb_func
 4934              	lis2dw12_all_on_int1_set:
 4935              	.LFB65:
1827:Core/Src/lis2dw12_reg.c **** /**
1828:Core/Src/lis2dw12_reg.c ****   * @brief All interrupt signals become available on INT1 pin.[set]
1829:Core/Src/lis2dw12_reg.c ****   *
1830:Core/Src/lis2dw12_reg.c ****   * @param  ctx      read / write interface definitions
1831:Core/Src/lis2dw12_reg.c ****   * @param  val      change the values of int2_on_int1 in reg CTRL_REG7
1832:Core/Src/lis2dw12_reg.c ****   * @retval          interface status (MANDATORY: return 0 -> no Error)
1833:Core/Src/lis2dw12_reg.c ****   *
1834:Core/Src/lis2dw12_reg.c ****   */
1835:Core/Src/lis2dw12_reg.c **** int32_t lis2dw12_all_on_int1_set(const stmdev_ctx_t *ctx, uint8_t val)
1836:Core/Src/lis2dw12_reg.c **** {
 4936              		.loc 1 1836 1
 4937              		.cfi_startproc
 4938              		@ args = 0, pretend = 0, frame = 16
 4939              		@ frame_needed = 1, uses_anonymous_args = 0
 4940 0000 80B5     		push	{r7, lr}
 4941              	.LCFI325:
 4942              		.cfi_def_cfa_offset 8
 4943              		.cfi_offset 7, -8
 4944              		.cfi_offset 14, -4
 4945 0002 84B0     		sub	sp, sp, #16
 4946              	.LCFI326:
 4947              		.cfi_def_cfa_offset 24
 4948 0004 00AF     		add	r7, sp, #0
 4949              	.LCFI327:
ARM GAS  C:\Users\vct344\AppData\Local\Temp\ccePc7Ac.s 			page 118


 4950              		.cfi_def_cfa_register 7
 4951 0006 7860     		str	r0, [r7, #4]
 4952 0008 0B46     		mov	r3, r1
 4953 000a FB70     		strb	r3, [r7, #3]
1837:Core/Src/lis2dw12_reg.c ****   lis2dw12_ctrl_reg7_t reg;
1838:Core/Src/lis2dw12_reg.c ****   int32_t ret;
1839:Core/Src/lis2dw12_reg.c **** 
1840:Core/Src/lis2dw12_reg.c ****   ret = lis2dw12_read_reg(ctx, LIS2DW12_CTRL_REG7, (uint8_t *) &reg, 1);
 4954              		.loc 1 1840 9
 4955 000c 07F10802 		add	r2, r7, #8
 4956 0010 0123     		movs	r3, #1
 4957 0012 3F21     		movs	r1, #63
 4958 0014 7868     		ldr	r0, [r7, #4]
 4959 0016 FFF7FEFF 		bl	lis2dw12_read_reg
 4960 001a F860     		str	r0, [r7, #12]
1841:Core/Src/lis2dw12_reg.c **** 
1842:Core/Src/lis2dw12_reg.c ****   if (ret == 0)
 4961              		.loc 1 1842 6
 4962 001c FB68     		ldr	r3, [r7, #12]
 4963 001e 002B     		cmp	r3, #0
 4964 0020 0FD1     		bne	.L287
1843:Core/Src/lis2dw12_reg.c ****   {
1844:Core/Src/lis2dw12_reg.c ****     reg.int2_on_int1 = val;
 4965              		.loc 1 1844 22
 4966 0022 FB78     		ldrb	r3, [r7, #3]
 4967 0024 03F00103 		and	r3, r3, #1
 4968 0028 DAB2     		uxtb	r2, r3
 4969 002a 3B7A     		ldrb	r3, [r7, #8]
 4970 002c 62F38613 		bfi	r3, r2, #6, #1
 4971 0030 3B72     		strb	r3, [r7, #8]
1845:Core/Src/lis2dw12_reg.c ****     ret = lis2dw12_write_reg(ctx, LIS2DW12_CTRL_REG7, (uint8_t *) &reg, 1);
 4972              		.loc 1 1845 11
 4973 0032 07F10802 		add	r2, r7, #8
 4974 0036 0123     		movs	r3, #1
 4975 0038 3F21     		movs	r1, #63
 4976 003a 7868     		ldr	r0, [r7, #4]
 4977 003c FFF7FEFF 		bl	lis2dw12_write_reg
 4978 0040 F860     		str	r0, [r7, #12]
 4979              	.L287:
1846:Core/Src/lis2dw12_reg.c ****   }
1847:Core/Src/lis2dw12_reg.c **** 
1848:Core/Src/lis2dw12_reg.c ****   return ret;
 4980              		.loc 1 1848 10
 4981 0042 FB68     		ldr	r3, [r7, #12]
1849:Core/Src/lis2dw12_reg.c **** }
 4982              		.loc 1 1849 1
 4983 0044 1846     		mov	r0, r3
 4984 0046 1037     		adds	r7, r7, #16
 4985              	.LCFI328:
 4986              		.cfi_def_cfa_offset 8
 4987 0048 BD46     		mov	sp, r7
 4988              	.LCFI329:
 4989              		.cfi_def_cfa_register 13
 4990              		@ sp needed
 4991 004a 80BD     		pop	{r7, pc}
 4992              		.cfi_endproc
 4993              	.LFE65:
ARM GAS  C:\Users\vct344\AppData\Local\Temp\ccePc7Ac.s 			page 119


 4995              		.section	.text.lis2dw12_all_on_int1_get,"ax",%progbits
 4996              		.align	1
 4997              		.global	lis2dw12_all_on_int1_get
 4998              		.syntax unified
 4999              		.thumb
 5000              		.thumb_func
 5002              	lis2dw12_all_on_int1_get:
 5003              	.LFB66:
1850:Core/Src/lis2dw12_reg.c **** 
1851:Core/Src/lis2dw12_reg.c **** /**
1852:Core/Src/lis2dw12_reg.c ****   * @brief  All interrupt signals become available on INT1 pin.[get]
1853:Core/Src/lis2dw12_reg.c ****   *
1854:Core/Src/lis2dw12_reg.c ****   * @param  ctx      read / write interface definitions
1855:Core/Src/lis2dw12_reg.c ****   * @param  val      change the values of int2_on_int1 in reg CTRL_REG7
1856:Core/Src/lis2dw12_reg.c ****   * @retval          interface status (MANDATORY: return 0 -> no Error)
1857:Core/Src/lis2dw12_reg.c ****   *
1858:Core/Src/lis2dw12_reg.c ****   */
1859:Core/Src/lis2dw12_reg.c **** int32_t lis2dw12_all_on_int1_get(const stmdev_ctx_t *ctx, uint8_t *val)
1860:Core/Src/lis2dw12_reg.c **** {
 5004              		.loc 1 1860 1
 5005              		.cfi_startproc
 5006              		@ args = 0, pretend = 0, frame = 16
 5007              		@ frame_needed = 1, uses_anonymous_args = 0
 5008 0000 80B5     		push	{r7, lr}
 5009              	.LCFI330:
 5010              		.cfi_def_cfa_offset 8
 5011              		.cfi_offset 7, -8
 5012              		.cfi_offset 14, -4
 5013 0002 84B0     		sub	sp, sp, #16
 5014              	.LCFI331:
 5015              		.cfi_def_cfa_offset 24
 5016 0004 00AF     		add	r7, sp, #0
 5017              	.LCFI332:
 5018              		.cfi_def_cfa_register 7
 5019 0006 7860     		str	r0, [r7, #4]
 5020 0008 3960     		str	r1, [r7]
1861:Core/Src/lis2dw12_reg.c ****   lis2dw12_ctrl_reg7_t reg;
1862:Core/Src/lis2dw12_reg.c ****   int32_t ret;
1863:Core/Src/lis2dw12_reg.c **** 
1864:Core/Src/lis2dw12_reg.c ****   ret = lis2dw12_read_reg(ctx, LIS2DW12_CTRL_REG7, (uint8_t *) &reg, 1);
 5021              		.loc 1 1864 9
 5022 000a 07F10802 		add	r2, r7, #8
 5023 000e 0123     		movs	r3, #1
 5024 0010 3F21     		movs	r1, #63
 5025 0012 7868     		ldr	r0, [r7, #4]
 5026 0014 FFF7FEFF 		bl	lis2dw12_read_reg
 5027 0018 F860     		str	r0, [r7, #12]
1865:Core/Src/lis2dw12_reg.c ****   *val = reg.int2_on_int1;
 5028              		.loc 1 1865 13
 5029 001a 3B7A     		ldrb	r3, [r7, #8]
 5030 001c C3F38013 		ubfx	r3, r3, #6, #1
 5031 0020 DBB2     		uxtb	r3, r3
 5032 0022 1A46     		mov	r2, r3
 5033              		.loc 1 1865 8
 5034 0024 3B68     		ldr	r3, [r7]
 5035 0026 1A70     		strb	r2, [r3]
1866:Core/Src/lis2dw12_reg.c **** 
ARM GAS  C:\Users\vct344\AppData\Local\Temp\ccePc7Ac.s 			page 120


1867:Core/Src/lis2dw12_reg.c ****   return ret;
 5036              		.loc 1 1867 10
 5037 0028 FB68     		ldr	r3, [r7, #12]
1868:Core/Src/lis2dw12_reg.c **** }
 5038              		.loc 1 1868 1
 5039 002a 1846     		mov	r0, r3
 5040 002c 1037     		adds	r7, r7, #16
 5041              	.LCFI333:
 5042              		.cfi_def_cfa_offset 8
 5043 002e BD46     		mov	sp, r7
 5044              	.LCFI334:
 5045              		.cfi_def_cfa_register 13
 5046              		@ sp needed
 5047 0030 80BD     		pop	{r7, pc}
 5048              		.cfi_endproc
 5049              	.LFE66:
 5051              		.section	.text.lis2dw12_wkup_threshold_set,"ax",%progbits
 5052              		.align	1
 5053              		.global	lis2dw12_wkup_threshold_set
 5054              		.syntax unified
 5055              		.thumb
 5056              		.thumb_func
 5058              	lis2dw12_wkup_threshold_set:
 5059              	.LFB67:
1869:Core/Src/lis2dw12_reg.c **** 
1870:Core/Src/lis2dw12_reg.c **** /**
1871:Core/Src/lis2dw12_reg.c ****   * @}
1872:Core/Src/lis2dw12_reg.c ****   *
1873:Core/Src/lis2dw12_reg.c ****   */
1874:Core/Src/lis2dw12_reg.c **** 
1875:Core/Src/lis2dw12_reg.c **** /**
1876:Core/Src/lis2dw12_reg.c ****   * @defgroup  LIS2DW12_Wake_Up_Event
1877:Core/Src/lis2dw12_reg.c ****   * @brief     This section groups all the functions that manage the Wake
1878:Core/Src/lis2dw12_reg.c ****   *            Up event generation.
1879:Core/Src/lis2dw12_reg.c ****   * @{
1880:Core/Src/lis2dw12_reg.c ****   *
1881:Core/Src/lis2dw12_reg.c ****   */
1882:Core/Src/lis2dw12_reg.c **** 
1883:Core/Src/lis2dw12_reg.c **** /**
1884:Core/Src/lis2dw12_reg.c ****   * @brief  Threshold for wakeup.1 LSB = FS_XL / 64.[set]
1885:Core/Src/lis2dw12_reg.c ****   *
1886:Core/Src/lis2dw12_reg.c ****   * @param  ctx      read / write interface definitions
1887:Core/Src/lis2dw12_reg.c ****   * @param  val      change the values of wk_ths in reg WAKE_UP_THS
1888:Core/Src/lis2dw12_reg.c ****   * @retval          interface status (MANDATORY: return 0 -> no Error)
1889:Core/Src/lis2dw12_reg.c ****   *
1890:Core/Src/lis2dw12_reg.c ****   */
1891:Core/Src/lis2dw12_reg.c **** int32_t lis2dw12_wkup_threshold_set(const stmdev_ctx_t *ctx, uint8_t val)
1892:Core/Src/lis2dw12_reg.c **** {
 5060              		.loc 1 1892 1
 5061              		.cfi_startproc
 5062              		@ args = 0, pretend = 0, frame = 16
 5063              		@ frame_needed = 1, uses_anonymous_args = 0
 5064 0000 80B5     		push	{r7, lr}
 5065              	.LCFI335:
 5066              		.cfi_def_cfa_offset 8
 5067              		.cfi_offset 7, -8
 5068              		.cfi_offset 14, -4
ARM GAS  C:\Users\vct344\AppData\Local\Temp\ccePc7Ac.s 			page 121


 5069 0002 84B0     		sub	sp, sp, #16
 5070              	.LCFI336:
 5071              		.cfi_def_cfa_offset 24
 5072 0004 00AF     		add	r7, sp, #0
 5073              	.LCFI337:
 5074              		.cfi_def_cfa_register 7
 5075 0006 7860     		str	r0, [r7, #4]
 5076 0008 0B46     		mov	r3, r1
 5077 000a FB70     		strb	r3, [r7, #3]
1893:Core/Src/lis2dw12_reg.c ****   lis2dw12_wake_up_ths_t reg;
1894:Core/Src/lis2dw12_reg.c ****   int32_t ret;
1895:Core/Src/lis2dw12_reg.c **** 
1896:Core/Src/lis2dw12_reg.c ****   ret = lis2dw12_read_reg(ctx, LIS2DW12_WAKE_UP_THS, (uint8_t *) &reg, 1);
 5078              		.loc 1 1896 9
 5079 000c 07F10802 		add	r2, r7, #8
 5080 0010 0123     		movs	r3, #1
 5081 0012 3421     		movs	r1, #52
 5082 0014 7868     		ldr	r0, [r7, #4]
 5083 0016 FFF7FEFF 		bl	lis2dw12_read_reg
 5084 001a F860     		str	r0, [r7, #12]
1897:Core/Src/lis2dw12_reg.c **** 
1898:Core/Src/lis2dw12_reg.c ****   if (ret == 0)
 5085              		.loc 1 1898 6
 5086 001c FB68     		ldr	r3, [r7, #12]
 5087 001e 002B     		cmp	r3, #0
 5088 0020 0FD1     		bne	.L292
1899:Core/Src/lis2dw12_reg.c ****   {
1900:Core/Src/lis2dw12_reg.c ****     reg.wk_ths = val;
 5089              		.loc 1 1900 16
 5090 0022 FB78     		ldrb	r3, [r7, #3]
 5091 0024 03F03F03 		and	r3, r3, #63
 5092 0028 DAB2     		uxtb	r2, r3
 5093 002a 3B7A     		ldrb	r3, [r7, #8]
 5094 002c 62F30503 		bfi	r3, r2, #0, #6
 5095 0030 3B72     		strb	r3, [r7, #8]
1901:Core/Src/lis2dw12_reg.c ****     ret = lis2dw12_write_reg(ctx, LIS2DW12_WAKE_UP_THS, (uint8_t *) &reg, 1);
 5096              		.loc 1 1901 11
 5097 0032 07F10802 		add	r2, r7, #8
 5098 0036 0123     		movs	r3, #1
 5099 0038 3421     		movs	r1, #52
 5100 003a 7868     		ldr	r0, [r7, #4]
 5101 003c FFF7FEFF 		bl	lis2dw12_write_reg
 5102 0040 F860     		str	r0, [r7, #12]
 5103              	.L292:
1902:Core/Src/lis2dw12_reg.c ****   }
1903:Core/Src/lis2dw12_reg.c **** 
1904:Core/Src/lis2dw12_reg.c ****   return ret;
 5104              		.loc 1 1904 10
 5105 0042 FB68     		ldr	r3, [r7, #12]
1905:Core/Src/lis2dw12_reg.c **** }
 5106              		.loc 1 1905 1
 5107 0044 1846     		mov	r0, r3
 5108 0046 1037     		adds	r7, r7, #16
 5109              	.LCFI338:
 5110              		.cfi_def_cfa_offset 8
 5111 0048 BD46     		mov	sp, r7
 5112              	.LCFI339:
ARM GAS  C:\Users\vct344\AppData\Local\Temp\ccePc7Ac.s 			page 122


 5113              		.cfi_def_cfa_register 13
 5114              		@ sp needed
 5115 004a 80BD     		pop	{r7, pc}
 5116              		.cfi_endproc
 5117              	.LFE67:
 5119              		.section	.text.lis2dw12_wkup_threshold_get,"ax",%progbits
 5120              		.align	1
 5121              		.global	lis2dw12_wkup_threshold_get
 5122              		.syntax unified
 5123              		.thumb
 5124              		.thumb_func
 5126              	lis2dw12_wkup_threshold_get:
 5127              	.LFB68:
1906:Core/Src/lis2dw12_reg.c **** 
1907:Core/Src/lis2dw12_reg.c **** /**
1908:Core/Src/lis2dw12_reg.c ****   * @brief  Threshold for wakeup.1 LSB = FS_XL / 64.[get]
1909:Core/Src/lis2dw12_reg.c ****   *
1910:Core/Src/lis2dw12_reg.c ****   * @param  ctx      read / write interface definitions
1911:Core/Src/lis2dw12_reg.c ****   * @param  val      change the values of wk_ths in reg WAKE_UP_THS
1912:Core/Src/lis2dw12_reg.c ****   * @retval          interface status (MANDATORY: return 0 -> no Error)
1913:Core/Src/lis2dw12_reg.c ****   *
1914:Core/Src/lis2dw12_reg.c ****   */
1915:Core/Src/lis2dw12_reg.c **** int32_t lis2dw12_wkup_threshold_get(const stmdev_ctx_t *ctx, uint8_t *val)
1916:Core/Src/lis2dw12_reg.c **** {
 5128              		.loc 1 1916 1
 5129              		.cfi_startproc
 5130              		@ args = 0, pretend = 0, frame = 16
 5131              		@ frame_needed = 1, uses_anonymous_args = 0
 5132 0000 80B5     		push	{r7, lr}
 5133              	.LCFI340:
 5134              		.cfi_def_cfa_offset 8
 5135              		.cfi_offset 7, -8
 5136              		.cfi_offset 14, -4
 5137 0002 84B0     		sub	sp, sp, #16
 5138              	.LCFI341:
 5139              		.cfi_def_cfa_offset 24
 5140 0004 00AF     		add	r7, sp, #0
 5141              	.LCFI342:
 5142              		.cfi_def_cfa_register 7
 5143 0006 7860     		str	r0, [r7, #4]
 5144 0008 3960     		str	r1, [r7]
1917:Core/Src/lis2dw12_reg.c ****   lis2dw12_wake_up_ths_t reg;
1918:Core/Src/lis2dw12_reg.c ****   int32_t ret;
1919:Core/Src/lis2dw12_reg.c **** 
1920:Core/Src/lis2dw12_reg.c ****   ret = lis2dw12_read_reg(ctx, LIS2DW12_WAKE_UP_THS, (uint8_t *) &reg, 1);
 5145              		.loc 1 1920 9
 5146 000a 07F10802 		add	r2, r7, #8
 5147 000e 0123     		movs	r3, #1
 5148 0010 3421     		movs	r1, #52
 5149 0012 7868     		ldr	r0, [r7, #4]
 5150 0014 FFF7FEFF 		bl	lis2dw12_read_reg
 5151 0018 F860     		str	r0, [r7, #12]
1921:Core/Src/lis2dw12_reg.c ****   *val = reg.wk_ths;
 5152              		.loc 1 1921 13
 5153 001a 3B7A     		ldrb	r3, [r7, #8]
 5154 001c C3F30503 		ubfx	r3, r3, #0, #6
 5155 0020 DBB2     		uxtb	r3, r3
ARM GAS  C:\Users\vct344\AppData\Local\Temp\ccePc7Ac.s 			page 123


 5156 0022 1A46     		mov	r2, r3
 5157              		.loc 1 1921 8
 5158 0024 3B68     		ldr	r3, [r7]
 5159 0026 1A70     		strb	r2, [r3]
1922:Core/Src/lis2dw12_reg.c **** 
1923:Core/Src/lis2dw12_reg.c ****   return ret;
 5160              		.loc 1 1923 10
 5161 0028 FB68     		ldr	r3, [r7, #12]
1924:Core/Src/lis2dw12_reg.c **** }
 5162              		.loc 1 1924 1
 5163 002a 1846     		mov	r0, r3
 5164 002c 1037     		adds	r7, r7, #16
 5165              	.LCFI343:
 5166              		.cfi_def_cfa_offset 8
 5167 002e BD46     		mov	sp, r7
 5168              	.LCFI344:
 5169              		.cfi_def_cfa_register 13
 5170              		@ sp needed
 5171 0030 80BD     		pop	{r7, pc}
 5172              		.cfi_endproc
 5173              	.LFE68:
 5175              		.section	.text.lis2dw12_wkup_dur_set,"ax",%progbits
 5176              		.align	1
 5177              		.global	lis2dw12_wkup_dur_set
 5178              		.syntax unified
 5179              		.thumb
 5180              		.thumb_func
 5182              	lis2dw12_wkup_dur_set:
 5183              	.LFB69:
1925:Core/Src/lis2dw12_reg.c **** 
1926:Core/Src/lis2dw12_reg.c **** /**
1927:Core/Src/lis2dw12_reg.c ****   * @brief  Wake up duration event.1LSb = 1 / ODR.[set]
1928:Core/Src/lis2dw12_reg.c ****   *
1929:Core/Src/lis2dw12_reg.c ****   * @param  ctx      read / write interface definitions
1930:Core/Src/lis2dw12_reg.c ****   * @param  val      change the values of wake_dur in reg WAKE_UP_DUR
1931:Core/Src/lis2dw12_reg.c ****   * @retval          interface status (MANDATORY: return 0 -> no Error)
1932:Core/Src/lis2dw12_reg.c ****   *
1933:Core/Src/lis2dw12_reg.c ****   */
1934:Core/Src/lis2dw12_reg.c **** int32_t lis2dw12_wkup_dur_set(const stmdev_ctx_t *ctx, uint8_t val)
1935:Core/Src/lis2dw12_reg.c **** {
 5184              		.loc 1 1935 1
 5185              		.cfi_startproc
 5186              		@ args = 0, pretend = 0, frame = 16
 5187              		@ frame_needed = 1, uses_anonymous_args = 0
 5188 0000 80B5     		push	{r7, lr}
 5189              	.LCFI345:
 5190              		.cfi_def_cfa_offset 8
 5191              		.cfi_offset 7, -8
 5192              		.cfi_offset 14, -4
 5193 0002 84B0     		sub	sp, sp, #16
 5194              	.LCFI346:
 5195              		.cfi_def_cfa_offset 24
 5196 0004 00AF     		add	r7, sp, #0
 5197              	.LCFI347:
 5198              		.cfi_def_cfa_register 7
 5199 0006 7860     		str	r0, [r7, #4]
 5200 0008 0B46     		mov	r3, r1
ARM GAS  C:\Users\vct344\AppData\Local\Temp\ccePc7Ac.s 			page 124


 5201 000a FB70     		strb	r3, [r7, #3]
1936:Core/Src/lis2dw12_reg.c ****   lis2dw12_wake_up_dur_t reg;
1937:Core/Src/lis2dw12_reg.c ****   int32_t ret;
1938:Core/Src/lis2dw12_reg.c **** 
1939:Core/Src/lis2dw12_reg.c ****   ret = lis2dw12_read_reg(ctx, LIS2DW12_WAKE_UP_DUR, (uint8_t *) &reg, 1);
 5202              		.loc 1 1939 9
 5203 000c 07F10802 		add	r2, r7, #8
 5204 0010 0123     		movs	r3, #1
 5205 0012 3521     		movs	r1, #53
 5206 0014 7868     		ldr	r0, [r7, #4]
 5207 0016 FFF7FEFF 		bl	lis2dw12_read_reg
 5208 001a F860     		str	r0, [r7, #12]
1940:Core/Src/lis2dw12_reg.c **** 
1941:Core/Src/lis2dw12_reg.c ****   if (ret == 0)
 5209              		.loc 1 1941 6
 5210 001c FB68     		ldr	r3, [r7, #12]
 5211 001e 002B     		cmp	r3, #0
 5212 0020 0FD1     		bne	.L297
1942:Core/Src/lis2dw12_reg.c ****   {
1943:Core/Src/lis2dw12_reg.c ****     reg.wake_dur = val;
 5213              		.loc 1 1943 18
 5214 0022 FB78     		ldrb	r3, [r7, #3]
 5215 0024 03F00303 		and	r3, r3, #3
 5216 0028 DAB2     		uxtb	r2, r3
 5217 002a 3B7A     		ldrb	r3, [r7, #8]
 5218 002c 62F34613 		bfi	r3, r2, #5, #2
 5219 0030 3B72     		strb	r3, [r7, #8]
1944:Core/Src/lis2dw12_reg.c ****     ret = lis2dw12_write_reg(ctx, LIS2DW12_WAKE_UP_DUR, (uint8_t *) &reg, 1);
 5220              		.loc 1 1944 11
 5221 0032 07F10802 		add	r2, r7, #8
 5222 0036 0123     		movs	r3, #1
 5223 0038 3521     		movs	r1, #53
 5224 003a 7868     		ldr	r0, [r7, #4]
 5225 003c FFF7FEFF 		bl	lis2dw12_write_reg
 5226 0040 F860     		str	r0, [r7, #12]
 5227              	.L297:
1945:Core/Src/lis2dw12_reg.c ****   }
1946:Core/Src/lis2dw12_reg.c **** 
1947:Core/Src/lis2dw12_reg.c ****   return ret;
 5228              		.loc 1 1947 10
 5229 0042 FB68     		ldr	r3, [r7, #12]
1948:Core/Src/lis2dw12_reg.c **** }
 5230              		.loc 1 1948 1
 5231 0044 1846     		mov	r0, r3
 5232 0046 1037     		adds	r7, r7, #16
 5233              	.LCFI348:
 5234              		.cfi_def_cfa_offset 8
 5235 0048 BD46     		mov	sp, r7
 5236              	.LCFI349:
 5237              		.cfi_def_cfa_register 13
 5238              		@ sp needed
 5239 004a 80BD     		pop	{r7, pc}
 5240              		.cfi_endproc
 5241              	.LFE69:
 5243              		.section	.text.lis2dw12_wkup_dur_get,"ax",%progbits
 5244              		.align	1
 5245              		.global	lis2dw12_wkup_dur_get
ARM GAS  C:\Users\vct344\AppData\Local\Temp\ccePc7Ac.s 			page 125


 5246              		.syntax unified
 5247              		.thumb
 5248              		.thumb_func
 5250              	lis2dw12_wkup_dur_get:
 5251              	.LFB70:
1949:Core/Src/lis2dw12_reg.c **** 
1950:Core/Src/lis2dw12_reg.c **** /**
1951:Core/Src/lis2dw12_reg.c ****   * @brief  Wake up duration event.1LSb = 1 / ODR.[get]
1952:Core/Src/lis2dw12_reg.c ****   *
1953:Core/Src/lis2dw12_reg.c ****   * @param  ctx      read / write interface definitions
1954:Core/Src/lis2dw12_reg.c ****   * @param  val      change the values of wake_dur in reg WAKE_UP_DUR
1955:Core/Src/lis2dw12_reg.c ****   * @retval          interface status (MANDATORY: return 0 -> no Error)
1956:Core/Src/lis2dw12_reg.c ****   *
1957:Core/Src/lis2dw12_reg.c ****   */
1958:Core/Src/lis2dw12_reg.c **** int32_t lis2dw12_wkup_dur_get(const stmdev_ctx_t *ctx, uint8_t *val)
1959:Core/Src/lis2dw12_reg.c **** {
 5252              		.loc 1 1959 1
 5253              		.cfi_startproc
 5254              		@ args = 0, pretend = 0, frame = 16
 5255              		@ frame_needed = 1, uses_anonymous_args = 0
 5256 0000 80B5     		push	{r7, lr}
 5257              	.LCFI350:
 5258              		.cfi_def_cfa_offset 8
 5259              		.cfi_offset 7, -8
 5260              		.cfi_offset 14, -4
 5261 0002 84B0     		sub	sp, sp, #16
 5262              	.LCFI351:
 5263              		.cfi_def_cfa_offset 24
 5264 0004 00AF     		add	r7, sp, #0
 5265              	.LCFI352:
 5266              		.cfi_def_cfa_register 7
 5267 0006 7860     		str	r0, [r7, #4]
 5268 0008 3960     		str	r1, [r7]
1960:Core/Src/lis2dw12_reg.c ****   lis2dw12_wake_up_dur_t reg;
1961:Core/Src/lis2dw12_reg.c ****   int32_t ret;
1962:Core/Src/lis2dw12_reg.c **** 
1963:Core/Src/lis2dw12_reg.c ****   ret = lis2dw12_read_reg(ctx, LIS2DW12_WAKE_UP_DUR, (uint8_t *) &reg, 1);
 5269              		.loc 1 1963 9
 5270 000a 07F10802 		add	r2, r7, #8
 5271 000e 0123     		movs	r3, #1
 5272 0010 3521     		movs	r1, #53
 5273 0012 7868     		ldr	r0, [r7, #4]
 5274 0014 FFF7FEFF 		bl	lis2dw12_read_reg
 5275 0018 F860     		str	r0, [r7, #12]
1964:Core/Src/lis2dw12_reg.c ****   *val = reg.wake_dur;
 5276              		.loc 1 1964 13
 5277 001a 3B7A     		ldrb	r3, [r7, #8]
 5278 001c C3F34113 		ubfx	r3, r3, #5, #2
 5279 0020 DBB2     		uxtb	r3, r3
 5280 0022 1A46     		mov	r2, r3
 5281              		.loc 1 1964 8
 5282 0024 3B68     		ldr	r3, [r7]
 5283 0026 1A70     		strb	r2, [r3]
1965:Core/Src/lis2dw12_reg.c **** 
1966:Core/Src/lis2dw12_reg.c ****   return ret;
 5284              		.loc 1 1966 10
 5285 0028 FB68     		ldr	r3, [r7, #12]
ARM GAS  C:\Users\vct344\AppData\Local\Temp\ccePc7Ac.s 			page 126


1967:Core/Src/lis2dw12_reg.c **** }
 5286              		.loc 1 1967 1
 5287 002a 1846     		mov	r0, r3
 5288 002c 1037     		adds	r7, r7, #16
 5289              	.LCFI353:
 5290              		.cfi_def_cfa_offset 8
 5291 002e BD46     		mov	sp, r7
 5292              	.LCFI354:
 5293              		.cfi_def_cfa_register 13
 5294              		@ sp needed
 5295 0030 80BD     		pop	{r7, pc}
 5296              		.cfi_endproc
 5297              	.LFE70:
 5299              		.section	.text.lis2dw12_wkup_feed_data_set,"ax",%progbits
 5300              		.align	1
 5301              		.global	lis2dw12_wkup_feed_data_set
 5302              		.syntax unified
 5303              		.thumb
 5304              		.thumb_func
 5306              	lis2dw12_wkup_feed_data_set:
 5307              	.LFB71:
1968:Core/Src/lis2dw12_reg.c **** 
1969:Core/Src/lis2dw12_reg.c **** /**
1970:Core/Src/lis2dw12_reg.c ****   * @brief  Data sent to wake-up interrupt function.[set]
1971:Core/Src/lis2dw12_reg.c ****   *
1972:Core/Src/lis2dw12_reg.c ****   * @param  ctx      read / write interface definitions
1973:Core/Src/lis2dw12_reg.c ****   * @param  val      change the values of usr_off_on_wu in reg CTRL_REG7
1974:Core/Src/lis2dw12_reg.c ****   * @retval          interface status (MANDATORY: return 0 -> no Error)
1975:Core/Src/lis2dw12_reg.c ****   *
1976:Core/Src/lis2dw12_reg.c ****   */
1977:Core/Src/lis2dw12_reg.c **** int32_t lis2dw12_wkup_feed_data_set(const stmdev_ctx_t *ctx,
1978:Core/Src/lis2dw12_reg.c ****                                     lis2dw12_usr_off_on_wu_t val)
1979:Core/Src/lis2dw12_reg.c **** {
 5308              		.loc 1 1979 1
 5309              		.cfi_startproc
 5310              		@ args = 0, pretend = 0, frame = 16
 5311              		@ frame_needed = 1, uses_anonymous_args = 0
 5312 0000 80B5     		push	{r7, lr}
 5313              	.LCFI355:
 5314              		.cfi_def_cfa_offset 8
 5315              		.cfi_offset 7, -8
 5316              		.cfi_offset 14, -4
 5317 0002 84B0     		sub	sp, sp, #16
 5318              	.LCFI356:
 5319              		.cfi_def_cfa_offset 24
 5320 0004 00AF     		add	r7, sp, #0
 5321              	.LCFI357:
 5322              		.cfi_def_cfa_register 7
 5323 0006 7860     		str	r0, [r7, #4]
 5324 0008 0B46     		mov	r3, r1
 5325 000a FB70     		strb	r3, [r7, #3]
1980:Core/Src/lis2dw12_reg.c ****   lis2dw12_ctrl_reg7_t reg;
1981:Core/Src/lis2dw12_reg.c ****   int32_t ret;
1982:Core/Src/lis2dw12_reg.c **** 
1983:Core/Src/lis2dw12_reg.c ****   ret = lis2dw12_read_reg(ctx, LIS2DW12_CTRL_REG7, (uint8_t *) &reg, 1);
 5326              		.loc 1 1983 9
 5327 000c 07F10802 		add	r2, r7, #8
ARM GAS  C:\Users\vct344\AppData\Local\Temp\ccePc7Ac.s 			page 127


 5328 0010 0123     		movs	r3, #1
 5329 0012 3F21     		movs	r1, #63
 5330 0014 7868     		ldr	r0, [r7, #4]
 5331 0016 FFF7FEFF 		bl	lis2dw12_read_reg
 5332 001a F860     		str	r0, [r7, #12]
1984:Core/Src/lis2dw12_reg.c **** 
1985:Core/Src/lis2dw12_reg.c ****   if (ret == 0)
 5333              		.loc 1 1985 6
 5334 001c FB68     		ldr	r3, [r7, #12]
 5335 001e 002B     		cmp	r3, #0
 5336 0020 0FD1     		bne	.L302
1986:Core/Src/lis2dw12_reg.c ****   {
1987:Core/Src/lis2dw12_reg.c ****     reg.usr_off_on_wu = (uint8_t) val;
 5337              		.loc 1 1987 25
 5338 0022 FB78     		ldrb	r3, [r7, #3]
 5339 0024 03F00103 		and	r3, r3, #1
 5340 0028 DAB2     		uxtb	r2, r3
 5341              		.loc 1 1987 23
 5342 002a 3B7A     		ldrb	r3, [r7, #8]
 5343 002c 62F3C303 		bfi	r3, r2, #3, #1
 5344 0030 3B72     		strb	r3, [r7, #8]
1988:Core/Src/lis2dw12_reg.c ****     ret = lis2dw12_write_reg(ctx, LIS2DW12_CTRL_REG7, (uint8_t *) &reg, 1);
 5345              		.loc 1 1988 11
 5346 0032 07F10802 		add	r2, r7, #8
 5347 0036 0123     		movs	r3, #1
 5348 0038 3F21     		movs	r1, #63
 5349 003a 7868     		ldr	r0, [r7, #4]
 5350 003c FFF7FEFF 		bl	lis2dw12_write_reg
 5351 0040 F860     		str	r0, [r7, #12]
 5352              	.L302:
1989:Core/Src/lis2dw12_reg.c ****   }
1990:Core/Src/lis2dw12_reg.c **** 
1991:Core/Src/lis2dw12_reg.c ****   return ret;
 5353              		.loc 1 1991 10
 5354 0042 FB68     		ldr	r3, [r7, #12]
1992:Core/Src/lis2dw12_reg.c **** }
 5355              		.loc 1 1992 1
 5356 0044 1846     		mov	r0, r3
 5357 0046 1037     		adds	r7, r7, #16
 5358              	.LCFI358:
 5359              		.cfi_def_cfa_offset 8
 5360 0048 BD46     		mov	sp, r7
 5361              	.LCFI359:
 5362              		.cfi_def_cfa_register 13
 5363              		@ sp needed
 5364 004a 80BD     		pop	{r7, pc}
 5365              		.cfi_endproc
 5366              	.LFE71:
 5368              		.section	.text.lis2dw12_wkup_feed_data_get,"ax",%progbits
 5369              		.align	1
 5370              		.global	lis2dw12_wkup_feed_data_get
 5371              		.syntax unified
 5372              		.thumb
 5373              		.thumb_func
 5375              	lis2dw12_wkup_feed_data_get:
 5376              	.LFB72:
1993:Core/Src/lis2dw12_reg.c **** 
ARM GAS  C:\Users\vct344\AppData\Local\Temp\ccePc7Ac.s 			page 128


1994:Core/Src/lis2dw12_reg.c **** /**
1995:Core/Src/lis2dw12_reg.c ****   * @brief  Data sent to wake-up interrupt function.[get]
1996:Core/Src/lis2dw12_reg.c ****   *
1997:Core/Src/lis2dw12_reg.c ****   * @param  ctx      read / write interface definitions
1998:Core/Src/lis2dw12_reg.c ****   * @param  val      Get the values of usr_off_on_wu in reg CTRL_REG7
1999:Core/Src/lis2dw12_reg.c ****   * @retval          interface status (MANDATORY: return 0 -> no Error)
2000:Core/Src/lis2dw12_reg.c ****   *
2001:Core/Src/lis2dw12_reg.c ****   */
2002:Core/Src/lis2dw12_reg.c **** int32_t lis2dw12_wkup_feed_data_get(const stmdev_ctx_t *ctx,
2003:Core/Src/lis2dw12_reg.c ****                                     lis2dw12_usr_off_on_wu_t *val)
2004:Core/Src/lis2dw12_reg.c **** {
 5377              		.loc 1 2004 1
 5378              		.cfi_startproc
 5379              		@ args = 0, pretend = 0, frame = 16
 5380              		@ frame_needed = 1, uses_anonymous_args = 0
 5381 0000 80B5     		push	{r7, lr}
 5382              	.LCFI360:
 5383              		.cfi_def_cfa_offset 8
 5384              		.cfi_offset 7, -8
 5385              		.cfi_offset 14, -4
 5386 0002 84B0     		sub	sp, sp, #16
 5387              	.LCFI361:
 5388              		.cfi_def_cfa_offset 24
 5389 0004 00AF     		add	r7, sp, #0
 5390              	.LCFI362:
 5391              		.cfi_def_cfa_register 7
 5392 0006 7860     		str	r0, [r7, #4]
 5393 0008 3960     		str	r1, [r7]
2005:Core/Src/lis2dw12_reg.c ****   lis2dw12_ctrl_reg7_t reg;
2006:Core/Src/lis2dw12_reg.c ****   int32_t ret;
2007:Core/Src/lis2dw12_reg.c **** 
2008:Core/Src/lis2dw12_reg.c ****   ret = lis2dw12_read_reg(ctx, LIS2DW12_CTRL_REG7, (uint8_t *) &reg, 1);
 5394              		.loc 1 2008 9
 5395 000a 07F10802 		add	r2, r7, #8
 5396 000e 0123     		movs	r3, #1
 5397 0010 3F21     		movs	r1, #63
 5398 0012 7868     		ldr	r0, [r7, #4]
 5399 0014 FFF7FEFF 		bl	lis2dw12_read_reg
 5400 0018 F860     		str	r0, [r7, #12]
2009:Core/Src/lis2dw12_reg.c **** 
2010:Core/Src/lis2dw12_reg.c ****   switch (reg.usr_off_on_wu)
 5401              		.loc 1 2010 14
 5402 001a 3B7A     		ldrb	r3, [r7, #8]
 5403 001c C3F3C003 		ubfx	r3, r3, #3, #1
 5404 0020 DBB2     		uxtb	r3, r3
 5405              		.loc 1 2010 3
 5406 0022 002B     		cmp	r3, #0
 5407 0024 02D0     		beq	.L305
 5408 0026 012B     		cmp	r3, #1
 5409 0028 04D0     		beq	.L306
 5410 002a 07E0     		b	.L310
 5411              	.L305:
2011:Core/Src/lis2dw12_reg.c ****   {
2012:Core/Src/lis2dw12_reg.c ****     case LIS2DW12_HP_FEED:
2013:Core/Src/lis2dw12_reg.c ****       *val = LIS2DW12_HP_FEED;
 5412              		.loc 1 2013 12
 5413 002c 3B68     		ldr	r3, [r7]
ARM GAS  C:\Users\vct344\AppData\Local\Temp\ccePc7Ac.s 			page 129


 5414 002e 0022     		movs	r2, #0
 5415 0030 1A70     		strb	r2, [r3]
2014:Core/Src/lis2dw12_reg.c ****       break;
 5416              		.loc 1 2014 7
 5417 0032 07E0     		b	.L308
 5418              	.L306:
2015:Core/Src/lis2dw12_reg.c **** 
2016:Core/Src/lis2dw12_reg.c ****     case LIS2DW12_USER_OFFSET_FEED:
2017:Core/Src/lis2dw12_reg.c ****       *val = LIS2DW12_USER_OFFSET_FEED;
 5419              		.loc 1 2017 12
 5420 0034 3B68     		ldr	r3, [r7]
 5421 0036 0122     		movs	r2, #1
 5422 0038 1A70     		strb	r2, [r3]
2018:Core/Src/lis2dw12_reg.c ****       break;
 5423              		.loc 1 2018 7
 5424 003a 03E0     		b	.L308
 5425              	.L310:
2019:Core/Src/lis2dw12_reg.c **** 
2020:Core/Src/lis2dw12_reg.c ****     default:
2021:Core/Src/lis2dw12_reg.c ****       *val = LIS2DW12_HP_FEED;
 5426              		.loc 1 2021 12
 5427 003c 3B68     		ldr	r3, [r7]
 5428 003e 0022     		movs	r2, #0
 5429 0040 1A70     		strb	r2, [r3]
2022:Core/Src/lis2dw12_reg.c ****       break;
 5430              		.loc 1 2022 7
 5431 0042 00BF     		nop
 5432              	.L308:
2023:Core/Src/lis2dw12_reg.c ****   }
2024:Core/Src/lis2dw12_reg.c **** 
2025:Core/Src/lis2dw12_reg.c ****   return ret;
 5433              		.loc 1 2025 10
 5434 0044 FB68     		ldr	r3, [r7, #12]
2026:Core/Src/lis2dw12_reg.c **** }
 5435              		.loc 1 2026 1
 5436 0046 1846     		mov	r0, r3
 5437 0048 1037     		adds	r7, r7, #16
 5438              	.LCFI363:
 5439              		.cfi_def_cfa_offset 8
 5440 004a BD46     		mov	sp, r7
 5441              	.LCFI364:
 5442              		.cfi_def_cfa_register 13
 5443              		@ sp needed
 5444 004c 80BD     		pop	{r7, pc}
 5445              		.cfi_endproc
 5446              	.LFE72:
 5448              		.section	.text.lis2dw12_act_mode_set,"ax",%progbits
 5449              		.align	1
 5450              		.global	lis2dw12_act_mode_set
 5451              		.syntax unified
 5452              		.thumb
 5453              		.thumb_func
 5455              	lis2dw12_act_mode_set:
 5456              	.LFB73:
2027:Core/Src/lis2dw12_reg.c **** 
2028:Core/Src/lis2dw12_reg.c **** /**
2029:Core/Src/lis2dw12_reg.c ****   * @}
ARM GAS  C:\Users\vct344\AppData\Local\Temp\ccePc7Ac.s 			page 130


2030:Core/Src/lis2dw12_reg.c ****   *
2031:Core/Src/lis2dw12_reg.c ****   */
2032:Core/Src/lis2dw12_reg.c **** 
2033:Core/Src/lis2dw12_reg.c **** /**
2034:Core/Src/lis2dw12_reg.c ****   * @defgroup   LIS2DW12_Activity/Inactivity_Detection
2035:Core/Src/lis2dw12_reg.c ****   * @brief      This section groups all the functions concerning
2036:Core/Src/lis2dw12_reg.c ****   *             activity/inactivity detection.
2037:Core/Src/lis2dw12_reg.c ****   * @{
2038:Core/Src/lis2dw12_reg.c ****   *
2039:Core/Src/lis2dw12_reg.c ****   */
2040:Core/Src/lis2dw12_reg.c **** 
2041:Core/Src/lis2dw12_reg.c **** /**
2042:Core/Src/lis2dw12_reg.c ****   * @brief  Config activity / inactivity or
2043:Core/Src/lis2dw12_reg.c ****   *         stationary / motion detection.[set]
2044:Core/Src/lis2dw12_reg.c ****   *
2045:Core/Src/lis2dw12_reg.c ****   * @param  ctx      read / write interface definitions
2046:Core/Src/lis2dw12_reg.c ****   * @param  val      change the values of sleep_on / stationary in
2047:Core/Src/lis2dw12_reg.c ****   *                  reg WAKE_UP_THS / WAKE_UP_DUR
2048:Core/Src/lis2dw12_reg.c ****   * @retval          interface status (MANDATORY: return 0 -> no Error)
2049:Core/Src/lis2dw12_reg.c ****   *
2050:Core/Src/lis2dw12_reg.c ****   */
2051:Core/Src/lis2dw12_reg.c **** int32_t lis2dw12_act_mode_set(const stmdev_ctx_t *ctx,
2052:Core/Src/lis2dw12_reg.c ****                               lis2dw12_sleep_on_t val)
2053:Core/Src/lis2dw12_reg.c **** {
 5457              		.loc 1 2053 1
 5458              		.cfi_startproc
 5459              		@ args = 0, pretend = 0, frame = 24
 5460              		@ frame_needed = 1, uses_anonymous_args = 0
 5461 0000 80B5     		push	{r7, lr}
 5462              	.LCFI365:
 5463              		.cfi_def_cfa_offset 8
 5464              		.cfi_offset 7, -8
 5465              		.cfi_offset 14, -4
 5466 0002 86B0     		sub	sp, sp, #24
 5467              	.LCFI366:
 5468              		.cfi_def_cfa_offset 32
 5469 0004 00AF     		add	r7, sp, #0
 5470              	.LCFI367:
 5471              		.cfi_def_cfa_register 7
 5472 0006 7860     		str	r0, [r7, #4]
 5473 0008 0B46     		mov	r3, r1
 5474 000a FB70     		strb	r3, [r7, #3]
2054:Core/Src/lis2dw12_reg.c ****   lis2dw12_wake_up_ths_t wake_up_ths;
2055:Core/Src/lis2dw12_reg.c ****   lis2dw12_wake_up_dur_t wake_up_dur;
2056:Core/Src/lis2dw12_reg.c ****   int32_t ret;
2057:Core/Src/lis2dw12_reg.c **** 
2058:Core/Src/lis2dw12_reg.c ****   ret = lis2dw12_read_reg(ctx, LIS2DW12_WAKE_UP_THS,
 5475              		.loc 1 2058 9
 5476 000c 07F11002 		add	r2, r7, #16
 5477 0010 0123     		movs	r3, #1
 5478 0012 3421     		movs	r1, #52
 5479 0014 7868     		ldr	r0, [r7, #4]
 5480 0016 FFF7FEFF 		bl	lis2dw12_read_reg
 5481 001a 7861     		str	r0, [r7, #20]
2059:Core/Src/lis2dw12_reg.c ****                           (uint8_t *) &wake_up_ths, 1);
2060:Core/Src/lis2dw12_reg.c **** 
2061:Core/Src/lis2dw12_reg.c ****   if (ret == 0)
ARM GAS  C:\Users\vct344\AppData\Local\Temp\ccePc7Ac.s 			page 131


 5482              		.loc 1 2061 6
 5483 001c 7B69     		ldr	r3, [r7, #20]
 5484 001e 002B     		cmp	r3, #0
 5485 0020 07D1     		bne	.L312
2062:Core/Src/lis2dw12_reg.c ****   {
2063:Core/Src/lis2dw12_reg.c ****     ret = lis2dw12_read_reg(ctx, LIS2DW12_WAKE_UP_DUR,
 5486              		.loc 1 2063 11
 5487 0022 07F10C02 		add	r2, r7, #12
 5488 0026 0123     		movs	r3, #1
 5489 0028 3521     		movs	r1, #53
 5490 002a 7868     		ldr	r0, [r7, #4]
 5491 002c FFF7FEFF 		bl	lis2dw12_read_reg
 5492 0030 7861     		str	r0, [r7, #20]
 5493              	.L312:
2064:Core/Src/lis2dw12_reg.c ****                             (uint8_t *) &wake_up_dur, 1);
2065:Core/Src/lis2dw12_reg.c ****   }
2066:Core/Src/lis2dw12_reg.c **** 
2067:Core/Src/lis2dw12_reg.c ****   if (ret == 0)
 5494              		.loc 1 2067 6
 5495 0032 7B69     		ldr	r3, [r7, #20]
 5496 0034 002B     		cmp	r3, #0
 5497 0036 0FD1     		bne	.L313
2068:Core/Src/lis2dw12_reg.c ****   {
2069:Core/Src/lis2dw12_reg.c ****     wake_up_ths.sleep_on = (uint8_t) val & 0x01U;
 5498              		.loc 1 2069 42
 5499 0038 FB78     		ldrb	r3, [r7, #3]
 5500 003a 03F00103 		and	r3, r3, #1
 5501 003e DAB2     		uxtb	r2, r3
 5502              		.loc 1 2069 26
 5503 0040 3B7C     		ldrb	r3, [r7, #16]
 5504 0042 62F38613 		bfi	r3, r2, #6, #1
 5505 0046 3B74     		strb	r3, [r7, #16]
2070:Core/Src/lis2dw12_reg.c ****     ret = lis2dw12_write_reg(ctx, LIS2DW12_WAKE_UP_THS,
 5506              		.loc 1 2070 11
 5507 0048 07F11002 		add	r2, r7, #16
 5508 004c 0123     		movs	r3, #1
 5509 004e 3421     		movs	r1, #52
 5510 0050 7868     		ldr	r0, [r7, #4]
 5511 0052 FFF7FEFF 		bl	lis2dw12_write_reg
 5512 0056 7861     		str	r0, [r7, #20]
 5513              	.L313:
2071:Core/Src/lis2dw12_reg.c ****                              (uint8_t *) &wake_up_ths, 1);
2072:Core/Src/lis2dw12_reg.c ****   }
2073:Core/Src/lis2dw12_reg.c **** 
2074:Core/Src/lis2dw12_reg.c ****   if (ret == 0)
 5514              		.loc 1 2074 6
 5515 0058 7B69     		ldr	r3, [r7, #20]
 5516 005a 002B     		cmp	r3, #0
 5517 005c 10D1     		bne	.L314
2075:Core/Src/lis2dw12_reg.c ****   {
2076:Core/Src/lis2dw12_reg.c ****     wake_up_dur.stationary = ((uint8_t)val & 0x02U) >> 1;
 5518              		.loc 1 2076 53
 5519 005e FB78     		ldrb	r3, [r7, #3]	@ zero_extendqisi2
 5520 0060 5B08     		lsrs	r3, r3, #1
 5521 0062 03F00103 		and	r3, r3, #1
 5522 0066 DAB2     		uxtb	r2, r3
 5523              		.loc 1 2076 28
ARM GAS  C:\Users\vct344\AppData\Local\Temp\ccePc7Ac.s 			page 132


 5524 0068 3B7B     		ldrb	r3, [r7, #12]
 5525 006a 62F30413 		bfi	r3, r2, #4, #1
 5526 006e 3B73     		strb	r3, [r7, #12]
2077:Core/Src/lis2dw12_reg.c ****     ret = lis2dw12_write_reg(ctx, LIS2DW12_WAKE_UP_DUR,
 5527              		.loc 1 2077 11
 5528 0070 07F10C02 		add	r2, r7, #12
 5529 0074 0123     		movs	r3, #1
 5530 0076 3521     		movs	r1, #53
 5531 0078 7868     		ldr	r0, [r7, #4]
 5532 007a FFF7FEFF 		bl	lis2dw12_write_reg
 5533 007e 7861     		str	r0, [r7, #20]
 5534              	.L314:
2078:Core/Src/lis2dw12_reg.c ****                              (uint8_t *) &wake_up_dur, 1);
2079:Core/Src/lis2dw12_reg.c ****   }
2080:Core/Src/lis2dw12_reg.c **** 
2081:Core/Src/lis2dw12_reg.c ****   return ret;
 5535              		.loc 1 2081 10
 5536 0080 7B69     		ldr	r3, [r7, #20]
2082:Core/Src/lis2dw12_reg.c **** }
 5537              		.loc 1 2082 1
 5538 0082 1846     		mov	r0, r3
 5539 0084 1837     		adds	r7, r7, #24
 5540              	.LCFI368:
 5541              		.cfi_def_cfa_offset 8
 5542 0086 BD46     		mov	sp, r7
 5543              	.LCFI369:
 5544              		.cfi_def_cfa_register 13
 5545              		@ sp needed
 5546 0088 80BD     		pop	{r7, pc}
 5547              		.cfi_endproc
 5548              	.LFE73:
 5550              		.section	.text.lis2dw12_act_mode_get,"ax",%progbits
 5551              		.align	1
 5552              		.global	lis2dw12_act_mode_get
 5553              		.syntax unified
 5554              		.thumb
 5555              		.thumb_func
 5557              	lis2dw12_act_mode_get:
 5558              	.LFB74:
2083:Core/Src/lis2dw12_reg.c **** 
2084:Core/Src/lis2dw12_reg.c **** /**
2085:Core/Src/lis2dw12_reg.c ****   * @brief  Config activity / inactivity or
2086:Core/Src/lis2dw12_reg.c ****   *         stationary / motion detection. [get]
2087:Core/Src/lis2dw12_reg.c ****   *
2088:Core/Src/lis2dw12_reg.c ****   * @param  ctx      read / write interface definitions
2089:Core/Src/lis2dw12_reg.c ****   * @param  val      Get the values of sleep_on in reg WAKE_UP_THS
2090:Core/Src/lis2dw12_reg.c ****   * @retval          interface status (MANDATORY: return 0 -> no Error)
2091:Core/Src/lis2dw12_reg.c ****   *
2092:Core/Src/lis2dw12_reg.c ****   */
2093:Core/Src/lis2dw12_reg.c **** int32_t lis2dw12_act_mode_get(const stmdev_ctx_t *ctx,
2094:Core/Src/lis2dw12_reg.c ****                               lis2dw12_sleep_on_t *val)
2095:Core/Src/lis2dw12_reg.c **** {
 5559              		.loc 1 2095 1
 5560              		.cfi_startproc
 5561              		@ args = 0, pretend = 0, frame = 24
 5562              		@ frame_needed = 1, uses_anonymous_args = 0
 5563 0000 80B5     		push	{r7, lr}
ARM GAS  C:\Users\vct344\AppData\Local\Temp\ccePc7Ac.s 			page 133


 5564              	.LCFI370:
 5565              		.cfi_def_cfa_offset 8
 5566              		.cfi_offset 7, -8
 5567              		.cfi_offset 14, -4
 5568 0002 86B0     		sub	sp, sp, #24
 5569              	.LCFI371:
 5570              		.cfi_def_cfa_offset 32
 5571 0004 00AF     		add	r7, sp, #0
 5572              	.LCFI372:
 5573              		.cfi_def_cfa_register 7
 5574 0006 7860     		str	r0, [r7, #4]
 5575 0008 3960     		str	r1, [r7]
2096:Core/Src/lis2dw12_reg.c ****   lis2dw12_wake_up_ths_t wake_up_ths;
2097:Core/Src/lis2dw12_reg.c ****   lis2dw12_wake_up_dur_t wake_up_dur;;
2098:Core/Src/lis2dw12_reg.c ****   int32_t ret;
2099:Core/Src/lis2dw12_reg.c **** 
2100:Core/Src/lis2dw12_reg.c ****   ret = lis2dw12_read_reg(ctx, LIS2DW12_WAKE_UP_THS,
 5576              		.loc 1 2100 9
 5577 000a 07F11002 		add	r2, r7, #16
 5578 000e 0123     		movs	r3, #1
 5579 0010 3421     		movs	r1, #52
 5580 0012 7868     		ldr	r0, [r7, #4]
 5581 0014 FFF7FEFF 		bl	lis2dw12_read_reg
 5582 0018 7861     		str	r0, [r7, #20]
2101:Core/Src/lis2dw12_reg.c ****                           (uint8_t *) &wake_up_ths, 1);
2102:Core/Src/lis2dw12_reg.c **** 
2103:Core/Src/lis2dw12_reg.c ****   if (ret == 0)
 5583              		.loc 1 2103 6
 5584 001a 7B69     		ldr	r3, [r7, #20]
 5585 001c 002B     		cmp	r3, #0
 5586 001e 2AD1     		bne	.L317
2104:Core/Src/lis2dw12_reg.c ****   {
2105:Core/Src/lis2dw12_reg.c ****     ret = lis2dw12_read_reg(ctx, LIS2DW12_WAKE_UP_DUR,
 5587              		.loc 1 2105 11
 5588 0020 07F10C02 		add	r2, r7, #12
 5589 0024 0123     		movs	r3, #1
 5590 0026 3521     		movs	r1, #53
 5591 0028 7868     		ldr	r0, [r7, #4]
 5592 002a FFF7FEFF 		bl	lis2dw12_read_reg
 5593 002e 7861     		str	r0, [r7, #20]
2106:Core/Src/lis2dw12_reg.c ****                             (uint8_t *) &wake_up_dur, 1);
2107:Core/Src/lis2dw12_reg.c **** 
2108:Core/Src/lis2dw12_reg.c ****     switch ((wake_up_dur.stationary << 1) + wake_up_ths.sleep_on)
 5594              		.loc 1 2108 25
 5595 0030 3B7B     		ldrb	r3, [r7, #12]
 5596 0032 C3F30013 		ubfx	r3, r3, #4, #1
 5597 0036 DBB2     		uxtb	r3, r3
 5598              		.loc 1 2108 37
 5599 0038 5B00     		lsls	r3, r3, #1
 5600              		.loc 1 2108 56
 5601 003a 3A7C     		ldrb	r2, [r7, #16]
 5602 003c C2F38012 		ubfx	r2, r2, #6, #1
 5603 0040 D2B2     		uxtb	r2, r2
 5604              		.loc 1 2108 43
 5605 0042 1344     		add	r3, r3, r2
 5606              		.loc 1 2108 5
 5607 0044 032B     		cmp	r3, #3
ARM GAS  C:\Users\vct344\AppData\Local\Temp\ccePc7Ac.s 			page 134


 5608 0046 0ED0     		beq	.L318
 5609 0048 032B     		cmp	r3, #3
 5610 004a 10DC     		bgt	.L319
 5611 004c 002B     		cmp	r3, #0
 5612 004e 02D0     		beq	.L320
 5613 0050 012B     		cmp	r3, #1
 5614 0052 04D0     		beq	.L321
 5615 0054 0BE0     		b	.L319
 5616              	.L320:
2109:Core/Src/lis2dw12_reg.c ****     {
2110:Core/Src/lis2dw12_reg.c ****       case LIS2DW12_NO_DETECTION:
2111:Core/Src/lis2dw12_reg.c ****         *val = LIS2DW12_NO_DETECTION;
 5617              		.loc 1 2111 14
 5618 0056 3B68     		ldr	r3, [r7]
 5619 0058 0022     		movs	r2, #0
 5620 005a 1A70     		strb	r2, [r3]
2112:Core/Src/lis2dw12_reg.c ****         break;
 5621              		.loc 1 2112 9
 5622 005c 0BE0     		b	.L317
 5623              	.L321:
2113:Core/Src/lis2dw12_reg.c **** 
2114:Core/Src/lis2dw12_reg.c ****       case LIS2DW12_DETECT_ACT_INACT:
2115:Core/Src/lis2dw12_reg.c ****         *val = LIS2DW12_DETECT_ACT_INACT;
 5624              		.loc 1 2115 14
 5625 005e 3B68     		ldr	r3, [r7]
 5626 0060 0122     		movs	r2, #1
 5627 0062 1A70     		strb	r2, [r3]
2116:Core/Src/lis2dw12_reg.c ****         break;
 5628              		.loc 1 2116 9
 5629 0064 07E0     		b	.L317
 5630              	.L318:
2117:Core/Src/lis2dw12_reg.c **** 
2118:Core/Src/lis2dw12_reg.c ****       case LIS2DW12_DETECT_STAT_MOTION:
2119:Core/Src/lis2dw12_reg.c ****         *val = LIS2DW12_DETECT_STAT_MOTION;
 5631              		.loc 1 2119 14
 5632 0066 3B68     		ldr	r3, [r7]
 5633 0068 0322     		movs	r2, #3
 5634 006a 1A70     		strb	r2, [r3]
2120:Core/Src/lis2dw12_reg.c ****         break;
 5635              		.loc 1 2120 9
 5636 006c 03E0     		b	.L317
 5637              	.L319:
2121:Core/Src/lis2dw12_reg.c **** 
2122:Core/Src/lis2dw12_reg.c ****       default:
2123:Core/Src/lis2dw12_reg.c ****         *val = LIS2DW12_NO_DETECTION;
 5638              		.loc 1 2123 14
 5639 006e 3B68     		ldr	r3, [r7]
 5640 0070 0022     		movs	r2, #0
 5641 0072 1A70     		strb	r2, [r3]
2124:Core/Src/lis2dw12_reg.c ****         break;
 5642              		.loc 1 2124 9
 5643 0074 00BF     		nop
 5644              	.L317:
2125:Core/Src/lis2dw12_reg.c ****     }
2126:Core/Src/lis2dw12_reg.c ****   }
2127:Core/Src/lis2dw12_reg.c **** 
2128:Core/Src/lis2dw12_reg.c ****   return ret;
ARM GAS  C:\Users\vct344\AppData\Local\Temp\ccePc7Ac.s 			page 135


 5645              		.loc 1 2128 10
 5646 0076 7B69     		ldr	r3, [r7, #20]
2129:Core/Src/lis2dw12_reg.c **** }
 5647              		.loc 1 2129 1
 5648 0078 1846     		mov	r0, r3
 5649 007a 1837     		adds	r7, r7, #24
 5650              	.LCFI373:
 5651              		.cfi_def_cfa_offset 8
 5652 007c BD46     		mov	sp, r7
 5653              	.LCFI374:
 5654              		.cfi_def_cfa_register 13
 5655              		@ sp needed
 5656 007e 80BD     		pop	{r7, pc}
 5657              		.cfi_endproc
 5658              	.LFE74:
 5660              		.section	.text.lis2dw12_act_sleep_dur_set,"ax",%progbits
 5661              		.align	1
 5662              		.global	lis2dw12_act_sleep_dur_set
 5663              		.syntax unified
 5664              		.thumb
 5665              		.thumb_func
 5667              	lis2dw12_act_sleep_dur_set:
 5668              	.LFB75:
2130:Core/Src/lis2dw12_reg.c **** 
2131:Core/Src/lis2dw12_reg.c **** /**
2132:Core/Src/lis2dw12_reg.c ****   * @brief  Duration to go in sleep mode (1 LSb = 512 / ODR).[set]
2133:Core/Src/lis2dw12_reg.c ****   *
2134:Core/Src/lis2dw12_reg.c ****   * @param  ctx      read / write interface definitions
2135:Core/Src/lis2dw12_reg.c ****   * @param  val      change the values of sleep_dur in reg WAKE_UP_DUR
2136:Core/Src/lis2dw12_reg.c ****   * @retval          interface status (MANDATORY: return 0 -> no Error)
2137:Core/Src/lis2dw12_reg.c ****   *
2138:Core/Src/lis2dw12_reg.c ****   */
2139:Core/Src/lis2dw12_reg.c **** int32_t lis2dw12_act_sleep_dur_set(const stmdev_ctx_t *ctx, uint8_t val)
2140:Core/Src/lis2dw12_reg.c **** {
 5669              		.loc 1 2140 1
 5670              		.cfi_startproc
 5671              		@ args = 0, pretend = 0, frame = 16
 5672              		@ frame_needed = 1, uses_anonymous_args = 0
 5673 0000 80B5     		push	{r7, lr}
 5674              	.LCFI375:
 5675              		.cfi_def_cfa_offset 8
 5676              		.cfi_offset 7, -8
 5677              		.cfi_offset 14, -4
 5678 0002 84B0     		sub	sp, sp, #16
 5679              	.LCFI376:
 5680              		.cfi_def_cfa_offset 24
 5681 0004 00AF     		add	r7, sp, #0
 5682              	.LCFI377:
 5683              		.cfi_def_cfa_register 7
 5684 0006 7860     		str	r0, [r7, #4]
 5685 0008 0B46     		mov	r3, r1
 5686 000a FB70     		strb	r3, [r7, #3]
2141:Core/Src/lis2dw12_reg.c ****   lis2dw12_wake_up_dur_t reg;
2142:Core/Src/lis2dw12_reg.c ****   int32_t ret;
2143:Core/Src/lis2dw12_reg.c **** 
2144:Core/Src/lis2dw12_reg.c ****   ret = lis2dw12_read_reg(ctx, LIS2DW12_WAKE_UP_DUR, (uint8_t *) &reg, 1);
 5687              		.loc 1 2144 9
ARM GAS  C:\Users\vct344\AppData\Local\Temp\ccePc7Ac.s 			page 136


 5688 000c 07F10802 		add	r2, r7, #8
 5689 0010 0123     		movs	r3, #1
 5690 0012 3521     		movs	r1, #53
 5691 0014 7868     		ldr	r0, [r7, #4]
 5692 0016 FFF7FEFF 		bl	lis2dw12_read_reg
 5693 001a F860     		str	r0, [r7, #12]
2145:Core/Src/lis2dw12_reg.c **** 
2146:Core/Src/lis2dw12_reg.c ****   if (ret == 0)
 5694              		.loc 1 2146 6
 5695 001c FB68     		ldr	r3, [r7, #12]
 5696 001e 002B     		cmp	r3, #0
 5697 0020 0FD1     		bne	.L324
2147:Core/Src/lis2dw12_reg.c ****   {
2148:Core/Src/lis2dw12_reg.c ****     reg.sleep_dur = val;
 5698              		.loc 1 2148 19
 5699 0022 FB78     		ldrb	r3, [r7, #3]
 5700 0024 03F00F03 		and	r3, r3, #15
 5701 0028 DAB2     		uxtb	r2, r3
 5702 002a 3B7A     		ldrb	r3, [r7, #8]
 5703 002c 62F30303 		bfi	r3, r2, #0, #4
 5704 0030 3B72     		strb	r3, [r7, #8]
2149:Core/Src/lis2dw12_reg.c ****     ret = lis2dw12_write_reg(ctx, LIS2DW12_WAKE_UP_DUR, (uint8_t *) &reg, 1);
 5705              		.loc 1 2149 11
 5706 0032 07F10802 		add	r2, r7, #8
 5707 0036 0123     		movs	r3, #1
 5708 0038 3521     		movs	r1, #53
 5709 003a 7868     		ldr	r0, [r7, #4]
 5710 003c FFF7FEFF 		bl	lis2dw12_write_reg
 5711 0040 F860     		str	r0, [r7, #12]
 5712              	.L324:
2150:Core/Src/lis2dw12_reg.c ****   }
2151:Core/Src/lis2dw12_reg.c **** 
2152:Core/Src/lis2dw12_reg.c ****   return ret;
 5713              		.loc 1 2152 10
 5714 0042 FB68     		ldr	r3, [r7, #12]
2153:Core/Src/lis2dw12_reg.c **** }
 5715              		.loc 1 2153 1
 5716 0044 1846     		mov	r0, r3
 5717 0046 1037     		adds	r7, r7, #16
 5718              	.LCFI378:
 5719              		.cfi_def_cfa_offset 8
 5720 0048 BD46     		mov	sp, r7
 5721              	.LCFI379:
 5722              		.cfi_def_cfa_register 13
 5723              		@ sp needed
 5724 004a 80BD     		pop	{r7, pc}
 5725              		.cfi_endproc
 5726              	.LFE75:
 5728              		.section	.text.lis2dw12_act_sleep_dur_get,"ax",%progbits
 5729              		.align	1
 5730              		.global	lis2dw12_act_sleep_dur_get
 5731              		.syntax unified
 5732              		.thumb
 5733              		.thumb_func
 5735              	lis2dw12_act_sleep_dur_get:
 5736              	.LFB76:
2154:Core/Src/lis2dw12_reg.c **** 
ARM GAS  C:\Users\vct344\AppData\Local\Temp\ccePc7Ac.s 			page 137


2155:Core/Src/lis2dw12_reg.c **** /**
2156:Core/Src/lis2dw12_reg.c ****   * @brief  Duration to go in sleep mode (1 LSb = 512 / ODR).[get]
2157:Core/Src/lis2dw12_reg.c ****   *
2158:Core/Src/lis2dw12_reg.c ****   * @param  ctx      read / write interface definitions
2159:Core/Src/lis2dw12_reg.c ****   * @param  val      change the values of sleep_dur in reg WAKE_UP_DUR
2160:Core/Src/lis2dw12_reg.c ****   * @retval          interface status (MANDATORY: return 0 -> no Error)
2161:Core/Src/lis2dw12_reg.c ****   *
2162:Core/Src/lis2dw12_reg.c ****   */
2163:Core/Src/lis2dw12_reg.c **** int32_t lis2dw12_act_sleep_dur_get(const stmdev_ctx_t *ctx, uint8_t *val)
2164:Core/Src/lis2dw12_reg.c **** {
 5737              		.loc 1 2164 1
 5738              		.cfi_startproc
 5739              		@ args = 0, pretend = 0, frame = 16
 5740              		@ frame_needed = 1, uses_anonymous_args = 0
 5741 0000 80B5     		push	{r7, lr}
 5742              	.LCFI380:
 5743              		.cfi_def_cfa_offset 8
 5744              		.cfi_offset 7, -8
 5745              		.cfi_offset 14, -4
 5746 0002 84B0     		sub	sp, sp, #16
 5747              	.LCFI381:
 5748              		.cfi_def_cfa_offset 24
 5749 0004 00AF     		add	r7, sp, #0
 5750              	.LCFI382:
 5751              		.cfi_def_cfa_register 7
 5752 0006 7860     		str	r0, [r7, #4]
 5753 0008 3960     		str	r1, [r7]
2165:Core/Src/lis2dw12_reg.c ****   lis2dw12_wake_up_dur_t reg;
2166:Core/Src/lis2dw12_reg.c ****   int32_t ret;
2167:Core/Src/lis2dw12_reg.c **** 
2168:Core/Src/lis2dw12_reg.c ****   ret = lis2dw12_read_reg(ctx, LIS2DW12_WAKE_UP_DUR, (uint8_t *) &reg, 1);
 5754              		.loc 1 2168 9
 5755 000a 07F10802 		add	r2, r7, #8
 5756 000e 0123     		movs	r3, #1
 5757 0010 3521     		movs	r1, #53
 5758 0012 7868     		ldr	r0, [r7, #4]
 5759 0014 FFF7FEFF 		bl	lis2dw12_read_reg
 5760 0018 F860     		str	r0, [r7, #12]
2169:Core/Src/lis2dw12_reg.c ****   *val = reg.sleep_dur;
 5761              		.loc 1 2169 13
 5762 001a 3B7A     		ldrb	r3, [r7, #8]
 5763 001c C3F30303 		ubfx	r3, r3, #0, #4
 5764 0020 DBB2     		uxtb	r3, r3
 5765 0022 1A46     		mov	r2, r3
 5766              		.loc 1 2169 8
 5767 0024 3B68     		ldr	r3, [r7]
 5768 0026 1A70     		strb	r2, [r3]
2170:Core/Src/lis2dw12_reg.c **** 
2171:Core/Src/lis2dw12_reg.c ****   return ret;
 5769              		.loc 1 2171 10
 5770 0028 FB68     		ldr	r3, [r7, #12]
2172:Core/Src/lis2dw12_reg.c **** }
 5771              		.loc 1 2172 1
 5772 002a 1846     		mov	r0, r3
 5773 002c 1037     		adds	r7, r7, #16
 5774              	.LCFI383:
 5775              		.cfi_def_cfa_offset 8
ARM GAS  C:\Users\vct344\AppData\Local\Temp\ccePc7Ac.s 			page 138


 5776 002e BD46     		mov	sp, r7
 5777              	.LCFI384:
 5778              		.cfi_def_cfa_register 13
 5779              		@ sp needed
 5780 0030 80BD     		pop	{r7, pc}
 5781              		.cfi_endproc
 5782              	.LFE76:
 5784              		.section	.text.lis2dw12_tap_threshold_x_set,"ax",%progbits
 5785              		.align	1
 5786              		.global	lis2dw12_tap_threshold_x_set
 5787              		.syntax unified
 5788              		.thumb
 5789              		.thumb_func
 5791              	lis2dw12_tap_threshold_x_set:
 5792              	.LFB77:
2173:Core/Src/lis2dw12_reg.c **** 
2174:Core/Src/lis2dw12_reg.c **** /**
2175:Core/Src/lis2dw12_reg.c ****   * @}
2176:Core/Src/lis2dw12_reg.c ****   *
2177:Core/Src/lis2dw12_reg.c ****   */
2178:Core/Src/lis2dw12_reg.c **** 
2179:Core/Src/lis2dw12_reg.c **** /**
2180:Core/Src/lis2dw12_reg.c ****   * @defgroup  LIS2DW12_Tap_Generator
2181:Core/Src/lis2dw12_reg.c ****   * @brief     This section groups all the functions that manage the tap
2182:Core/Src/lis2dw12_reg.c ****   *            and double tap event generation.
2183:Core/Src/lis2dw12_reg.c ****   * @{
2184:Core/Src/lis2dw12_reg.c ****   *
2185:Core/Src/lis2dw12_reg.c ****   */
2186:Core/Src/lis2dw12_reg.c **** 
2187:Core/Src/lis2dw12_reg.c **** /**
2188:Core/Src/lis2dw12_reg.c ****   * @brief  Threshold for tap recognition.[set]
2189:Core/Src/lis2dw12_reg.c ****   *
2190:Core/Src/lis2dw12_reg.c ****   * @param  ctx      read / write interface definitions
2191:Core/Src/lis2dw12_reg.c ****   * @param  val      change the values of tap_thsx in reg TAP_THS_X
2192:Core/Src/lis2dw12_reg.c ****   * @retval          interface status (MANDATORY: return 0 -> no Error)
2193:Core/Src/lis2dw12_reg.c ****   *
2194:Core/Src/lis2dw12_reg.c ****   */
2195:Core/Src/lis2dw12_reg.c **** int32_t lis2dw12_tap_threshold_x_set(const stmdev_ctx_t *ctx, uint8_t val)
2196:Core/Src/lis2dw12_reg.c **** {
 5793              		.loc 1 2196 1
 5794              		.cfi_startproc
 5795              		@ args = 0, pretend = 0, frame = 16
 5796              		@ frame_needed = 1, uses_anonymous_args = 0
 5797 0000 80B5     		push	{r7, lr}
 5798              	.LCFI385:
 5799              		.cfi_def_cfa_offset 8
 5800              		.cfi_offset 7, -8
 5801              		.cfi_offset 14, -4
 5802 0002 84B0     		sub	sp, sp, #16
 5803              	.LCFI386:
 5804              		.cfi_def_cfa_offset 24
 5805 0004 00AF     		add	r7, sp, #0
 5806              	.LCFI387:
 5807              		.cfi_def_cfa_register 7
 5808 0006 7860     		str	r0, [r7, #4]
 5809 0008 0B46     		mov	r3, r1
 5810 000a FB70     		strb	r3, [r7, #3]
ARM GAS  C:\Users\vct344\AppData\Local\Temp\ccePc7Ac.s 			page 139


2197:Core/Src/lis2dw12_reg.c ****   lis2dw12_tap_ths_x_t reg;
2198:Core/Src/lis2dw12_reg.c ****   int32_t ret;
2199:Core/Src/lis2dw12_reg.c **** 
2200:Core/Src/lis2dw12_reg.c ****   ret = lis2dw12_read_reg(ctx, LIS2DW12_TAP_THS_X, (uint8_t *) &reg, 1);
 5811              		.loc 1 2200 9
 5812 000c 07F10802 		add	r2, r7, #8
 5813 0010 0123     		movs	r3, #1
 5814 0012 3021     		movs	r1, #48
 5815 0014 7868     		ldr	r0, [r7, #4]
 5816 0016 FFF7FEFF 		bl	lis2dw12_read_reg
 5817 001a F860     		str	r0, [r7, #12]
2201:Core/Src/lis2dw12_reg.c **** 
2202:Core/Src/lis2dw12_reg.c ****   if (ret == 0)
 5818              		.loc 1 2202 6
 5819 001c FB68     		ldr	r3, [r7, #12]
 5820 001e 002B     		cmp	r3, #0
 5821 0020 0FD1     		bne	.L329
2203:Core/Src/lis2dw12_reg.c ****   {
2204:Core/Src/lis2dw12_reg.c ****     reg.tap_thsx = val;
 5822              		.loc 1 2204 18
 5823 0022 FB78     		ldrb	r3, [r7, #3]
 5824 0024 03F01F03 		and	r3, r3, #31
 5825 0028 DAB2     		uxtb	r2, r3
 5826 002a 3B7A     		ldrb	r3, [r7, #8]
 5827 002c 62F30403 		bfi	r3, r2, #0, #5
 5828 0030 3B72     		strb	r3, [r7, #8]
2205:Core/Src/lis2dw12_reg.c ****     ret = lis2dw12_write_reg(ctx, LIS2DW12_TAP_THS_X, (uint8_t *) &reg, 1);
 5829              		.loc 1 2205 11
 5830 0032 07F10802 		add	r2, r7, #8
 5831 0036 0123     		movs	r3, #1
 5832 0038 3021     		movs	r1, #48
 5833 003a 7868     		ldr	r0, [r7, #4]
 5834 003c FFF7FEFF 		bl	lis2dw12_write_reg
 5835 0040 F860     		str	r0, [r7, #12]
 5836              	.L329:
2206:Core/Src/lis2dw12_reg.c ****   }
2207:Core/Src/lis2dw12_reg.c **** 
2208:Core/Src/lis2dw12_reg.c ****   return ret;
 5837              		.loc 1 2208 10
 5838 0042 FB68     		ldr	r3, [r7, #12]
2209:Core/Src/lis2dw12_reg.c **** }
 5839              		.loc 1 2209 1
 5840 0044 1846     		mov	r0, r3
 5841 0046 1037     		adds	r7, r7, #16
 5842              	.LCFI388:
 5843              		.cfi_def_cfa_offset 8
 5844 0048 BD46     		mov	sp, r7
 5845              	.LCFI389:
 5846              		.cfi_def_cfa_register 13
 5847              		@ sp needed
 5848 004a 80BD     		pop	{r7, pc}
 5849              		.cfi_endproc
 5850              	.LFE77:
 5852              		.section	.text.lis2dw12_tap_threshold_x_get,"ax",%progbits
 5853              		.align	1
 5854              		.global	lis2dw12_tap_threshold_x_get
 5855              		.syntax unified
ARM GAS  C:\Users\vct344\AppData\Local\Temp\ccePc7Ac.s 			page 140


 5856              		.thumb
 5857              		.thumb_func
 5859              	lis2dw12_tap_threshold_x_get:
 5860              	.LFB78:
2210:Core/Src/lis2dw12_reg.c **** 
2211:Core/Src/lis2dw12_reg.c **** /**
2212:Core/Src/lis2dw12_reg.c ****   * @brief  Threshold for tap recognition.[get]
2213:Core/Src/lis2dw12_reg.c ****   *
2214:Core/Src/lis2dw12_reg.c ****   * @param  ctx      read / write interface definitions
2215:Core/Src/lis2dw12_reg.c ****   * @param  val      change the values of tap_thsx in reg TAP_THS_X
2216:Core/Src/lis2dw12_reg.c ****   * @retval          interface status (MANDATORY: return 0 -> no Error)
2217:Core/Src/lis2dw12_reg.c ****   *
2218:Core/Src/lis2dw12_reg.c ****   */
2219:Core/Src/lis2dw12_reg.c **** int32_t lis2dw12_tap_threshold_x_get(const stmdev_ctx_t *ctx, uint8_t *val)
2220:Core/Src/lis2dw12_reg.c **** {
 5861              		.loc 1 2220 1
 5862              		.cfi_startproc
 5863              		@ args = 0, pretend = 0, frame = 16
 5864              		@ frame_needed = 1, uses_anonymous_args = 0
 5865 0000 80B5     		push	{r7, lr}
 5866              	.LCFI390:
 5867              		.cfi_def_cfa_offset 8
 5868              		.cfi_offset 7, -8
 5869              		.cfi_offset 14, -4
 5870 0002 84B0     		sub	sp, sp, #16
 5871              	.LCFI391:
 5872              		.cfi_def_cfa_offset 24
 5873 0004 00AF     		add	r7, sp, #0
 5874              	.LCFI392:
 5875              		.cfi_def_cfa_register 7
 5876 0006 7860     		str	r0, [r7, #4]
 5877 0008 3960     		str	r1, [r7]
2221:Core/Src/lis2dw12_reg.c ****   lis2dw12_tap_ths_x_t reg;
2222:Core/Src/lis2dw12_reg.c ****   int32_t ret;
2223:Core/Src/lis2dw12_reg.c **** 
2224:Core/Src/lis2dw12_reg.c ****   ret = lis2dw12_read_reg(ctx, LIS2DW12_TAP_THS_X, (uint8_t *) &reg, 1);
 5878              		.loc 1 2224 9
 5879 000a 07F10802 		add	r2, r7, #8
 5880 000e 0123     		movs	r3, #1
 5881 0010 3021     		movs	r1, #48
 5882 0012 7868     		ldr	r0, [r7, #4]
 5883 0014 FFF7FEFF 		bl	lis2dw12_read_reg
 5884 0018 F860     		str	r0, [r7, #12]
2225:Core/Src/lis2dw12_reg.c ****   *val = reg.tap_thsx;
 5885              		.loc 1 2225 13
 5886 001a 3B7A     		ldrb	r3, [r7, #8]
 5887 001c C3F30403 		ubfx	r3, r3, #0, #5
 5888 0020 DBB2     		uxtb	r3, r3
 5889 0022 1A46     		mov	r2, r3
 5890              		.loc 1 2225 8
 5891 0024 3B68     		ldr	r3, [r7]
 5892 0026 1A70     		strb	r2, [r3]
2226:Core/Src/lis2dw12_reg.c **** 
2227:Core/Src/lis2dw12_reg.c ****   return ret;
 5893              		.loc 1 2227 10
 5894 0028 FB68     		ldr	r3, [r7, #12]
2228:Core/Src/lis2dw12_reg.c **** }
ARM GAS  C:\Users\vct344\AppData\Local\Temp\ccePc7Ac.s 			page 141


 5895              		.loc 1 2228 1
 5896 002a 1846     		mov	r0, r3
 5897 002c 1037     		adds	r7, r7, #16
 5898              	.LCFI393:
 5899              		.cfi_def_cfa_offset 8
 5900 002e BD46     		mov	sp, r7
 5901              	.LCFI394:
 5902              		.cfi_def_cfa_register 13
 5903              		@ sp needed
 5904 0030 80BD     		pop	{r7, pc}
 5905              		.cfi_endproc
 5906              	.LFE78:
 5908              		.section	.text.lis2dw12_tap_threshold_y_set,"ax",%progbits
 5909              		.align	1
 5910              		.global	lis2dw12_tap_threshold_y_set
 5911              		.syntax unified
 5912              		.thumb
 5913              		.thumb_func
 5915              	lis2dw12_tap_threshold_y_set:
 5916              	.LFB79:
2229:Core/Src/lis2dw12_reg.c **** 
2230:Core/Src/lis2dw12_reg.c **** /**
2231:Core/Src/lis2dw12_reg.c ****   * @brief  Threshold for tap recognition.[set]
2232:Core/Src/lis2dw12_reg.c ****   *
2233:Core/Src/lis2dw12_reg.c ****   * @param  ctx      read / write interface definitions
2234:Core/Src/lis2dw12_reg.c ****   * @param  val      change the values of tap_thsy in reg TAP_THS_Y
2235:Core/Src/lis2dw12_reg.c ****   * @retval          interface status (MANDATORY: return 0 -> no Error)
2236:Core/Src/lis2dw12_reg.c ****   *
2237:Core/Src/lis2dw12_reg.c ****   */
2238:Core/Src/lis2dw12_reg.c **** int32_t lis2dw12_tap_threshold_y_set(const stmdev_ctx_t *ctx, uint8_t val)
2239:Core/Src/lis2dw12_reg.c **** {
 5917              		.loc 1 2239 1
 5918              		.cfi_startproc
 5919              		@ args = 0, pretend = 0, frame = 16
 5920              		@ frame_needed = 1, uses_anonymous_args = 0
 5921 0000 80B5     		push	{r7, lr}
 5922              	.LCFI395:
 5923              		.cfi_def_cfa_offset 8
 5924              		.cfi_offset 7, -8
 5925              		.cfi_offset 14, -4
 5926 0002 84B0     		sub	sp, sp, #16
 5927              	.LCFI396:
 5928              		.cfi_def_cfa_offset 24
 5929 0004 00AF     		add	r7, sp, #0
 5930              	.LCFI397:
 5931              		.cfi_def_cfa_register 7
 5932 0006 7860     		str	r0, [r7, #4]
 5933 0008 0B46     		mov	r3, r1
 5934 000a FB70     		strb	r3, [r7, #3]
2240:Core/Src/lis2dw12_reg.c ****   lis2dw12_tap_ths_y_t reg;
2241:Core/Src/lis2dw12_reg.c ****   int32_t ret;
2242:Core/Src/lis2dw12_reg.c **** 
2243:Core/Src/lis2dw12_reg.c ****   ret = lis2dw12_read_reg(ctx, LIS2DW12_TAP_THS_Y, (uint8_t *) &reg, 1);
 5935              		.loc 1 2243 9
 5936 000c 07F10802 		add	r2, r7, #8
 5937 0010 0123     		movs	r3, #1
 5938 0012 3121     		movs	r1, #49
ARM GAS  C:\Users\vct344\AppData\Local\Temp\ccePc7Ac.s 			page 142


 5939 0014 7868     		ldr	r0, [r7, #4]
 5940 0016 FFF7FEFF 		bl	lis2dw12_read_reg
 5941 001a F860     		str	r0, [r7, #12]
2244:Core/Src/lis2dw12_reg.c **** 
2245:Core/Src/lis2dw12_reg.c ****   if (ret == 0)
 5942              		.loc 1 2245 6
 5943 001c FB68     		ldr	r3, [r7, #12]
 5944 001e 002B     		cmp	r3, #0
 5945 0020 0FD1     		bne	.L334
2246:Core/Src/lis2dw12_reg.c ****   {
2247:Core/Src/lis2dw12_reg.c ****     reg.tap_thsy = val;
 5946              		.loc 1 2247 18
 5947 0022 FB78     		ldrb	r3, [r7, #3]
 5948 0024 03F01F03 		and	r3, r3, #31
 5949 0028 DAB2     		uxtb	r2, r3
 5950 002a 3B7A     		ldrb	r3, [r7, #8]
 5951 002c 62F30403 		bfi	r3, r2, #0, #5
 5952 0030 3B72     		strb	r3, [r7, #8]
2248:Core/Src/lis2dw12_reg.c ****     ret = lis2dw12_write_reg(ctx, LIS2DW12_TAP_THS_Y, (uint8_t *) &reg, 1);
 5953              		.loc 1 2248 11
 5954 0032 07F10802 		add	r2, r7, #8
 5955 0036 0123     		movs	r3, #1
 5956 0038 3121     		movs	r1, #49
 5957 003a 7868     		ldr	r0, [r7, #4]
 5958 003c FFF7FEFF 		bl	lis2dw12_write_reg
 5959 0040 F860     		str	r0, [r7, #12]
 5960              	.L334:
2249:Core/Src/lis2dw12_reg.c ****   }
2250:Core/Src/lis2dw12_reg.c **** 
2251:Core/Src/lis2dw12_reg.c ****   return ret;
 5961              		.loc 1 2251 10
 5962 0042 FB68     		ldr	r3, [r7, #12]
2252:Core/Src/lis2dw12_reg.c **** }
 5963              		.loc 1 2252 1
 5964 0044 1846     		mov	r0, r3
 5965 0046 1037     		adds	r7, r7, #16
 5966              	.LCFI398:
 5967              		.cfi_def_cfa_offset 8
 5968 0048 BD46     		mov	sp, r7
 5969              	.LCFI399:
 5970              		.cfi_def_cfa_register 13
 5971              		@ sp needed
 5972 004a 80BD     		pop	{r7, pc}
 5973              		.cfi_endproc
 5974              	.LFE79:
 5976              		.section	.text.lis2dw12_tap_threshold_y_get,"ax",%progbits
 5977              		.align	1
 5978              		.global	lis2dw12_tap_threshold_y_get
 5979              		.syntax unified
 5980              		.thumb
 5981              		.thumb_func
 5983              	lis2dw12_tap_threshold_y_get:
 5984              	.LFB80:
2253:Core/Src/lis2dw12_reg.c **** 
2254:Core/Src/lis2dw12_reg.c **** /**
2255:Core/Src/lis2dw12_reg.c ****   * @brief  Threshold for tap recognition.[get]
2256:Core/Src/lis2dw12_reg.c ****   *
ARM GAS  C:\Users\vct344\AppData\Local\Temp\ccePc7Ac.s 			page 143


2257:Core/Src/lis2dw12_reg.c ****   * @param  ctx      read / write interface definitions
2258:Core/Src/lis2dw12_reg.c ****   * @param  val      change the values of tap_thsy in reg TAP_THS_Y
2259:Core/Src/lis2dw12_reg.c ****   * @retval          interface status (MANDATORY: return 0 -> no Error)
2260:Core/Src/lis2dw12_reg.c ****   *
2261:Core/Src/lis2dw12_reg.c ****   */
2262:Core/Src/lis2dw12_reg.c **** int32_t lis2dw12_tap_threshold_y_get(const stmdev_ctx_t *ctx, uint8_t *val)
2263:Core/Src/lis2dw12_reg.c **** {
 5985              		.loc 1 2263 1
 5986              		.cfi_startproc
 5987              		@ args = 0, pretend = 0, frame = 16
 5988              		@ frame_needed = 1, uses_anonymous_args = 0
 5989 0000 80B5     		push	{r7, lr}
 5990              	.LCFI400:
 5991              		.cfi_def_cfa_offset 8
 5992              		.cfi_offset 7, -8
 5993              		.cfi_offset 14, -4
 5994 0002 84B0     		sub	sp, sp, #16
 5995              	.LCFI401:
 5996              		.cfi_def_cfa_offset 24
 5997 0004 00AF     		add	r7, sp, #0
 5998              	.LCFI402:
 5999              		.cfi_def_cfa_register 7
 6000 0006 7860     		str	r0, [r7, #4]
 6001 0008 3960     		str	r1, [r7]
2264:Core/Src/lis2dw12_reg.c ****   lis2dw12_tap_ths_y_t reg;
2265:Core/Src/lis2dw12_reg.c ****   int32_t ret;
2266:Core/Src/lis2dw12_reg.c **** 
2267:Core/Src/lis2dw12_reg.c ****   ret = lis2dw12_read_reg(ctx, LIS2DW12_TAP_THS_Y, (uint8_t *) &reg, 1);
 6002              		.loc 1 2267 9
 6003 000a 07F10802 		add	r2, r7, #8
 6004 000e 0123     		movs	r3, #1
 6005 0010 3121     		movs	r1, #49
 6006 0012 7868     		ldr	r0, [r7, #4]
 6007 0014 FFF7FEFF 		bl	lis2dw12_read_reg
 6008 0018 F860     		str	r0, [r7, #12]
2268:Core/Src/lis2dw12_reg.c ****   *val = reg.tap_thsy;
 6009              		.loc 1 2268 13
 6010 001a 3B7A     		ldrb	r3, [r7, #8]
 6011 001c C3F30403 		ubfx	r3, r3, #0, #5
 6012 0020 DBB2     		uxtb	r3, r3
 6013 0022 1A46     		mov	r2, r3
 6014              		.loc 1 2268 8
 6015 0024 3B68     		ldr	r3, [r7]
 6016 0026 1A70     		strb	r2, [r3]
2269:Core/Src/lis2dw12_reg.c **** 
2270:Core/Src/lis2dw12_reg.c ****   return ret;
 6017              		.loc 1 2270 10
 6018 0028 FB68     		ldr	r3, [r7, #12]
2271:Core/Src/lis2dw12_reg.c **** }
 6019              		.loc 1 2271 1
 6020 002a 1846     		mov	r0, r3
 6021 002c 1037     		adds	r7, r7, #16
 6022              	.LCFI403:
 6023              		.cfi_def_cfa_offset 8
 6024 002e BD46     		mov	sp, r7
 6025              	.LCFI404:
 6026              		.cfi_def_cfa_register 13
ARM GAS  C:\Users\vct344\AppData\Local\Temp\ccePc7Ac.s 			page 144


 6027              		@ sp needed
 6028 0030 80BD     		pop	{r7, pc}
 6029              		.cfi_endproc
 6030              	.LFE80:
 6032              		.section	.text.lis2dw12_tap_axis_priority_set,"ax",%progbits
 6033              		.align	1
 6034              		.global	lis2dw12_tap_axis_priority_set
 6035              		.syntax unified
 6036              		.thumb
 6037              		.thumb_func
 6039              	lis2dw12_tap_axis_priority_set:
 6040              	.LFB81:
2272:Core/Src/lis2dw12_reg.c **** 
2273:Core/Src/lis2dw12_reg.c **** /**
2274:Core/Src/lis2dw12_reg.c ****   * @brief  Selection of axis priority for TAP detection.[set]
2275:Core/Src/lis2dw12_reg.c ****   *
2276:Core/Src/lis2dw12_reg.c ****   * @param  ctx      read / write interface definitions
2277:Core/Src/lis2dw12_reg.c ****   * @param  val      change the values of tap_prior in reg TAP_THS_Y
2278:Core/Src/lis2dw12_reg.c ****   * @retval          interface status (MANDATORY: return 0 -> no Error)
2279:Core/Src/lis2dw12_reg.c ****   *
2280:Core/Src/lis2dw12_reg.c ****   */
2281:Core/Src/lis2dw12_reg.c **** int32_t lis2dw12_tap_axis_priority_set(const stmdev_ctx_t *ctx,
2282:Core/Src/lis2dw12_reg.c ****                                        lis2dw12_tap_prior_t val)
2283:Core/Src/lis2dw12_reg.c **** {
 6041              		.loc 1 2283 1
 6042              		.cfi_startproc
 6043              		@ args = 0, pretend = 0, frame = 16
 6044              		@ frame_needed = 1, uses_anonymous_args = 0
 6045 0000 80B5     		push	{r7, lr}
 6046              	.LCFI405:
 6047              		.cfi_def_cfa_offset 8
 6048              		.cfi_offset 7, -8
 6049              		.cfi_offset 14, -4
 6050 0002 84B0     		sub	sp, sp, #16
 6051              	.LCFI406:
 6052              		.cfi_def_cfa_offset 24
 6053 0004 00AF     		add	r7, sp, #0
 6054              	.LCFI407:
 6055              		.cfi_def_cfa_register 7
 6056 0006 7860     		str	r0, [r7, #4]
 6057 0008 0B46     		mov	r3, r1
 6058 000a FB70     		strb	r3, [r7, #3]
2284:Core/Src/lis2dw12_reg.c ****   lis2dw12_tap_ths_y_t reg;
2285:Core/Src/lis2dw12_reg.c ****   int32_t ret;
2286:Core/Src/lis2dw12_reg.c **** 
2287:Core/Src/lis2dw12_reg.c ****   ret = lis2dw12_read_reg(ctx, LIS2DW12_TAP_THS_Y, (uint8_t *) &reg, 1);
 6059              		.loc 1 2287 9
 6060 000c 07F10802 		add	r2, r7, #8
 6061 0010 0123     		movs	r3, #1
 6062 0012 3121     		movs	r1, #49
 6063 0014 7868     		ldr	r0, [r7, #4]
 6064 0016 FFF7FEFF 		bl	lis2dw12_read_reg
 6065 001a F860     		str	r0, [r7, #12]
2288:Core/Src/lis2dw12_reg.c **** 
2289:Core/Src/lis2dw12_reg.c ****   if (ret == 0)
 6066              		.loc 1 2289 6
 6067 001c FB68     		ldr	r3, [r7, #12]
ARM GAS  C:\Users\vct344\AppData\Local\Temp\ccePc7Ac.s 			page 145


 6068 001e 002B     		cmp	r3, #0
 6069 0020 0FD1     		bne	.L339
2290:Core/Src/lis2dw12_reg.c ****   {
2291:Core/Src/lis2dw12_reg.c ****     reg.tap_prior = (uint8_t) val;
 6070              		.loc 1 2291 21
 6071 0022 FB78     		ldrb	r3, [r7, #3]
 6072 0024 03F00703 		and	r3, r3, #7
 6073 0028 DAB2     		uxtb	r2, r3
 6074              		.loc 1 2291 19
 6075 002a 3B7A     		ldrb	r3, [r7, #8]
 6076 002c 62F34713 		bfi	r3, r2, #5, #3
 6077 0030 3B72     		strb	r3, [r7, #8]
2292:Core/Src/lis2dw12_reg.c ****     ret = lis2dw12_write_reg(ctx, LIS2DW12_TAP_THS_Y, (uint8_t *) &reg, 1);
 6078              		.loc 1 2292 11
 6079 0032 07F10802 		add	r2, r7, #8
 6080 0036 0123     		movs	r3, #1
 6081 0038 3121     		movs	r1, #49
 6082 003a 7868     		ldr	r0, [r7, #4]
 6083 003c FFF7FEFF 		bl	lis2dw12_write_reg
 6084 0040 F860     		str	r0, [r7, #12]
 6085              	.L339:
2293:Core/Src/lis2dw12_reg.c ****   }
2294:Core/Src/lis2dw12_reg.c **** 
2295:Core/Src/lis2dw12_reg.c ****   return ret;
 6086              		.loc 1 2295 10
 6087 0042 FB68     		ldr	r3, [r7, #12]
2296:Core/Src/lis2dw12_reg.c **** }
 6088              		.loc 1 2296 1
 6089 0044 1846     		mov	r0, r3
 6090 0046 1037     		adds	r7, r7, #16
 6091              	.LCFI408:
 6092              		.cfi_def_cfa_offset 8
 6093 0048 BD46     		mov	sp, r7
 6094              	.LCFI409:
 6095              		.cfi_def_cfa_register 13
 6096              		@ sp needed
 6097 004a 80BD     		pop	{r7, pc}
 6098              		.cfi_endproc
 6099              	.LFE81:
 6101              		.section	.text.lis2dw12_tap_axis_priority_get,"ax",%progbits
 6102              		.align	1
 6103              		.global	lis2dw12_tap_axis_priority_get
 6104              		.syntax unified
 6105              		.thumb
 6106              		.thumb_func
 6108              	lis2dw12_tap_axis_priority_get:
 6109              	.LFB82:
2297:Core/Src/lis2dw12_reg.c **** 
2298:Core/Src/lis2dw12_reg.c **** /**
2299:Core/Src/lis2dw12_reg.c ****   * @brief  Selection of axis priority for TAP detection.[get]
2300:Core/Src/lis2dw12_reg.c ****   *
2301:Core/Src/lis2dw12_reg.c ****   * @param  ctx      read / write interface definitions
2302:Core/Src/lis2dw12_reg.c ****   * @param  val      Get the values of tap_prior in reg TAP_THS_Y
2303:Core/Src/lis2dw12_reg.c ****   * @retval          interface status (MANDATORY: return 0 -> no Error)
2304:Core/Src/lis2dw12_reg.c ****   *
2305:Core/Src/lis2dw12_reg.c ****   */
2306:Core/Src/lis2dw12_reg.c **** int32_t lis2dw12_tap_axis_priority_get(const stmdev_ctx_t *ctx,
ARM GAS  C:\Users\vct344\AppData\Local\Temp\ccePc7Ac.s 			page 146


2307:Core/Src/lis2dw12_reg.c ****                                        lis2dw12_tap_prior_t *val)
2308:Core/Src/lis2dw12_reg.c **** {
 6110              		.loc 1 2308 1
 6111              		.cfi_startproc
 6112              		@ args = 0, pretend = 0, frame = 16
 6113              		@ frame_needed = 1, uses_anonymous_args = 0
 6114 0000 80B5     		push	{r7, lr}
 6115              	.LCFI410:
 6116              		.cfi_def_cfa_offset 8
 6117              		.cfi_offset 7, -8
 6118              		.cfi_offset 14, -4
 6119 0002 84B0     		sub	sp, sp, #16
 6120              	.LCFI411:
 6121              		.cfi_def_cfa_offset 24
 6122 0004 00AF     		add	r7, sp, #0
 6123              	.LCFI412:
 6124              		.cfi_def_cfa_register 7
 6125 0006 7860     		str	r0, [r7, #4]
 6126 0008 3960     		str	r1, [r7]
2309:Core/Src/lis2dw12_reg.c ****   lis2dw12_tap_ths_y_t reg;
2310:Core/Src/lis2dw12_reg.c ****   int32_t ret;
2311:Core/Src/lis2dw12_reg.c **** 
2312:Core/Src/lis2dw12_reg.c ****   ret = lis2dw12_read_reg(ctx, LIS2DW12_TAP_THS_Y, (uint8_t *) &reg, 1);
 6127              		.loc 1 2312 9
 6128 000a 07F10802 		add	r2, r7, #8
 6129 000e 0123     		movs	r3, #1
 6130 0010 3121     		movs	r1, #49
 6131 0012 7868     		ldr	r0, [r7, #4]
 6132 0014 FFF7FEFF 		bl	lis2dw12_read_reg
 6133 0018 F860     		str	r0, [r7, #12]
2313:Core/Src/lis2dw12_reg.c **** 
2314:Core/Src/lis2dw12_reg.c ****   switch (reg.tap_prior)
 6134              		.loc 1 2314 14
 6135 001a 3B7A     		ldrb	r3, [r7, #8]
 6136 001c C3F34213 		ubfx	r3, r3, #5, #3
 6137 0020 DBB2     		uxtb	r3, r3
 6138              		.loc 1 2314 3
 6139 0022 062B     		cmp	r3, #6
 6140 0024 28D8     		bhi	.L342
 6141 0026 01A2     		adr	r2, .L344
 6142 0028 52F823F0 		ldr	pc, [r2, r3, lsl #2]
 6143              		.p2align 2
 6144              	.L344:
 6145 002c 49000000 		.word	.L349+1
 6146 0030 51000000 		.word	.L348+1
 6147 0034 59000000 		.word	.L347+1
 6148 0038 61000000 		.word	.L346+1
 6149 003c 79000000 		.word	.L342+1
 6150 0040 69000000 		.word	.L345+1
 6151 0044 71000000 		.word	.L343+1
 6152              		.p2align 1
 6153              	.L349:
2315:Core/Src/lis2dw12_reg.c ****   {
2316:Core/Src/lis2dw12_reg.c ****     case LIS2DW12_XYZ:
2317:Core/Src/lis2dw12_reg.c ****       *val = LIS2DW12_XYZ;
 6154              		.loc 1 2317 12
 6155 0048 3B68     		ldr	r3, [r7]
ARM GAS  C:\Users\vct344\AppData\Local\Temp\ccePc7Ac.s 			page 147


 6156 004a 0022     		movs	r2, #0
 6157 004c 1A70     		strb	r2, [r3]
2318:Core/Src/lis2dw12_reg.c ****       break;
 6158              		.loc 1 2318 7
 6159 004e 17E0     		b	.L350
 6160              	.L348:
2319:Core/Src/lis2dw12_reg.c **** 
2320:Core/Src/lis2dw12_reg.c ****     case LIS2DW12_YXZ:
2321:Core/Src/lis2dw12_reg.c ****       *val = LIS2DW12_YXZ;
 6161              		.loc 1 2321 12
 6162 0050 3B68     		ldr	r3, [r7]
 6163 0052 0122     		movs	r2, #1
 6164 0054 1A70     		strb	r2, [r3]
2322:Core/Src/lis2dw12_reg.c ****       break;
 6165              		.loc 1 2322 7
 6166 0056 13E0     		b	.L350
 6167              	.L347:
2323:Core/Src/lis2dw12_reg.c **** 
2324:Core/Src/lis2dw12_reg.c ****     case LIS2DW12_XZY:
2325:Core/Src/lis2dw12_reg.c ****       *val = LIS2DW12_XZY;
 6168              		.loc 1 2325 12
 6169 0058 3B68     		ldr	r3, [r7]
 6170 005a 0222     		movs	r2, #2
 6171 005c 1A70     		strb	r2, [r3]
2326:Core/Src/lis2dw12_reg.c ****       break;
 6172              		.loc 1 2326 7
 6173 005e 0FE0     		b	.L350
 6174              	.L346:
2327:Core/Src/lis2dw12_reg.c **** 
2328:Core/Src/lis2dw12_reg.c ****     case LIS2DW12_ZYX:
2329:Core/Src/lis2dw12_reg.c ****       *val = LIS2DW12_ZYX;
 6175              		.loc 1 2329 12
 6176 0060 3B68     		ldr	r3, [r7]
 6177 0062 0322     		movs	r2, #3
 6178 0064 1A70     		strb	r2, [r3]
2330:Core/Src/lis2dw12_reg.c ****       break;
 6179              		.loc 1 2330 7
 6180 0066 0BE0     		b	.L350
 6181              	.L345:
2331:Core/Src/lis2dw12_reg.c **** 
2332:Core/Src/lis2dw12_reg.c ****     case LIS2DW12_YZX:
2333:Core/Src/lis2dw12_reg.c ****       *val = LIS2DW12_YZX;
 6182              		.loc 1 2333 12
 6183 0068 3B68     		ldr	r3, [r7]
 6184 006a 0522     		movs	r2, #5
 6185 006c 1A70     		strb	r2, [r3]
2334:Core/Src/lis2dw12_reg.c ****       break;
 6186              		.loc 1 2334 7
 6187 006e 07E0     		b	.L350
 6188              	.L343:
2335:Core/Src/lis2dw12_reg.c **** 
2336:Core/Src/lis2dw12_reg.c ****     case LIS2DW12_ZXY:
2337:Core/Src/lis2dw12_reg.c ****       *val = LIS2DW12_ZXY;
 6189              		.loc 1 2337 12
 6190 0070 3B68     		ldr	r3, [r7]
 6191 0072 0622     		movs	r2, #6
 6192 0074 1A70     		strb	r2, [r3]
ARM GAS  C:\Users\vct344\AppData\Local\Temp\ccePc7Ac.s 			page 148


2338:Core/Src/lis2dw12_reg.c ****       break;
 6193              		.loc 1 2338 7
 6194 0076 03E0     		b	.L350
 6195              	.L342:
2339:Core/Src/lis2dw12_reg.c **** 
2340:Core/Src/lis2dw12_reg.c ****     default:
2341:Core/Src/lis2dw12_reg.c ****       *val = LIS2DW12_XYZ;
 6196              		.loc 1 2341 12
 6197 0078 3B68     		ldr	r3, [r7]
 6198 007a 0022     		movs	r2, #0
 6199 007c 1A70     		strb	r2, [r3]
2342:Core/Src/lis2dw12_reg.c ****       break;
 6200              		.loc 1 2342 7
 6201 007e 00BF     		nop
 6202              	.L350:
2343:Core/Src/lis2dw12_reg.c ****   }
2344:Core/Src/lis2dw12_reg.c **** 
2345:Core/Src/lis2dw12_reg.c ****   return ret;
 6203              		.loc 1 2345 10
 6204 0080 FB68     		ldr	r3, [r7, #12]
2346:Core/Src/lis2dw12_reg.c **** }
 6205              		.loc 1 2346 1
 6206 0082 1846     		mov	r0, r3
 6207 0084 1037     		adds	r7, r7, #16
 6208              	.LCFI413:
 6209              		.cfi_def_cfa_offset 8
 6210 0086 BD46     		mov	sp, r7
 6211              	.LCFI414:
 6212              		.cfi_def_cfa_register 13
 6213              		@ sp needed
 6214 0088 80BD     		pop	{r7, pc}
 6215              		.cfi_endproc
 6216              	.LFE82:
 6218 008a 00BF     		.section	.text.lis2dw12_tap_threshold_z_set,"ax",%progbits
 6219              		.align	1
 6220              		.global	lis2dw12_tap_threshold_z_set
 6221              		.syntax unified
 6222              		.thumb
 6223              		.thumb_func
 6225              	lis2dw12_tap_threshold_z_set:
 6226              	.LFB83:
2347:Core/Src/lis2dw12_reg.c **** 
2348:Core/Src/lis2dw12_reg.c **** /**
2349:Core/Src/lis2dw12_reg.c ****   * @brief  Threshold for tap recognition.[set]
2350:Core/Src/lis2dw12_reg.c ****   *
2351:Core/Src/lis2dw12_reg.c ****   * @param  ctx      read / write interface definitions
2352:Core/Src/lis2dw12_reg.c ****   * @param  val      change the values of tap_thsz in reg TAP_THS_Z
2353:Core/Src/lis2dw12_reg.c ****   * @retval          interface status (MANDATORY: return 0 -> no Error)
2354:Core/Src/lis2dw12_reg.c ****   *
2355:Core/Src/lis2dw12_reg.c ****   */
2356:Core/Src/lis2dw12_reg.c **** int32_t lis2dw12_tap_threshold_z_set(const stmdev_ctx_t *ctx, uint8_t val)
2357:Core/Src/lis2dw12_reg.c **** {
 6227              		.loc 1 2357 1
 6228              		.cfi_startproc
 6229              		@ args = 0, pretend = 0, frame = 16
 6230              		@ frame_needed = 1, uses_anonymous_args = 0
 6231 0000 80B5     		push	{r7, lr}
ARM GAS  C:\Users\vct344\AppData\Local\Temp\ccePc7Ac.s 			page 149


 6232              	.LCFI415:
 6233              		.cfi_def_cfa_offset 8
 6234              		.cfi_offset 7, -8
 6235              		.cfi_offset 14, -4
 6236 0002 84B0     		sub	sp, sp, #16
 6237              	.LCFI416:
 6238              		.cfi_def_cfa_offset 24
 6239 0004 00AF     		add	r7, sp, #0
 6240              	.LCFI417:
 6241              		.cfi_def_cfa_register 7
 6242 0006 7860     		str	r0, [r7, #4]
 6243 0008 0B46     		mov	r3, r1
 6244 000a FB70     		strb	r3, [r7, #3]
2358:Core/Src/lis2dw12_reg.c ****   lis2dw12_tap_ths_z_t reg;
2359:Core/Src/lis2dw12_reg.c ****   int32_t ret;
2360:Core/Src/lis2dw12_reg.c **** 
2361:Core/Src/lis2dw12_reg.c ****   ret = lis2dw12_read_reg(ctx, LIS2DW12_TAP_THS_Z, (uint8_t *) &reg, 1);
 6245              		.loc 1 2361 9
 6246 000c 07F10802 		add	r2, r7, #8
 6247 0010 0123     		movs	r3, #1
 6248 0012 3221     		movs	r1, #50
 6249 0014 7868     		ldr	r0, [r7, #4]
 6250 0016 FFF7FEFF 		bl	lis2dw12_read_reg
 6251 001a F860     		str	r0, [r7, #12]
2362:Core/Src/lis2dw12_reg.c **** 
2363:Core/Src/lis2dw12_reg.c ****   if (ret == 0)
 6252              		.loc 1 2363 6
 6253 001c FB68     		ldr	r3, [r7, #12]
 6254 001e 002B     		cmp	r3, #0
 6255 0020 0FD1     		bne	.L353
2364:Core/Src/lis2dw12_reg.c ****   {
2365:Core/Src/lis2dw12_reg.c ****     reg.tap_thsz = val;
 6256              		.loc 1 2365 18
 6257 0022 FB78     		ldrb	r3, [r7, #3]
 6258 0024 03F01F03 		and	r3, r3, #31
 6259 0028 DAB2     		uxtb	r2, r3
 6260 002a 3B7A     		ldrb	r3, [r7, #8]
 6261 002c 62F30403 		bfi	r3, r2, #0, #5
 6262 0030 3B72     		strb	r3, [r7, #8]
2366:Core/Src/lis2dw12_reg.c ****     ret = lis2dw12_write_reg(ctx, LIS2DW12_TAP_THS_Z, (uint8_t *) &reg, 1);
 6263              		.loc 1 2366 11
 6264 0032 07F10802 		add	r2, r7, #8
 6265 0036 0123     		movs	r3, #1
 6266 0038 3221     		movs	r1, #50
 6267 003a 7868     		ldr	r0, [r7, #4]
 6268 003c FFF7FEFF 		bl	lis2dw12_write_reg
 6269 0040 F860     		str	r0, [r7, #12]
 6270              	.L353:
2367:Core/Src/lis2dw12_reg.c ****   }
2368:Core/Src/lis2dw12_reg.c **** 
2369:Core/Src/lis2dw12_reg.c ****   return ret;
 6271              		.loc 1 2369 10
 6272 0042 FB68     		ldr	r3, [r7, #12]
2370:Core/Src/lis2dw12_reg.c **** }
 6273              		.loc 1 2370 1
 6274 0044 1846     		mov	r0, r3
 6275 0046 1037     		adds	r7, r7, #16
ARM GAS  C:\Users\vct344\AppData\Local\Temp\ccePc7Ac.s 			page 150


 6276              	.LCFI418:
 6277              		.cfi_def_cfa_offset 8
 6278 0048 BD46     		mov	sp, r7
 6279              	.LCFI419:
 6280              		.cfi_def_cfa_register 13
 6281              		@ sp needed
 6282 004a 80BD     		pop	{r7, pc}
 6283              		.cfi_endproc
 6284              	.LFE83:
 6286              		.section	.text.lis2dw12_tap_threshold_z_get,"ax",%progbits
 6287              		.align	1
 6288              		.global	lis2dw12_tap_threshold_z_get
 6289              		.syntax unified
 6290              		.thumb
 6291              		.thumb_func
 6293              	lis2dw12_tap_threshold_z_get:
 6294              	.LFB84:
2371:Core/Src/lis2dw12_reg.c **** 
2372:Core/Src/lis2dw12_reg.c **** /**
2373:Core/Src/lis2dw12_reg.c ****   * @brief  Threshold for tap recognition.[get]
2374:Core/Src/lis2dw12_reg.c ****   *
2375:Core/Src/lis2dw12_reg.c ****   * @param  ctx      read / write interface definitions
2376:Core/Src/lis2dw12_reg.c ****   * @param  val      change the values of tap_thsz in reg TAP_THS_Z
2377:Core/Src/lis2dw12_reg.c ****   * @retval          interface status (MANDATORY: return 0 -> no Error)
2378:Core/Src/lis2dw12_reg.c ****   *
2379:Core/Src/lis2dw12_reg.c ****   */
2380:Core/Src/lis2dw12_reg.c **** int32_t lis2dw12_tap_threshold_z_get(const stmdev_ctx_t *ctx, uint8_t *val)
2381:Core/Src/lis2dw12_reg.c **** {
 6295              		.loc 1 2381 1
 6296              		.cfi_startproc
 6297              		@ args = 0, pretend = 0, frame = 16
 6298              		@ frame_needed = 1, uses_anonymous_args = 0
 6299 0000 80B5     		push	{r7, lr}
 6300              	.LCFI420:
 6301              		.cfi_def_cfa_offset 8
 6302              		.cfi_offset 7, -8
 6303              		.cfi_offset 14, -4
 6304 0002 84B0     		sub	sp, sp, #16
 6305              	.LCFI421:
 6306              		.cfi_def_cfa_offset 24
 6307 0004 00AF     		add	r7, sp, #0
 6308              	.LCFI422:
 6309              		.cfi_def_cfa_register 7
 6310 0006 7860     		str	r0, [r7, #4]
 6311 0008 3960     		str	r1, [r7]
2382:Core/Src/lis2dw12_reg.c ****   lis2dw12_tap_ths_z_t reg;
2383:Core/Src/lis2dw12_reg.c ****   int32_t ret;
2384:Core/Src/lis2dw12_reg.c **** 
2385:Core/Src/lis2dw12_reg.c ****   ret = lis2dw12_read_reg(ctx, LIS2DW12_TAP_THS_Z, (uint8_t *) &reg, 1);
 6312              		.loc 1 2385 9
 6313 000a 07F10802 		add	r2, r7, #8
 6314 000e 0123     		movs	r3, #1
 6315 0010 3221     		movs	r1, #50
 6316 0012 7868     		ldr	r0, [r7, #4]
 6317 0014 FFF7FEFF 		bl	lis2dw12_read_reg
 6318 0018 F860     		str	r0, [r7, #12]
2386:Core/Src/lis2dw12_reg.c ****   *val = reg.tap_thsz;
ARM GAS  C:\Users\vct344\AppData\Local\Temp\ccePc7Ac.s 			page 151


 6319              		.loc 1 2386 13
 6320 001a 3B7A     		ldrb	r3, [r7, #8]
 6321 001c C3F30403 		ubfx	r3, r3, #0, #5
 6322 0020 DBB2     		uxtb	r3, r3
 6323 0022 1A46     		mov	r2, r3
 6324              		.loc 1 2386 8
 6325 0024 3B68     		ldr	r3, [r7]
 6326 0026 1A70     		strb	r2, [r3]
2387:Core/Src/lis2dw12_reg.c **** 
2388:Core/Src/lis2dw12_reg.c ****   return ret;
 6327              		.loc 1 2388 10
 6328 0028 FB68     		ldr	r3, [r7, #12]
2389:Core/Src/lis2dw12_reg.c **** }
 6329              		.loc 1 2389 1
 6330 002a 1846     		mov	r0, r3
 6331 002c 1037     		adds	r7, r7, #16
 6332              	.LCFI423:
 6333              		.cfi_def_cfa_offset 8
 6334 002e BD46     		mov	sp, r7
 6335              	.LCFI424:
 6336              		.cfi_def_cfa_register 13
 6337              		@ sp needed
 6338 0030 80BD     		pop	{r7, pc}
 6339              		.cfi_endproc
 6340              	.LFE84:
 6342              		.section	.text.lis2dw12_tap_detection_on_z_set,"ax",%progbits
 6343              		.align	1
 6344              		.global	lis2dw12_tap_detection_on_z_set
 6345              		.syntax unified
 6346              		.thumb
 6347              		.thumb_func
 6349              	lis2dw12_tap_detection_on_z_set:
 6350              	.LFB85:
2390:Core/Src/lis2dw12_reg.c **** 
2391:Core/Src/lis2dw12_reg.c **** /**
2392:Core/Src/lis2dw12_reg.c ****   * @brief  Enable Z direction in tap recognition.[set]
2393:Core/Src/lis2dw12_reg.c ****   *
2394:Core/Src/lis2dw12_reg.c ****   * @param  ctx      read / write interface definitions
2395:Core/Src/lis2dw12_reg.c ****   * @param  val      change the values of tap_z_en in reg TAP_THS_Z
2396:Core/Src/lis2dw12_reg.c ****   * @retval          interface status (MANDATORY: return 0 -> no Error)
2397:Core/Src/lis2dw12_reg.c ****   *
2398:Core/Src/lis2dw12_reg.c ****   */
2399:Core/Src/lis2dw12_reg.c **** int32_t lis2dw12_tap_detection_on_z_set(const stmdev_ctx_t *ctx,
2400:Core/Src/lis2dw12_reg.c ****                                         uint8_t val)
2401:Core/Src/lis2dw12_reg.c **** {
 6351              		.loc 1 2401 1
 6352              		.cfi_startproc
 6353              		@ args = 0, pretend = 0, frame = 16
 6354              		@ frame_needed = 1, uses_anonymous_args = 0
 6355 0000 80B5     		push	{r7, lr}
 6356              	.LCFI425:
 6357              		.cfi_def_cfa_offset 8
 6358              		.cfi_offset 7, -8
 6359              		.cfi_offset 14, -4
 6360 0002 84B0     		sub	sp, sp, #16
 6361              	.LCFI426:
 6362              		.cfi_def_cfa_offset 24
ARM GAS  C:\Users\vct344\AppData\Local\Temp\ccePc7Ac.s 			page 152


 6363 0004 00AF     		add	r7, sp, #0
 6364              	.LCFI427:
 6365              		.cfi_def_cfa_register 7
 6366 0006 7860     		str	r0, [r7, #4]
 6367 0008 0B46     		mov	r3, r1
 6368 000a FB70     		strb	r3, [r7, #3]
2402:Core/Src/lis2dw12_reg.c ****   lis2dw12_tap_ths_z_t reg;
2403:Core/Src/lis2dw12_reg.c ****   int32_t ret;
2404:Core/Src/lis2dw12_reg.c **** 
2405:Core/Src/lis2dw12_reg.c ****   ret = lis2dw12_read_reg(ctx, LIS2DW12_TAP_THS_Z, (uint8_t *) &reg, 1);
 6369              		.loc 1 2405 9
 6370 000c 07F10802 		add	r2, r7, #8
 6371 0010 0123     		movs	r3, #1
 6372 0012 3221     		movs	r1, #50
 6373 0014 7868     		ldr	r0, [r7, #4]
 6374 0016 FFF7FEFF 		bl	lis2dw12_read_reg
 6375 001a F860     		str	r0, [r7, #12]
2406:Core/Src/lis2dw12_reg.c **** 
2407:Core/Src/lis2dw12_reg.c ****   if (ret == 0)
 6376              		.loc 1 2407 6
 6377 001c FB68     		ldr	r3, [r7, #12]
 6378 001e 002B     		cmp	r3, #0
 6379 0020 0FD1     		bne	.L358
2408:Core/Src/lis2dw12_reg.c ****   {
2409:Core/Src/lis2dw12_reg.c ****     reg.tap_z_en = val;
 6380              		.loc 1 2409 18
 6381 0022 FB78     		ldrb	r3, [r7, #3]
 6382 0024 03F00103 		and	r3, r3, #1
 6383 0028 DAB2     		uxtb	r2, r3
 6384 002a 3B7A     		ldrb	r3, [r7, #8]
 6385 002c 62F34513 		bfi	r3, r2, #5, #1
 6386 0030 3B72     		strb	r3, [r7, #8]
2410:Core/Src/lis2dw12_reg.c ****     ret = lis2dw12_write_reg(ctx, LIS2DW12_TAP_THS_Z, (uint8_t *) &reg, 1);
 6387              		.loc 1 2410 11
 6388 0032 07F10802 		add	r2, r7, #8
 6389 0036 0123     		movs	r3, #1
 6390 0038 3221     		movs	r1, #50
 6391 003a 7868     		ldr	r0, [r7, #4]
 6392 003c FFF7FEFF 		bl	lis2dw12_write_reg
 6393 0040 F860     		str	r0, [r7, #12]
 6394              	.L358:
2411:Core/Src/lis2dw12_reg.c ****   }
2412:Core/Src/lis2dw12_reg.c **** 
2413:Core/Src/lis2dw12_reg.c ****   return ret;
 6395              		.loc 1 2413 10
 6396 0042 FB68     		ldr	r3, [r7, #12]
2414:Core/Src/lis2dw12_reg.c **** }
 6397              		.loc 1 2414 1
 6398 0044 1846     		mov	r0, r3
 6399 0046 1037     		adds	r7, r7, #16
 6400              	.LCFI428:
 6401              		.cfi_def_cfa_offset 8
 6402 0048 BD46     		mov	sp, r7
 6403              	.LCFI429:
 6404              		.cfi_def_cfa_register 13
 6405              		@ sp needed
 6406 004a 80BD     		pop	{r7, pc}
ARM GAS  C:\Users\vct344\AppData\Local\Temp\ccePc7Ac.s 			page 153


 6407              		.cfi_endproc
 6408              	.LFE85:
 6410              		.section	.text.lis2dw12_tap_detection_on_z_get,"ax",%progbits
 6411              		.align	1
 6412              		.global	lis2dw12_tap_detection_on_z_get
 6413              		.syntax unified
 6414              		.thumb
 6415              		.thumb_func
 6417              	lis2dw12_tap_detection_on_z_get:
 6418              	.LFB86:
2415:Core/Src/lis2dw12_reg.c **** 
2416:Core/Src/lis2dw12_reg.c **** /**
2417:Core/Src/lis2dw12_reg.c ****   * @brief  Enable Z direction in tap recognition.[get]
2418:Core/Src/lis2dw12_reg.c ****   *
2419:Core/Src/lis2dw12_reg.c ****   * @param  ctx      read / write interface definitions
2420:Core/Src/lis2dw12_reg.c ****   * @param  val      change the values of tap_z_en in reg TAP_THS_Z
2421:Core/Src/lis2dw12_reg.c ****   * @retval          interface status (MANDATORY: return 0 -> no Error)
2422:Core/Src/lis2dw12_reg.c ****   *
2423:Core/Src/lis2dw12_reg.c ****   */
2424:Core/Src/lis2dw12_reg.c **** int32_t lis2dw12_tap_detection_on_z_get(const stmdev_ctx_t *ctx,
2425:Core/Src/lis2dw12_reg.c ****                                         uint8_t *val)
2426:Core/Src/lis2dw12_reg.c **** {
 6419              		.loc 1 2426 1
 6420              		.cfi_startproc
 6421              		@ args = 0, pretend = 0, frame = 16
 6422              		@ frame_needed = 1, uses_anonymous_args = 0
 6423 0000 80B5     		push	{r7, lr}
 6424              	.LCFI430:
 6425              		.cfi_def_cfa_offset 8
 6426              		.cfi_offset 7, -8
 6427              		.cfi_offset 14, -4
 6428 0002 84B0     		sub	sp, sp, #16
 6429              	.LCFI431:
 6430              		.cfi_def_cfa_offset 24
 6431 0004 00AF     		add	r7, sp, #0
 6432              	.LCFI432:
 6433              		.cfi_def_cfa_register 7
 6434 0006 7860     		str	r0, [r7, #4]
 6435 0008 3960     		str	r1, [r7]
2427:Core/Src/lis2dw12_reg.c ****   lis2dw12_tap_ths_z_t reg;
2428:Core/Src/lis2dw12_reg.c ****   int32_t ret;
2429:Core/Src/lis2dw12_reg.c **** 
2430:Core/Src/lis2dw12_reg.c ****   ret = lis2dw12_read_reg(ctx, LIS2DW12_TAP_THS_Z, (uint8_t *) &reg, 1);
 6436              		.loc 1 2430 9
 6437 000a 07F10802 		add	r2, r7, #8
 6438 000e 0123     		movs	r3, #1
 6439 0010 3221     		movs	r1, #50
 6440 0012 7868     		ldr	r0, [r7, #4]
 6441 0014 FFF7FEFF 		bl	lis2dw12_read_reg
 6442 0018 F860     		str	r0, [r7, #12]
2431:Core/Src/lis2dw12_reg.c ****   *val = reg.tap_z_en;
 6443              		.loc 1 2431 13
 6444 001a 3B7A     		ldrb	r3, [r7, #8]
 6445 001c C3F34013 		ubfx	r3, r3, #5, #1
 6446 0020 DBB2     		uxtb	r3, r3
 6447 0022 1A46     		mov	r2, r3
 6448              		.loc 1 2431 8
ARM GAS  C:\Users\vct344\AppData\Local\Temp\ccePc7Ac.s 			page 154


 6449 0024 3B68     		ldr	r3, [r7]
 6450 0026 1A70     		strb	r2, [r3]
2432:Core/Src/lis2dw12_reg.c **** 
2433:Core/Src/lis2dw12_reg.c ****   return ret;
 6451              		.loc 1 2433 10
 6452 0028 FB68     		ldr	r3, [r7, #12]
2434:Core/Src/lis2dw12_reg.c **** }
 6453              		.loc 1 2434 1
 6454 002a 1846     		mov	r0, r3
 6455 002c 1037     		adds	r7, r7, #16
 6456              	.LCFI433:
 6457              		.cfi_def_cfa_offset 8
 6458 002e BD46     		mov	sp, r7
 6459              	.LCFI434:
 6460              		.cfi_def_cfa_register 13
 6461              		@ sp needed
 6462 0030 80BD     		pop	{r7, pc}
 6463              		.cfi_endproc
 6464              	.LFE86:
 6466              		.section	.text.lis2dw12_tap_detection_on_y_set,"ax",%progbits
 6467              		.align	1
 6468              		.global	lis2dw12_tap_detection_on_y_set
 6469              		.syntax unified
 6470              		.thumb
 6471              		.thumb_func
 6473              	lis2dw12_tap_detection_on_y_set:
 6474              	.LFB87:
2435:Core/Src/lis2dw12_reg.c **** 
2436:Core/Src/lis2dw12_reg.c **** /**
2437:Core/Src/lis2dw12_reg.c ****   * @brief  Enable Y direction in tap recognition.[set]
2438:Core/Src/lis2dw12_reg.c ****   *
2439:Core/Src/lis2dw12_reg.c ****   * @param  ctx      read / write interface definitions
2440:Core/Src/lis2dw12_reg.c ****   * @param  val      change the values of tap_y_en in reg TAP_THS_Z
2441:Core/Src/lis2dw12_reg.c ****   * @retval          interface status (MANDATORY: return 0 -> no Error)
2442:Core/Src/lis2dw12_reg.c ****   *
2443:Core/Src/lis2dw12_reg.c ****   */
2444:Core/Src/lis2dw12_reg.c **** int32_t lis2dw12_tap_detection_on_y_set(const stmdev_ctx_t *ctx,
2445:Core/Src/lis2dw12_reg.c ****                                         uint8_t val)
2446:Core/Src/lis2dw12_reg.c **** {
 6475              		.loc 1 2446 1
 6476              		.cfi_startproc
 6477              		@ args = 0, pretend = 0, frame = 16
 6478              		@ frame_needed = 1, uses_anonymous_args = 0
 6479 0000 80B5     		push	{r7, lr}
 6480              	.LCFI435:
 6481              		.cfi_def_cfa_offset 8
 6482              		.cfi_offset 7, -8
 6483              		.cfi_offset 14, -4
 6484 0002 84B0     		sub	sp, sp, #16
 6485              	.LCFI436:
 6486              		.cfi_def_cfa_offset 24
 6487 0004 00AF     		add	r7, sp, #0
 6488              	.LCFI437:
 6489              		.cfi_def_cfa_register 7
 6490 0006 7860     		str	r0, [r7, #4]
 6491 0008 0B46     		mov	r3, r1
 6492 000a FB70     		strb	r3, [r7, #3]
ARM GAS  C:\Users\vct344\AppData\Local\Temp\ccePc7Ac.s 			page 155


2447:Core/Src/lis2dw12_reg.c ****   lis2dw12_tap_ths_z_t reg;
2448:Core/Src/lis2dw12_reg.c ****   int32_t ret;
2449:Core/Src/lis2dw12_reg.c **** 
2450:Core/Src/lis2dw12_reg.c ****   ret = lis2dw12_read_reg(ctx, LIS2DW12_TAP_THS_Z, (uint8_t *) &reg, 1);
 6493              		.loc 1 2450 9
 6494 000c 07F10802 		add	r2, r7, #8
 6495 0010 0123     		movs	r3, #1
 6496 0012 3221     		movs	r1, #50
 6497 0014 7868     		ldr	r0, [r7, #4]
 6498 0016 FFF7FEFF 		bl	lis2dw12_read_reg
 6499 001a F860     		str	r0, [r7, #12]
2451:Core/Src/lis2dw12_reg.c **** 
2452:Core/Src/lis2dw12_reg.c ****   if (ret == 0)
 6500              		.loc 1 2452 6
 6501 001c FB68     		ldr	r3, [r7, #12]
 6502 001e 002B     		cmp	r3, #0
 6503 0020 0FD1     		bne	.L363
2453:Core/Src/lis2dw12_reg.c ****   {
2454:Core/Src/lis2dw12_reg.c ****     reg.tap_y_en = val;
 6504              		.loc 1 2454 18
 6505 0022 FB78     		ldrb	r3, [r7, #3]
 6506 0024 03F00103 		and	r3, r3, #1
 6507 0028 DAB2     		uxtb	r2, r3
 6508 002a 3B7A     		ldrb	r3, [r7, #8]
 6509 002c 62F38613 		bfi	r3, r2, #6, #1
 6510 0030 3B72     		strb	r3, [r7, #8]
2455:Core/Src/lis2dw12_reg.c ****     ret = lis2dw12_write_reg(ctx, LIS2DW12_TAP_THS_Z, (uint8_t *) &reg, 1);
 6511              		.loc 1 2455 11
 6512 0032 07F10802 		add	r2, r7, #8
 6513 0036 0123     		movs	r3, #1
 6514 0038 3221     		movs	r1, #50
 6515 003a 7868     		ldr	r0, [r7, #4]
 6516 003c FFF7FEFF 		bl	lis2dw12_write_reg
 6517 0040 F860     		str	r0, [r7, #12]
 6518              	.L363:
2456:Core/Src/lis2dw12_reg.c ****   }
2457:Core/Src/lis2dw12_reg.c **** 
2458:Core/Src/lis2dw12_reg.c ****   return ret;
 6519              		.loc 1 2458 10
 6520 0042 FB68     		ldr	r3, [r7, #12]
2459:Core/Src/lis2dw12_reg.c **** }
 6521              		.loc 1 2459 1
 6522 0044 1846     		mov	r0, r3
 6523 0046 1037     		adds	r7, r7, #16
 6524              	.LCFI438:
 6525              		.cfi_def_cfa_offset 8
 6526 0048 BD46     		mov	sp, r7
 6527              	.LCFI439:
 6528              		.cfi_def_cfa_register 13
 6529              		@ sp needed
 6530 004a 80BD     		pop	{r7, pc}
 6531              		.cfi_endproc
 6532              	.LFE87:
 6534              		.section	.text.lis2dw12_tap_detection_on_y_get,"ax",%progbits
 6535              		.align	1
 6536              		.global	lis2dw12_tap_detection_on_y_get
 6537              		.syntax unified
ARM GAS  C:\Users\vct344\AppData\Local\Temp\ccePc7Ac.s 			page 156


 6538              		.thumb
 6539              		.thumb_func
 6541              	lis2dw12_tap_detection_on_y_get:
 6542              	.LFB88:
2460:Core/Src/lis2dw12_reg.c **** 
2461:Core/Src/lis2dw12_reg.c **** /**
2462:Core/Src/lis2dw12_reg.c ****   * @brief  Enable Y direction in tap recognition.[get]
2463:Core/Src/lis2dw12_reg.c ****   *
2464:Core/Src/lis2dw12_reg.c ****   * @param  ctx      read / write interface definitions
2465:Core/Src/lis2dw12_reg.c ****   * @param  val      change the values of tap_y_en in reg TAP_THS_Z
2466:Core/Src/lis2dw12_reg.c ****   * @retval          interface status (MANDATORY: return 0 -> no Error)
2467:Core/Src/lis2dw12_reg.c ****   *
2468:Core/Src/lis2dw12_reg.c ****   */
2469:Core/Src/lis2dw12_reg.c **** int32_t lis2dw12_tap_detection_on_y_get(const stmdev_ctx_t *ctx,
2470:Core/Src/lis2dw12_reg.c ****                                         uint8_t *val)
2471:Core/Src/lis2dw12_reg.c **** {
 6543              		.loc 1 2471 1
 6544              		.cfi_startproc
 6545              		@ args = 0, pretend = 0, frame = 16
 6546              		@ frame_needed = 1, uses_anonymous_args = 0
 6547 0000 80B5     		push	{r7, lr}
 6548              	.LCFI440:
 6549              		.cfi_def_cfa_offset 8
 6550              		.cfi_offset 7, -8
 6551              		.cfi_offset 14, -4
 6552 0002 84B0     		sub	sp, sp, #16
 6553              	.LCFI441:
 6554              		.cfi_def_cfa_offset 24
 6555 0004 00AF     		add	r7, sp, #0
 6556              	.LCFI442:
 6557              		.cfi_def_cfa_register 7
 6558 0006 7860     		str	r0, [r7, #4]
 6559 0008 3960     		str	r1, [r7]
2472:Core/Src/lis2dw12_reg.c ****   lis2dw12_tap_ths_z_t reg;
2473:Core/Src/lis2dw12_reg.c ****   int32_t ret;
2474:Core/Src/lis2dw12_reg.c **** 
2475:Core/Src/lis2dw12_reg.c ****   ret = lis2dw12_read_reg(ctx, LIS2DW12_TAP_THS_Z, (uint8_t *) &reg, 1);
 6560              		.loc 1 2475 9
 6561 000a 07F10802 		add	r2, r7, #8
 6562 000e 0123     		movs	r3, #1
 6563 0010 3221     		movs	r1, #50
 6564 0012 7868     		ldr	r0, [r7, #4]
 6565 0014 FFF7FEFF 		bl	lis2dw12_read_reg
 6566 0018 F860     		str	r0, [r7, #12]
2476:Core/Src/lis2dw12_reg.c ****   *val = reg.tap_y_en;
 6567              		.loc 1 2476 13
 6568 001a 3B7A     		ldrb	r3, [r7, #8]
 6569 001c C3F38013 		ubfx	r3, r3, #6, #1
 6570 0020 DBB2     		uxtb	r3, r3
 6571 0022 1A46     		mov	r2, r3
 6572              		.loc 1 2476 8
 6573 0024 3B68     		ldr	r3, [r7]
 6574 0026 1A70     		strb	r2, [r3]
2477:Core/Src/lis2dw12_reg.c **** 
2478:Core/Src/lis2dw12_reg.c ****   return ret;
 6575              		.loc 1 2478 10
 6576 0028 FB68     		ldr	r3, [r7, #12]
ARM GAS  C:\Users\vct344\AppData\Local\Temp\ccePc7Ac.s 			page 157


2479:Core/Src/lis2dw12_reg.c **** }
 6577              		.loc 1 2479 1
 6578 002a 1846     		mov	r0, r3
 6579 002c 1037     		adds	r7, r7, #16
 6580              	.LCFI443:
 6581              		.cfi_def_cfa_offset 8
 6582 002e BD46     		mov	sp, r7
 6583              	.LCFI444:
 6584              		.cfi_def_cfa_register 13
 6585              		@ sp needed
 6586 0030 80BD     		pop	{r7, pc}
 6587              		.cfi_endproc
 6588              	.LFE88:
 6590              		.section	.text.lis2dw12_tap_detection_on_x_set,"ax",%progbits
 6591              		.align	1
 6592              		.global	lis2dw12_tap_detection_on_x_set
 6593              		.syntax unified
 6594              		.thumb
 6595              		.thumb_func
 6597              	lis2dw12_tap_detection_on_x_set:
 6598              	.LFB89:
2480:Core/Src/lis2dw12_reg.c **** 
2481:Core/Src/lis2dw12_reg.c **** /**
2482:Core/Src/lis2dw12_reg.c ****   * @brief  Enable X direction in tap recognition.[set]
2483:Core/Src/lis2dw12_reg.c ****   *
2484:Core/Src/lis2dw12_reg.c ****   * @param  ctx      read / write interface definitions
2485:Core/Src/lis2dw12_reg.c ****   * @param  val      change the values of tap_x_en in reg TAP_THS_Z
2486:Core/Src/lis2dw12_reg.c ****   * @retval          interface status (MANDATORY: return 0 -> no Error)
2487:Core/Src/lis2dw12_reg.c ****   *
2488:Core/Src/lis2dw12_reg.c ****   */
2489:Core/Src/lis2dw12_reg.c **** int32_t lis2dw12_tap_detection_on_x_set(const stmdev_ctx_t *ctx,
2490:Core/Src/lis2dw12_reg.c ****                                         uint8_t val)
2491:Core/Src/lis2dw12_reg.c **** {
 6599              		.loc 1 2491 1
 6600              		.cfi_startproc
 6601              		@ args = 0, pretend = 0, frame = 16
 6602              		@ frame_needed = 1, uses_anonymous_args = 0
 6603 0000 80B5     		push	{r7, lr}
 6604              	.LCFI445:
 6605              		.cfi_def_cfa_offset 8
 6606              		.cfi_offset 7, -8
 6607              		.cfi_offset 14, -4
 6608 0002 84B0     		sub	sp, sp, #16
 6609              	.LCFI446:
 6610              		.cfi_def_cfa_offset 24
 6611 0004 00AF     		add	r7, sp, #0
 6612              	.LCFI447:
 6613              		.cfi_def_cfa_register 7
 6614 0006 7860     		str	r0, [r7, #4]
 6615 0008 0B46     		mov	r3, r1
 6616 000a FB70     		strb	r3, [r7, #3]
2492:Core/Src/lis2dw12_reg.c ****   lis2dw12_tap_ths_z_t reg;
2493:Core/Src/lis2dw12_reg.c ****   int32_t ret;
2494:Core/Src/lis2dw12_reg.c **** 
2495:Core/Src/lis2dw12_reg.c ****   ret = lis2dw12_read_reg(ctx, LIS2DW12_TAP_THS_Z, (uint8_t *) &reg, 1);
 6617              		.loc 1 2495 9
 6618 000c 07F10802 		add	r2, r7, #8
ARM GAS  C:\Users\vct344\AppData\Local\Temp\ccePc7Ac.s 			page 158


 6619 0010 0123     		movs	r3, #1
 6620 0012 3221     		movs	r1, #50
 6621 0014 7868     		ldr	r0, [r7, #4]
 6622 0016 FFF7FEFF 		bl	lis2dw12_read_reg
 6623 001a F860     		str	r0, [r7, #12]
2496:Core/Src/lis2dw12_reg.c **** 
2497:Core/Src/lis2dw12_reg.c ****   if (ret == 0)
 6624              		.loc 1 2497 6
 6625 001c FB68     		ldr	r3, [r7, #12]
 6626 001e 002B     		cmp	r3, #0
 6627 0020 0FD1     		bne	.L368
2498:Core/Src/lis2dw12_reg.c ****   {
2499:Core/Src/lis2dw12_reg.c ****     reg.tap_x_en = val;
 6628              		.loc 1 2499 18
 6629 0022 FB78     		ldrb	r3, [r7, #3]
 6630 0024 03F00103 		and	r3, r3, #1
 6631 0028 DAB2     		uxtb	r2, r3
 6632 002a 3B7A     		ldrb	r3, [r7, #8]
 6633 002c 62F3C713 		bfi	r3, r2, #7, #1
 6634 0030 3B72     		strb	r3, [r7, #8]
2500:Core/Src/lis2dw12_reg.c ****     ret = lis2dw12_write_reg(ctx, LIS2DW12_TAP_THS_Z, (uint8_t *) &reg, 1);
 6635              		.loc 1 2500 11
 6636 0032 07F10802 		add	r2, r7, #8
 6637 0036 0123     		movs	r3, #1
 6638 0038 3221     		movs	r1, #50
 6639 003a 7868     		ldr	r0, [r7, #4]
 6640 003c FFF7FEFF 		bl	lis2dw12_write_reg
 6641 0040 F860     		str	r0, [r7, #12]
 6642              	.L368:
2501:Core/Src/lis2dw12_reg.c ****   }
2502:Core/Src/lis2dw12_reg.c **** 
2503:Core/Src/lis2dw12_reg.c ****   return ret;
 6643              		.loc 1 2503 10
 6644 0042 FB68     		ldr	r3, [r7, #12]
2504:Core/Src/lis2dw12_reg.c **** }
 6645              		.loc 1 2504 1
 6646 0044 1846     		mov	r0, r3
 6647 0046 1037     		adds	r7, r7, #16
 6648              	.LCFI448:
 6649              		.cfi_def_cfa_offset 8
 6650 0048 BD46     		mov	sp, r7
 6651              	.LCFI449:
 6652              		.cfi_def_cfa_register 13
 6653              		@ sp needed
 6654 004a 80BD     		pop	{r7, pc}
 6655              		.cfi_endproc
 6656              	.LFE89:
 6658              		.section	.text.lis2dw12_tap_detection_on_x_get,"ax",%progbits
 6659              		.align	1
 6660              		.global	lis2dw12_tap_detection_on_x_get
 6661              		.syntax unified
 6662              		.thumb
 6663              		.thumb_func
 6665              	lis2dw12_tap_detection_on_x_get:
 6666              	.LFB90:
2505:Core/Src/lis2dw12_reg.c **** 
2506:Core/Src/lis2dw12_reg.c **** /**
ARM GAS  C:\Users\vct344\AppData\Local\Temp\ccePc7Ac.s 			page 159


2507:Core/Src/lis2dw12_reg.c ****   * @brief  Enable X direction in tap recognition.[get]
2508:Core/Src/lis2dw12_reg.c ****   *
2509:Core/Src/lis2dw12_reg.c ****   * @param  ctx      read / write interface definitions
2510:Core/Src/lis2dw12_reg.c ****   * @param  val      change the values of tap_x_en in reg TAP_THS_Z
2511:Core/Src/lis2dw12_reg.c ****   * @retval          interface status (MANDATORY: return 0 -> no Error)
2512:Core/Src/lis2dw12_reg.c ****   *
2513:Core/Src/lis2dw12_reg.c ****   */
2514:Core/Src/lis2dw12_reg.c **** int32_t lis2dw12_tap_detection_on_x_get(const stmdev_ctx_t *ctx,
2515:Core/Src/lis2dw12_reg.c ****                                         uint8_t *val)
2516:Core/Src/lis2dw12_reg.c **** {
 6667              		.loc 1 2516 1
 6668              		.cfi_startproc
 6669              		@ args = 0, pretend = 0, frame = 16
 6670              		@ frame_needed = 1, uses_anonymous_args = 0
 6671 0000 80B5     		push	{r7, lr}
 6672              	.LCFI450:
 6673              		.cfi_def_cfa_offset 8
 6674              		.cfi_offset 7, -8
 6675              		.cfi_offset 14, -4
 6676 0002 84B0     		sub	sp, sp, #16
 6677              	.LCFI451:
 6678              		.cfi_def_cfa_offset 24
 6679 0004 00AF     		add	r7, sp, #0
 6680              	.LCFI452:
 6681              		.cfi_def_cfa_register 7
 6682 0006 7860     		str	r0, [r7, #4]
 6683 0008 3960     		str	r1, [r7]
2517:Core/Src/lis2dw12_reg.c ****   lis2dw12_tap_ths_z_t reg;
2518:Core/Src/lis2dw12_reg.c ****   int32_t ret;
2519:Core/Src/lis2dw12_reg.c **** 
2520:Core/Src/lis2dw12_reg.c ****   ret = lis2dw12_read_reg(ctx, LIS2DW12_TAP_THS_Z, (uint8_t *) &reg, 1);
 6684              		.loc 1 2520 9
 6685 000a 07F10802 		add	r2, r7, #8
 6686 000e 0123     		movs	r3, #1
 6687 0010 3221     		movs	r1, #50
 6688 0012 7868     		ldr	r0, [r7, #4]
 6689 0014 FFF7FEFF 		bl	lis2dw12_read_reg
 6690 0018 F860     		str	r0, [r7, #12]
2521:Core/Src/lis2dw12_reg.c ****   *val = reg.tap_x_en;
 6691              		.loc 1 2521 13
 6692 001a 3B7A     		ldrb	r3, [r7, #8]
 6693 001c C3F3C013 		ubfx	r3, r3, #7, #1
 6694 0020 DBB2     		uxtb	r3, r3
 6695 0022 1A46     		mov	r2, r3
 6696              		.loc 1 2521 8
 6697 0024 3B68     		ldr	r3, [r7]
 6698 0026 1A70     		strb	r2, [r3]
2522:Core/Src/lis2dw12_reg.c **** 
2523:Core/Src/lis2dw12_reg.c ****   return ret;
 6699              		.loc 1 2523 10
 6700 0028 FB68     		ldr	r3, [r7, #12]
2524:Core/Src/lis2dw12_reg.c **** }
 6701              		.loc 1 2524 1
 6702 002a 1846     		mov	r0, r3
 6703 002c 1037     		adds	r7, r7, #16
 6704              	.LCFI453:
 6705              		.cfi_def_cfa_offset 8
ARM GAS  C:\Users\vct344\AppData\Local\Temp\ccePc7Ac.s 			page 160


 6706 002e BD46     		mov	sp, r7
 6707              	.LCFI454:
 6708              		.cfi_def_cfa_register 13
 6709              		@ sp needed
 6710 0030 80BD     		pop	{r7, pc}
 6711              		.cfi_endproc
 6712              	.LFE90:
 6714              		.section	.text.lis2dw12_tap_shock_set,"ax",%progbits
 6715              		.align	1
 6716              		.global	lis2dw12_tap_shock_set
 6717              		.syntax unified
 6718              		.thumb
 6719              		.thumb_func
 6721              	lis2dw12_tap_shock_set:
 6722              	.LFB91:
2525:Core/Src/lis2dw12_reg.c **** 
2526:Core/Src/lis2dw12_reg.c **** /**
2527:Core/Src/lis2dw12_reg.c ****   * @brief  Maximum duration is the maximum time of an overthreshold signal
2528:Core/Src/lis2dw12_reg.c ****   *         detection to be recognized as a tap event. The default value
2529:Core/Src/lis2dw12_reg.c ****   *         of these bits is 00b which corresponds to 4*ODR_XL time.
2530:Core/Src/lis2dw12_reg.c ****   *         If the SHOCK[1:0] bits are set to a different value, 1LSB
2531:Core/Src/lis2dw12_reg.c ****   *         corresponds to 8*ODR_XL time.[set]
2532:Core/Src/lis2dw12_reg.c ****   *
2533:Core/Src/lis2dw12_reg.c ****   * @param  ctx      read / write interface definitions
2534:Core/Src/lis2dw12_reg.c ****   * @param  val      change the values of shock in reg INT_DUR
2535:Core/Src/lis2dw12_reg.c ****   * @retval          interface status (MANDATORY: return 0 -> no Error)
2536:Core/Src/lis2dw12_reg.c ****   *
2537:Core/Src/lis2dw12_reg.c ****   */
2538:Core/Src/lis2dw12_reg.c **** int32_t lis2dw12_tap_shock_set(const stmdev_ctx_t *ctx, uint8_t val)
2539:Core/Src/lis2dw12_reg.c **** {
 6723              		.loc 1 2539 1
 6724              		.cfi_startproc
 6725              		@ args = 0, pretend = 0, frame = 16
 6726              		@ frame_needed = 1, uses_anonymous_args = 0
 6727 0000 80B5     		push	{r7, lr}
 6728              	.LCFI455:
 6729              		.cfi_def_cfa_offset 8
 6730              		.cfi_offset 7, -8
 6731              		.cfi_offset 14, -4
 6732 0002 84B0     		sub	sp, sp, #16
 6733              	.LCFI456:
 6734              		.cfi_def_cfa_offset 24
 6735 0004 00AF     		add	r7, sp, #0
 6736              	.LCFI457:
 6737              		.cfi_def_cfa_register 7
 6738 0006 7860     		str	r0, [r7, #4]
 6739 0008 0B46     		mov	r3, r1
 6740 000a FB70     		strb	r3, [r7, #3]
2540:Core/Src/lis2dw12_reg.c ****   lis2dw12_int_dur_t reg;
2541:Core/Src/lis2dw12_reg.c ****   int32_t ret;
2542:Core/Src/lis2dw12_reg.c **** 
2543:Core/Src/lis2dw12_reg.c ****   ret = lis2dw12_read_reg(ctx, LIS2DW12_INT_DUR, (uint8_t *) &reg, 1);
 6741              		.loc 1 2543 9
 6742 000c 07F10802 		add	r2, r7, #8
 6743 0010 0123     		movs	r3, #1
 6744 0012 3321     		movs	r1, #51
 6745 0014 7868     		ldr	r0, [r7, #4]
ARM GAS  C:\Users\vct344\AppData\Local\Temp\ccePc7Ac.s 			page 161


 6746 0016 FFF7FEFF 		bl	lis2dw12_read_reg
 6747 001a F860     		str	r0, [r7, #12]
2544:Core/Src/lis2dw12_reg.c **** 
2545:Core/Src/lis2dw12_reg.c ****   if (ret == 0)
 6748              		.loc 1 2545 6
 6749 001c FB68     		ldr	r3, [r7, #12]
 6750 001e 002B     		cmp	r3, #0
 6751 0020 0FD1     		bne	.L373
2546:Core/Src/lis2dw12_reg.c ****   {
2547:Core/Src/lis2dw12_reg.c ****     reg.shock = val;
 6752              		.loc 1 2547 15
 6753 0022 FB78     		ldrb	r3, [r7, #3]
 6754 0024 03F00303 		and	r3, r3, #3
 6755 0028 DAB2     		uxtb	r2, r3
 6756 002a 3B7A     		ldrb	r3, [r7, #8]
 6757 002c 62F30103 		bfi	r3, r2, #0, #2
 6758 0030 3B72     		strb	r3, [r7, #8]
2548:Core/Src/lis2dw12_reg.c ****     ret = lis2dw12_write_reg(ctx, LIS2DW12_INT_DUR, (uint8_t *) &reg, 1);
 6759              		.loc 1 2548 11
 6760 0032 07F10802 		add	r2, r7, #8
 6761 0036 0123     		movs	r3, #1
 6762 0038 3321     		movs	r1, #51
 6763 003a 7868     		ldr	r0, [r7, #4]
 6764 003c FFF7FEFF 		bl	lis2dw12_write_reg
 6765 0040 F860     		str	r0, [r7, #12]
 6766              	.L373:
2549:Core/Src/lis2dw12_reg.c ****   }
2550:Core/Src/lis2dw12_reg.c **** 
2551:Core/Src/lis2dw12_reg.c ****   return ret;
 6767              		.loc 1 2551 10
 6768 0042 FB68     		ldr	r3, [r7, #12]
2552:Core/Src/lis2dw12_reg.c **** }
 6769              		.loc 1 2552 1
 6770 0044 1846     		mov	r0, r3
 6771 0046 1037     		adds	r7, r7, #16
 6772              	.LCFI458:
 6773              		.cfi_def_cfa_offset 8
 6774 0048 BD46     		mov	sp, r7
 6775              	.LCFI459:
 6776              		.cfi_def_cfa_register 13
 6777              		@ sp needed
 6778 004a 80BD     		pop	{r7, pc}
 6779              		.cfi_endproc
 6780              	.LFE91:
 6782              		.section	.text.lis2dw12_tap_shock_get,"ax",%progbits
 6783              		.align	1
 6784              		.global	lis2dw12_tap_shock_get
 6785              		.syntax unified
 6786              		.thumb
 6787              		.thumb_func
 6789              	lis2dw12_tap_shock_get:
 6790              	.LFB92:
2553:Core/Src/lis2dw12_reg.c **** 
2554:Core/Src/lis2dw12_reg.c **** /**
2555:Core/Src/lis2dw12_reg.c ****   * @brief  Maximum duration is the maximum time of an overthreshold signal
2556:Core/Src/lis2dw12_reg.c ****   *         detection to be recognized as a tap event. The default value
2557:Core/Src/lis2dw12_reg.c ****   *         of these bits is 00b which corresponds to 4*ODR_XL time.
ARM GAS  C:\Users\vct344\AppData\Local\Temp\ccePc7Ac.s 			page 162


2558:Core/Src/lis2dw12_reg.c ****   *         If the SHOCK[1:0] bits are set to a different value, 1LSB
2559:Core/Src/lis2dw12_reg.c ****   *         corresponds to 8*ODR_XL time.[get]
2560:Core/Src/lis2dw12_reg.c ****   *
2561:Core/Src/lis2dw12_reg.c ****   * @param  ctx      read / write interface definitions
2562:Core/Src/lis2dw12_reg.c ****   * @param  val      change the values of shock in reg INT_DUR
2563:Core/Src/lis2dw12_reg.c ****   * @retval          interface status (MANDATORY: return 0 -> no Error)
2564:Core/Src/lis2dw12_reg.c ****   *
2565:Core/Src/lis2dw12_reg.c ****   */
2566:Core/Src/lis2dw12_reg.c **** int32_t lis2dw12_tap_shock_get(const stmdev_ctx_t *ctx, uint8_t *val)
2567:Core/Src/lis2dw12_reg.c **** {
 6791              		.loc 1 2567 1
 6792              		.cfi_startproc
 6793              		@ args = 0, pretend = 0, frame = 16
 6794              		@ frame_needed = 1, uses_anonymous_args = 0
 6795 0000 80B5     		push	{r7, lr}
 6796              	.LCFI460:
 6797              		.cfi_def_cfa_offset 8
 6798              		.cfi_offset 7, -8
 6799              		.cfi_offset 14, -4
 6800 0002 84B0     		sub	sp, sp, #16
 6801              	.LCFI461:
 6802              		.cfi_def_cfa_offset 24
 6803 0004 00AF     		add	r7, sp, #0
 6804              	.LCFI462:
 6805              		.cfi_def_cfa_register 7
 6806 0006 7860     		str	r0, [r7, #4]
 6807 0008 3960     		str	r1, [r7]
2568:Core/Src/lis2dw12_reg.c ****   lis2dw12_int_dur_t reg;
2569:Core/Src/lis2dw12_reg.c ****   int32_t ret;
2570:Core/Src/lis2dw12_reg.c **** 
2571:Core/Src/lis2dw12_reg.c ****   ret = lis2dw12_read_reg(ctx, LIS2DW12_INT_DUR, (uint8_t *) &reg, 1);
 6808              		.loc 1 2571 9
 6809 000a 07F10802 		add	r2, r7, #8
 6810 000e 0123     		movs	r3, #1
 6811 0010 3321     		movs	r1, #51
 6812 0012 7868     		ldr	r0, [r7, #4]
 6813 0014 FFF7FEFF 		bl	lis2dw12_read_reg
 6814 0018 F860     		str	r0, [r7, #12]
2572:Core/Src/lis2dw12_reg.c ****   *val = reg.shock;
 6815              		.loc 1 2572 13
 6816 001a 3B7A     		ldrb	r3, [r7, #8]
 6817 001c C3F30103 		ubfx	r3, r3, #0, #2
 6818 0020 DBB2     		uxtb	r3, r3
 6819 0022 1A46     		mov	r2, r3
 6820              		.loc 1 2572 8
 6821 0024 3B68     		ldr	r3, [r7]
 6822 0026 1A70     		strb	r2, [r3]
2573:Core/Src/lis2dw12_reg.c **** 
2574:Core/Src/lis2dw12_reg.c ****   return ret;
 6823              		.loc 1 2574 10
 6824 0028 FB68     		ldr	r3, [r7, #12]
2575:Core/Src/lis2dw12_reg.c **** }
 6825              		.loc 1 2575 1
 6826 002a 1846     		mov	r0, r3
 6827 002c 1037     		adds	r7, r7, #16
 6828              	.LCFI463:
 6829              		.cfi_def_cfa_offset 8
ARM GAS  C:\Users\vct344\AppData\Local\Temp\ccePc7Ac.s 			page 163


 6830 002e BD46     		mov	sp, r7
 6831              	.LCFI464:
 6832              		.cfi_def_cfa_register 13
 6833              		@ sp needed
 6834 0030 80BD     		pop	{r7, pc}
 6835              		.cfi_endproc
 6836              	.LFE92:
 6838              		.section	.text.lis2dw12_tap_quiet_set,"ax",%progbits
 6839              		.align	1
 6840              		.global	lis2dw12_tap_quiet_set
 6841              		.syntax unified
 6842              		.thumb
 6843              		.thumb_func
 6845              	lis2dw12_tap_quiet_set:
 6846              	.LFB93:
2576:Core/Src/lis2dw12_reg.c **** 
2577:Core/Src/lis2dw12_reg.c **** /**
2578:Core/Src/lis2dw12_reg.c ****   * @brief  Quiet time is the time after the first detected tap in which
2579:Core/Src/lis2dw12_reg.c ****   *         there must not be any overthreshold event.
2580:Core/Src/lis2dw12_reg.c ****   *         The default value of these bits is 00b which corresponds
2581:Core/Src/lis2dw12_reg.c ****   *         to 2*ODR_XL time. If the QUIET[1:0] bits are set to a different
2582:Core/Src/lis2dw12_reg.c ****   *         value, 1LSB corresponds to 4*ODR_XL time.[set]
2583:Core/Src/lis2dw12_reg.c ****   *
2584:Core/Src/lis2dw12_reg.c ****   * @param  ctx      read / write interface definitions
2585:Core/Src/lis2dw12_reg.c ****   * @param  val      change the values of quiet in reg INT_DUR
2586:Core/Src/lis2dw12_reg.c ****   * @retval          interface status (MANDATORY: return 0 -> no Error)
2587:Core/Src/lis2dw12_reg.c ****   *
2588:Core/Src/lis2dw12_reg.c ****   */
2589:Core/Src/lis2dw12_reg.c **** int32_t lis2dw12_tap_quiet_set(const stmdev_ctx_t *ctx, uint8_t val)
2590:Core/Src/lis2dw12_reg.c **** {
 6847              		.loc 1 2590 1
 6848              		.cfi_startproc
 6849              		@ args = 0, pretend = 0, frame = 16
 6850              		@ frame_needed = 1, uses_anonymous_args = 0
 6851 0000 80B5     		push	{r7, lr}
 6852              	.LCFI465:
 6853              		.cfi_def_cfa_offset 8
 6854              		.cfi_offset 7, -8
 6855              		.cfi_offset 14, -4
 6856 0002 84B0     		sub	sp, sp, #16
 6857              	.LCFI466:
 6858              		.cfi_def_cfa_offset 24
 6859 0004 00AF     		add	r7, sp, #0
 6860              	.LCFI467:
 6861              		.cfi_def_cfa_register 7
 6862 0006 7860     		str	r0, [r7, #4]
 6863 0008 0B46     		mov	r3, r1
 6864 000a FB70     		strb	r3, [r7, #3]
2591:Core/Src/lis2dw12_reg.c ****   lis2dw12_int_dur_t reg;
2592:Core/Src/lis2dw12_reg.c ****   int32_t ret;
2593:Core/Src/lis2dw12_reg.c **** 
2594:Core/Src/lis2dw12_reg.c ****   ret = lis2dw12_read_reg(ctx, LIS2DW12_INT_DUR, (uint8_t *) &reg, 1);
 6865              		.loc 1 2594 9
 6866 000c 07F10802 		add	r2, r7, #8
 6867 0010 0123     		movs	r3, #1
 6868 0012 3321     		movs	r1, #51
 6869 0014 7868     		ldr	r0, [r7, #4]
ARM GAS  C:\Users\vct344\AppData\Local\Temp\ccePc7Ac.s 			page 164


 6870 0016 FFF7FEFF 		bl	lis2dw12_read_reg
 6871 001a F860     		str	r0, [r7, #12]
2595:Core/Src/lis2dw12_reg.c **** 
2596:Core/Src/lis2dw12_reg.c ****   if (ret == 0)
 6872              		.loc 1 2596 6
 6873 001c FB68     		ldr	r3, [r7, #12]
 6874 001e 002B     		cmp	r3, #0
 6875 0020 0FD1     		bne	.L378
2597:Core/Src/lis2dw12_reg.c ****   {
2598:Core/Src/lis2dw12_reg.c ****     reg.quiet = val;
 6876              		.loc 1 2598 15
 6877 0022 FB78     		ldrb	r3, [r7, #3]
 6878 0024 03F00303 		and	r3, r3, #3
 6879 0028 DAB2     		uxtb	r2, r3
 6880 002a 3B7A     		ldrb	r3, [r7, #8]
 6881 002c 62F38303 		bfi	r3, r2, #2, #2
 6882 0030 3B72     		strb	r3, [r7, #8]
2599:Core/Src/lis2dw12_reg.c ****     ret = lis2dw12_write_reg(ctx, LIS2DW12_INT_DUR, (uint8_t *) &reg, 1);
 6883              		.loc 1 2599 11
 6884 0032 07F10802 		add	r2, r7, #8
 6885 0036 0123     		movs	r3, #1
 6886 0038 3321     		movs	r1, #51
 6887 003a 7868     		ldr	r0, [r7, #4]
 6888 003c FFF7FEFF 		bl	lis2dw12_write_reg
 6889 0040 F860     		str	r0, [r7, #12]
 6890              	.L378:
2600:Core/Src/lis2dw12_reg.c ****   }
2601:Core/Src/lis2dw12_reg.c **** 
2602:Core/Src/lis2dw12_reg.c ****   return ret;
 6891              		.loc 1 2602 10
 6892 0042 FB68     		ldr	r3, [r7, #12]
2603:Core/Src/lis2dw12_reg.c **** }
 6893              		.loc 1 2603 1
 6894 0044 1846     		mov	r0, r3
 6895 0046 1037     		adds	r7, r7, #16
 6896              	.LCFI468:
 6897              		.cfi_def_cfa_offset 8
 6898 0048 BD46     		mov	sp, r7
 6899              	.LCFI469:
 6900              		.cfi_def_cfa_register 13
 6901              		@ sp needed
 6902 004a 80BD     		pop	{r7, pc}
 6903              		.cfi_endproc
 6904              	.LFE93:
 6906              		.section	.text.lis2dw12_tap_quiet_get,"ax",%progbits
 6907              		.align	1
 6908              		.global	lis2dw12_tap_quiet_get
 6909              		.syntax unified
 6910              		.thumb
 6911              		.thumb_func
 6913              	lis2dw12_tap_quiet_get:
 6914              	.LFB94:
2604:Core/Src/lis2dw12_reg.c **** 
2605:Core/Src/lis2dw12_reg.c **** /**
2606:Core/Src/lis2dw12_reg.c ****   * @brief  Quiet time is the time after the first detected tap in which
2607:Core/Src/lis2dw12_reg.c ****   *         there must not be any overthreshold event.
2608:Core/Src/lis2dw12_reg.c ****   *         The default value of these bits is 00b which corresponds
ARM GAS  C:\Users\vct344\AppData\Local\Temp\ccePc7Ac.s 			page 165


2609:Core/Src/lis2dw12_reg.c ****   *         to 2*ODR_XL time. If the QUIET[1:0] bits are set to a different
2610:Core/Src/lis2dw12_reg.c ****   *         value, 1LSB corresponds to 4*ODR_XL time.[get]
2611:Core/Src/lis2dw12_reg.c ****   *
2612:Core/Src/lis2dw12_reg.c ****   * @param  ctx      read / write interface definitions
2613:Core/Src/lis2dw12_reg.c ****   * @param  val      change the values of quiet in reg INT_DUR
2614:Core/Src/lis2dw12_reg.c ****   * @retval          interface status (MANDATORY: return 0 -> no Error)
2615:Core/Src/lis2dw12_reg.c ****   *
2616:Core/Src/lis2dw12_reg.c ****   */
2617:Core/Src/lis2dw12_reg.c **** int32_t lis2dw12_tap_quiet_get(const stmdev_ctx_t *ctx, uint8_t *val)
2618:Core/Src/lis2dw12_reg.c **** {
 6915              		.loc 1 2618 1
 6916              		.cfi_startproc
 6917              		@ args = 0, pretend = 0, frame = 16
 6918              		@ frame_needed = 1, uses_anonymous_args = 0
 6919 0000 80B5     		push	{r7, lr}
 6920              	.LCFI470:
 6921              		.cfi_def_cfa_offset 8
 6922              		.cfi_offset 7, -8
 6923              		.cfi_offset 14, -4
 6924 0002 84B0     		sub	sp, sp, #16
 6925              	.LCFI471:
 6926              		.cfi_def_cfa_offset 24
 6927 0004 00AF     		add	r7, sp, #0
 6928              	.LCFI472:
 6929              		.cfi_def_cfa_register 7
 6930 0006 7860     		str	r0, [r7, #4]
 6931 0008 3960     		str	r1, [r7]
2619:Core/Src/lis2dw12_reg.c ****   lis2dw12_int_dur_t reg;
2620:Core/Src/lis2dw12_reg.c ****   int32_t ret;
2621:Core/Src/lis2dw12_reg.c **** 
2622:Core/Src/lis2dw12_reg.c ****   ret = lis2dw12_read_reg(ctx, LIS2DW12_INT_DUR, (uint8_t *) &reg, 1);
 6932              		.loc 1 2622 9
 6933 000a 07F10802 		add	r2, r7, #8
 6934 000e 0123     		movs	r3, #1
 6935 0010 3321     		movs	r1, #51
 6936 0012 7868     		ldr	r0, [r7, #4]
 6937 0014 FFF7FEFF 		bl	lis2dw12_read_reg
 6938 0018 F860     		str	r0, [r7, #12]
2623:Core/Src/lis2dw12_reg.c ****   *val = reg.quiet;
 6939              		.loc 1 2623 13
 6940 001a 3B7A     		ldrb	r3, [r7, #8]
 6941 001c C3F38103 		ubfx	r3, r3, #2, #2
 6942 0020 DBB2     		uxtb	r3, r3
 6943 0022 1A46     		mov	r2, r3
 6944              		.loc 1 2623 8
 6945 0024 3B68     		ldr	r3, [r7]
 6946 0026 1A70     		strb	r2, [r3]
2624:Core/Src/lis2dw12_reg.c **** 
2625:Core/Src/lis2dw12_reg.c ****   return ret;
 6947              		.loc 1 2625 10
 6948 0028 FB68     		ldr	r3, [r7, #12]
2626:Core/Src/lis2dw12_reg.c **** }
 6949              		.loc 1 2626 1
 6950 002a 1846     		mov	r0, r3
 6951 002c 1037     		adds	r7, r7, #16
 6952              	.LCFI473:
 6953              		.cfi_def_cfa_offset 8
ARM GAS  C:\Users\vct344\AppData\Local\Temp\ccePc7Ac.s 			page 166


 6954 002e BD46     		mov	sp, r7
 6955              	.LCFI474:
 6956              		.cfi_def_cfa_register 13
 6957              		@ sp needed
 6958 0030 80BD     		pop	{r7, pc}
 6959              		.cfi_endproc
 6960              	.LFE94:
 6962              		.section	.text.lis2dw12_tap_dur_set,"ax",%progbits
 6963              		.align	1
 6964              		.global	lis2dw12_tap_dur_set
 6965              		.syntax unified
 6966              		.thumb
 6967              		.thumb_func
 6969              	lis2dw12_tap_dur_set:
 6970              	.LFB95:
2627:Core/Src/lis2dw12_reg.c **** 
2628:Core/Src/lis2dw12_reg.c **** /**
2629:Core/Src/lis2dw12_reg.c ****   * @brief  When double tap recognition is enabled, this register expresses
2630:Core/Src/lis2dw12_reg.c ****   *         the maximum time between two consecutive detected taps to
2631:Core/Src/lis2dw12_reg.c ****   *         determine a double tap event.
2632:Core/Src/lis2dw12_reg.c ****   *         The default value of these bits is 0000b which corresponds
2633:Core/Src/lis2dw12_reg.c ****   *         to 16*ODR_XL time. If the DUR[3:0] bits are set to a different
2634:Core/Src/lis2dw12_reg.c ****   *         value, 1LSB corresponds to 32*ODR_XL time.[set]
2635:Core/Src/lis2dw12_reg.c ****   *
2636:Core/Src/lis2dw12_reg.c ****   * @param  ctx      read / write interface definitions
2637:Core/Src/lis2dw12_reg.c ****   * @param  val      change the values of latency in reg INT_DUR
2638:Core/Src/lis2dw12_reg.c ****   * @retval          interface status (MANDATORY: return 0 -> no Error)
2639:Core/Src/lis2dw12_reg.c ****   *
2640:Core/Src/lis2dw12_reg.c ****   */
2641:Core/Src/lis2dw12_reg.c **** int32_t lis2dw12_tap_dur_set(const stmdev_ctx_t *ctx, uint8_t val)
2642:Core/Src/lis2dw12_reg.c **** {
 6971              		.loc 1 2642 1
 6972              		.cfi_startproc
 6973              		@ args = 0, pretend = 0, frame = 16
 6974              		@ frame_needed = 1, uses_anonymous_args = 0
 6975 0000 80B5     		push	{r7, lr}
 6976              	.LCFI475:
 6977              		.cfi_def_cfa_offset 8
 6978              		.cfi_offset 7, -8
 6979              		.cfi_offset 14, -4
 6980 0002 84B0     		sub	sp, sp, #16
 6981              	.LCFI476:
 6982              		.cfi_def_cfa_offset 24
 6983 0004 00AF     		add	r7, sp, #0
 6984              	.LCFI477:
 6985              		.cfi_def_cfa_register 7
 6986 0006 7860     		str	r0, [r7, #4]
 6987 0008 0B46     		mov	r3, r1
 6988 000a FB70     		strb	r3, [r7, #3]
2643:Core/Src/lis2dw12_reg.c ****   lis2dw12_int_dur_t reg;
2644:Core/Src/lis2dw12_reg.c ****   int32_t ret;
2645:Core/Src/lis2dw12_reg.c **** 
2646:Core/Src/lis2dw12_reg.c ****   ret = lis2dw12_read_reg(ctx, LIS2DW12_INT_DUR, (uint8_t *) &reg, 1);
 6989              		.loc 1 2646 9
 6990 000c 07F10802 		add	r2, r7, #8
 6991 0010 0123     		movs	r3, #1
 6992 0012 3321     		movs	r1, #51
ARM GAS  C:\Users\vct344\AppData\Local\Temp\ccePc7Ac.s 			page 167


 6993 0014 7868     		ldr	r0, [r7, #4]
 6994 0016 FFF7FEFF 		bl	lis2dw12_read_reg
 6995 001a F860     		str	r0, [r7, #12]
2647:Core/Src/lis2dw12_reg.c **** 
2648:Core/Src/lis2dw12_reg.c ****   if (ret == 0)
 6996              		.loc 1 2648 6
 6997 001c FB68     		ldr	r3, [r7, #12]
 6998 001e 002B     		cmp	r3, #0
 6999 0020 0FD1     		bne	.L383
2649:Core/Src/lis2dw12_reg.c ****   {
2650:Core/Src/lis2dw12_reg.c ****     reg.latency = val;
 7000              		.loc 1 2650 17
 7001 0022 FB78     		ldrb	r3, [r7, #3]
 7002 0024 03F00F03 		and	r3, r3, #15
 7003 0028 DAB2     		uxtb	r2, r3
 7004 002a 3B7A     		ldrb	r3, [r7, #8]
 7005 002c 62F30713 		bfi	r3, r2, #4, #4
 7006 0030 3B72     		strb	r3, [r7, #8]
2651:Core/Src/lis2dw12_reg.c ****     ret = lis2dw12_write_reg(ctx, LIS2DW12_INT_DUR, (uint8_t *) &reg, 1);
 7007              		.loc 1 2651 11
 7008 0032 07F10802 		add	r2, r7, #8
 7009 0036 0123     		movs	r3, #1
 7010 0038 3321     		movs	r1, #51
 7011 003a 7868     		ldr	r0, [r7, #4]
 7012 003c FFF7FEFF 		bl	lis2dw12_write_reg
 7013 0040 F860     		str	r0, [r7, #12]
 7014              	.L383:
2652:Core/Src/lis2dw12_reg.c ****   }
2653:Core/Src/lis2dw12_reg.c **** 
2654:Core/Src/lis2dw12_reg.c ****   return ret;
 7015              		.loc 1 2654 10
 7016 0042 FB68     		ldr	r3, [r7, #12]
2655:Core/Src/lis2dw12_reg.c **** }
 7017              		.loc 1 2655 1
 7018 0044 1846     		mov	r0, r3
 7019 0046 1037     		adds	r7, r7, #16
 7020              	.LCFI478:
 7021              		.cfi_def_cfa_offset 8
 7022 0048 BD46     		mov	sp, r7
 7023              	.LCFI479:
 7024              		.cfi_def_cfa_register 13
 7025              		@ sp needed
 7026 004a 80BD     		pop	{r7, pc}
 7027              		.cfi_endproc
 7028              	.LFE95:
 7030              		.section	.text.lis2dw12_tap_dur_get,"ax",%progbits
 7031              		.align	1
 7032              		.global	lis2dw12_tap_dur_get
 7033              		.syntax unified
 7034              		.thumb
 7035              		.thumb_func
 7037              	lis2dw12_tap_dur_get:
 7038              	.LFB96:
2656:Core/Src/lis2dw12_reg.c **** 
2657:Core/Src/lis2dw12_reg.c **** /**
2658:Core/Src/lis2dw12_reg.c ****   * @brief  When double tap recognition is enabled, this register expresses
2659:Core/Src/lis2dw12_reg.c ****   *         the maximum time between two consecutive detected taps to
ARM GAS  C:\Users\vct344\AppData\Local\Temp\ccePc7Ac.s 			page 168


2660:Core/Src/lis2dw12_reg.c ****   *         determine a double tap event.
2661:Core/Src/lis2dw12_reg.c ****   *         The default value of these bits is 0000b which corresponds
2662:Core/Src/lis2dw12_reg.c ****   *         to 16*ODR_XL time. If the DUR[3:0] bits are set to a different
2663:Core/Src/lis2dw12_reg.c ****   *         value, 1LSB corresponds to 32*ODR_XL time.[get]
2664:Core/Src/lis2dw12_reg.c ****   *
2665:Core/Src/lis2dw12_reg.c ****   * @param  ctx      read / write interface definitions
2666:Core/Src/lis2dw12_reg.c ****   * @param  val      change the values of latency in reg INT_DUR
2667:Core/Src/lis2dw12_reg.c ****   * @retval          interface status (MANDATORY: return 0 -> no Error)
2668:Core/Src/lis2dw12_reg.c ****   *
2669:Core/Src/lis2dw12_reg.c ****   */
2670:Core/Src/lis2dw12_reg.c **** int32_t lis2dw12_tap_dur_get(const stmdev_ctx_t *ctx, uint8_t *val)
2671:Core/Src/lis2dw12_reg.c **** {
 7039              		.loc 1 2671 1
 7040              		.cfi_startproc
 7041              		@ args = 0, pretend = 0, frame = 16
 7042              		@ frame_needed = 1, uses_anonymous_args = 0
 7043 0000 80B5     		push	{r7, lr}
 7044              	.LCFI480:
 7045              		.cfi_def_cfa_offset 8
 7046              		.cfi_offset 7, -8
 7047              		.cfi_offset 14, -4
 7048 0002 84B0     		sub	sp, sp, #16
 7049              	.LCFI481:
 7050              		.cfi_def_cfa_offset 24
 7051 0004 00AF     		add	r7, sp, #0
 7052              	.LCFI482:
 7053              		.cfi_def_cfa_register 7
 7054 0006 7860     		str	r0, [r7, #4]
 7055 0008 3960     		str	r1, [r7]
2672:Core/Src/lis2dw12_reg.c ****   lis2dw12_int_dur_t reg;
2673:Core/Src/lis2dw12_reg.c ****   int32_t ret;
2674:Core/Src/lis2dw12_reg.c **** 
2675:Core/Src/lis2dw12_reg.c ****   ret = lis2dw12_read_reg(ctx, LIS2DW12_INT_DUR, (uint8_t *) &reg, 1);
 7056              		.loc 1 2675 9
 7057 000a 07F10802 		add	r2, r7, #8
 7058 000e 0123     		movs	r3, #1
 7059 0010 3321     		movs	r1, #51
 7060 0012 7868     		ldr	r0, [r7, #4]
 7061 0014 FFF7FEFF 		bl	lis2dw12_read_reg
 7062 0018 F860     		str	r0, [r7, #12]
2676:Core/Src/lis2dw12_reg.c ****   *val = reg.latency;
 7063              		.loc 1 2676 13
 7064 001a 3B7A     		ldrb	r3, [r7, #8]
 7065 001c C3F30313 		ubfx	r3, r3, #4, #4
 7066 0020 DBB2     		uxtb	r3, r3
 7067 0022 1A46     		mov	r2, r3
 7068              		.loc 1 2676 8
 7069 0024 3B68     		ldr	r3, [r7]
 7070 0026 1A70     		strb	r2, [r3]
2677:Core/Src/lis2dw12_reg.c **** 
2678:Core/Src/lis2dw12_reg.c ****   return ret;
 7071              		.loc 1 2678 10
 7072 0028 FB68     		ldr	r3, [r7, #12]
2679:Core/Src/lis2dw12_reg.c **** }
 7073              		.loc 1 2679 1
 7074 002a 1846     		mov	r0, r3
 7075 002c 1037     		adds	r7, r7, #16
ARM GAS  C:\Users\vct344\AppData\Local\Temp\ccePc7Ac.s 			page 169


 7076              	.LCFI483:
 7077              		.cfi_def_cfa_offset 8
 7078 002e BD46     		mov	sp, r7
 7079              	.LCFI484:
 7080              		.cfi_def_cfa_register 13
 7081              		@ sp needed
 7082 0030 80BD     		pop	{r7, pc}
 7083              		.cfi_endproc
 7084              	.LFE96:
 7086              		.section	.text.lis2dw12_tap_mode_set,"ax",%progbits
 7087              		.align	1
 7088              		.global	lis2dw12_tap_mode_set
 7089              		.syntax unified
 7090              		.thumb
 7091              		.thumb_func
 7093              	lis2dw12_tap_mode_set:
 7094              	.LFB97:
2680:Core/Src/lis2dw12_reg.c **** 
2681:Core/Src/lis2dw12_reg.c **** /**
2682:Core/Src/lis2dw12_reg.c ****   * @brief  Single/double-tap event enable.[set]
2683:Core/Src/lis2dw12_reg.c ****   *
2684:Core/Src/lis2dw12_reg.c ****   * @param  ctx      read / write interface definitions
2685:Core/Src/lis2dw12_reg.c ****   * @param  val      change the values of single_double_tap in reg WAKE_UP_THS
2686:Core/Src/lis2dw12_reg.c ****   * @retval          interface status (MANDATORY: return 0 -> no Error)
2687:Core/Src/lis2dw12_reg.c ****   *
2688:Core/Src/lis2dw12_reg.c ****   */
2689:Core/Src/lis2dw12_reg.c **** int32_t lis2dw12_tap_mode_set(const stmdev_ctx_t *ctx,
2690:Core/Src/lis2dw12_reg.c ****                               lis2dw12_single_double_tap_t val)
2691:Core/Src/lis2dw12_reg.c **** {
 7095              		.loc 1 2691 1
 7096              		.cfi_startproc
 7097              		@ args = 0, pretend = 0, frame = 16
 7098              		@ frame_needed = 1, uses_anonymous_args = 0
 7099 0000 80B5     		push	{r7, lr}
 7100              	.LCFI485:
 7101              		.cfi_def_cfa_offset 8
 7102              		.cfi_offset 7, -8
 7103              		.cfi_offset 14, -4
 7104 0002 84B0     		sub	sp, sp, #16
 7105              	.LCFI486:
 7106              		.cfi_def_cfa_offset 24
 7107 0004 00AF     		add	r7, sp, #0
 7108              	.LCFI487:
 7109              		.cfi_def_cfa_register 7
 7110 0006 7860     		str	r0, [r7, #4]
 7111 0008 0B46     		mov	r3, r1
 7112 000a FB70     		strb	r3, [r7, #3]
2692:Core/Src/lis2dw12_reg.c ****   lis2dw12_wake_up_ths_t reg;
2693:Core/Src/lis2dw12_reg.c ****   int32_t ret;
2694:Core/Src/lis2dw12_reg.c **** 
2695:Core/Src/lis2dw12_reg.c ****   ret = lis2dw12_read_reg(ctx, LIS2DW12_WAKE_UP_THS, (uint8_t *) &reg, 1);
 7113              		.loc 1 2695 9
 7114 000c 07F10802 		add	r2, r7, #8
 7115 0010 0123     		movs	r3, #1
 7116 0012 3421     		movs	r1, #52
 7117 0014 7868     		ldr	r0, [r7, #4]
 7118 0016 FFF7FEFF 		bl	lis2dw12_read_reg
ARM GAS  C:\Users\vct344\AppData\Local\Temp\ccePc7Ac.s 			page 170


 7119 001a F860     		str	r0, [r7, #12]
2696:Core/Src/lis2dw12_reg.c **** 
2697:Core/Src/lis2dw12_reg.c ****   if (ret == 0)
 7120              		.loc 1 2697 6
 7121 001c FB68     		ldr	r3, [r7, #12]
 7122 001e 002B     		cmp	r3, #0
 7123 0020 0FD1     		bne	.L388
2698:Core/Src/lis2dw12_reg.c ****   {
2699:Core/Src/lis2dw12_reg.c ****     reg.single_double_tap = (uint8_t) val;
 7124              		.loc 1 2699 29
 7125 0022 FB78     		ldrb	r3, [r7, #3]
 7126 0024 03F00103 		and	r3, r3, #1
 7127 0028 DAB2     		uxtb	r2, r3
 7128              		.loc 1 2699 27
 7129 002a 3B7A     		ldrb	r3, [r7, #8]
 7130 002c 62F3C713 		bfi	r3, r2, #7, #1
 7131 0030 3B72     		strb	r3, [r7, #8]
2700:Core/Src/lis2dw12_reg.c ****     ret = lis2dw12_write_reg(ctx, LIS2DW12_WAKE_UP_THS, (uint8_t *) &reg, 1);
 7132              		.loc 1 2700 11
 7133 0032 07F10802 		add	r2, r7, #8
 7134 0036 0123     		movs	r3, #1
 7135 0038 3421     		movs	r1, #52
 7136 003a 7868     		ldr	r0, [r7, #4]
 7137 003c FFF7FEFF 		bl	lis2dw12_write_reg
 7138 0040 F860     		str	r0, [r7, #12]
 7139              	.L388:
2701:Core/Src/lis2dw12_reg.c ****   }
2702:Core/Src/lis2dw12_reg.c **** 
2703:Core/Src/lis2dw12_reg.c ****   return ret;
 7140              		.loc 1 2703 10
 7141 0042 FB68     		ldr	r3, [r7, #12]
2704:Core/Src/lis2dw12_reg.c **** }
 7142              		.loc 1 2704 1
 7143 0044 1846     		mov	r0, r3
 7144 0046 1037     		adds	r7, r7, #16
 7145              	.LCFI488:
 7146              		.cfi_def_cfa_offset 8
 7147 0048 BD46     		mov	sp, r7
 7148              	.LCFI489:
 7149              		.cfi_def_cfa_register 13
 7150              		@ sp needed
 7151 004a 80BD     		pop	{r7, pc}
 7152              		.cfi_endproc
 7153              	.LFE97:
 7155              		.section	.text.lis2dw12_tap_mode_get,"ax",%progbits
 7156              		.align	1
 7157              		.global	lis2dw12_tap_mode_get
 7158              		.syntax unified
 7159              		.thumb
 7160              		.thumb_func
 7162              	lis2dw12_tap_mode_get:
 7163              	.LFB98:
2705:Core/Src/lis2dw12_reg.c **** 
2706:Core/Src/lis2dw12_reg.c **** /**
2707:Core/Src/lis2dw12_reg.c ****   * @brief  Single/double-tap event enable.[get]
2708:Core/Src/lis2dw12_reg.c ****   *
2709:Core/Src/lis2dw12_reg.c ****   * @param  ctx      read / write interface definitions
ARM GAS  C:\Users\vct344\AppData\Local\Temp\ccePc7Ac.s 			page 171


2710:Core/Src/lis2dw12_reg.c ****   * @param  val      Get the values of single_double_tap in reg WAKE_UP_THS
2711:Core/Src/lis2dw12_reg.c ****   * @retval          interface status (MANDATORY: return 0 -> no Error)
2712:Core/Src/lis2dw12_reg.c ****   *
2713:Core/Src/lis2dw12_reg.c ****   */
2714:Core/Src/lis2dw12_reg.c **** int32_t lis2dw12_tap_mode_get(const stmdev_ctx_t *ctx,
2715:Core/Src/lis2dw12_reg.c ****                               lis2dw12_single_double_tap_t *val)
2716:Core/Src/lis2dw12_reg.c **** {
 7164              		.loc 1 2716 1
 7165              		.cfi_startproc
 7166              		@ args = 0, pretend = 0, frame = 16
 7167              		@ frame_needed = 1, uses_anonymous_args = 0
 7168 0000 80B5     		push	{r7, lr}
 7169              	.LCFI490:
 7170              		.cfi_def_cfa_offset 8
 7171              		.cfi_offset 7, -8
 7172              		.cfi_offset 14, -4
 7173 0002 84B0     		sub	sp, sp, #16
 7174              	.LCFI491:
 7175              		.cfi_def_cfa_offset 24
 7176 0004 00AF     		add	r7, sp, #0
 7177              	.LCFI492:
 7178              		.cfi_def_cfa_register 7
 7179 0006 7860     		str	r0, [r7, #4]
 7180 0008 3960     		str	r1, [r7]
2717:Core/Src/lis2dw12_reg.c ****   lis2dw12_wake_up_ths_t reg;
2718:Core/Src/lis2dw12_reg.c ****   int32_t ret;
2719:Core/Src/lis2dw12_reg.c **** 
2720:Core/Src/lis2dw12_reg.c ****   ret = lis2dw12_read_reg(ctx, LIS2DW12_WAKE_UP_THS, (uint8_t *) &reg, 1);
 7181              		.loc 1 2720 9
 7182 000a 07F10802 		add	r2, r7, #8
 7183 000e 0123     		movs	r3, #1
 7184 0010 3421     		movs	r1, #52
 7185 0012 7868     		ldr	r0, [r7, #4]
 7186 0014 FFF7FEFF 		bl	lis2dw12_read_reg
 7187 0018 F860     		str	r0, [r7, #12]
2721:Core/Src/lis2dw12_reg.c **** 
2722:Core/Src/lis2dw12_reg.c ****   switch (reg.single_double_tap)
 7188              		.loc 1 2722 14
 7189 001a 3B7A     		ldrb	r3, [r7, #8]
 7190 001c C3F3C013 		ubfx	r3, r3, #7, #1
 7191 0020 DBB2     		uxtb	r3, r3
 7192              		.loc 1 2722 3
 7193 0022 002B     		cmp	r3, #0
 7194 0024 02D0     		beq	.L391
 7195 0026 012B     		cmp	r3, #1
 7196 0028 04D0     		beq	.L392
 7197 002a 07E0     		b	.L396
 7198              	.L391:
2723:Core/Src/lis2dw12_reg.c ****   {
2724:Core/Src/lis2dw12_reg.c ****     case LIS2DW12_ONLY_SINGLE:
2725:Core/Src/lis2dw12_reg.c ****       *val = LIS2DW12_ONLY_SINGLE;
 7199              		.loc 1 2725 12
 7200 002c 3B68     		ldr	r3, [r7]
 7201 002e 0022     		movs	r2, #0
 7202 0030 1A70     		strb	r2, [r3]
2726:Core/Src/lis2dw12_reg.c ****       break;
 7203              		.loc 1 2726 7
ARM GAS  C:\Users\vct344\AppData\Local\Temp\ccePc7Ac.s 			page 172


 7204 0032 07E0     		b	.L394
 7205              	.L392:
2727:Core/Src/lis2dw12_reg.c **** 
2728:Core/Src/lis2dw12_reg.c ****     case LIS2DW12_BOTH_SINGLE_DOUBLE:
2729:Core/Src/lis2dw12_reg.c ****       *val = LIS2DW12_BOTH_SINGLE_DOUBLE;
 7206              		.loc 1 2729 12
 7207 0034 3B68     		ldr	r3, [r7]
 7208 0036 0122     		movs	r2, #1
 7209 0038 1A70     		strb	r2, [r3]
2730:Core/Src/lis2dw12_reg.c ****       break;
 7210              		.loc 1 2730 7
 7211 003a 03E0     		b	.L394
 7212              	.L396:
2731:Core/Src/lis2dw12_reg.c **** 
2732:Core/Src/lis2dw12_reg.c ****     default:
2733:Core/Src/lis2dw12_reg.c ****       *val = LIS2DW12_ONLY_SINGLE;
 7213              		.loc 1 2733 12
 7214 003c 3B68     		ldr	r3, [r7]
 7215 003e 0022     		movs	r2, #0
 7216 0040 1A70     		strb	r2, [r3]
2734:Core/Src/lis2dw12_reg.c ****       break;
 7217              		.loc 1 2734 7
 7218 0042 00BF     		nop
 7219              	.L394:
2735:Core/Src/lis2dw12_reg.c ****   }
2736:Core/Src/lis2dw12_reg.c **** 
2737:Core/Src/lis2dw12_reg.c ****   return ret;
 7220              		.loc 1 2737 10
 7221 0044 FB68     		ldr	r3, [r7, #12]
2738:Core/Src/lis2dw12_reg.c **** }
 7222              		.loc 1 2738 1
 7223 0046 1846     		mov	r0, r3
 7224 0048 1037     		adds	r7, r7, #16
 7225              	.LCFI493:
 7226              		.cfi_def_cfa_offset 8
 7227 004a BD46     		mov	sp, r7
 7228              	.LCFI494:
 7229              		.cfi_def_cfa_register 13
 7230              		@ sp needed
 7231 004c 80BD     		pop	{r7, pc}
 7232              		.cfi_endproc
 7233              	.LFE98:
 7235              		.section	.text.lis2dw12_tap_src_get,"ax",%progbits
 7236              		.align	1
 7237              		.global	lis2dw12_tap_src_get
 7238              		.syntax unified
 7239              		.thumb
 7240              		.thumb_func
 7242              	lis2dw12_tap_src_get:
 7243              	.LFB99:
2739:Core/Src/lis2dw12_reg.c **** 
2740:Core/Src/lis2dw12_reg.c **** /**
2741:Core/Src/lis2dw12_reg.c ****   * @brief  Read the tap / double tap source register.[get]
2742:Core/Src/lis2dw12_reg.c ****   *
2743:Core/Src/lis2dw12_reg.c ****   * @param  ctx      read / write interface definitions
2744:Core/Src/lis2dw12_reg.c ****   * @param  lis2dw12_tap_src: union of registers from TAP_SRC to
2745:Core/Src/lis2dw12_reg.c ****   * @retval          interface status (MANDATORY: return 0 -> no Error)
ARM GAS  C:\Users\vct344\AppData\Local\Temp\ccePc7Ac.s 			page 173


2746:Core/Src/lis2dw12_reg.c ****   *
2747:Core/Src/lis2dw12_reg.c ****   */
2748:Core/Src/lis2dw12_reg.c **** int32_t lis2dw12_tap_src_get(const stmdev_ctx_t *ctx,
2749:Core/Src/lis2dw12_reg.c ****                              lis2dw12_tap_src_t *val)
2750:Core/Src/lis2dw12_reg.c **** {
 7244              		.loc 1 2750 1
 7245              		.cfi_startproc
 7246              		@ args = 0, pretend = 0, frame = 16
 7247              		@ frame_needed = 1, uses_anonymous_args = 0
 7248 0000 80B5     		push	{r7, lr}
 7249              	.LCFI495:
 7250              		.cfi_def_cfa_offset 8
 7251              		.cfi_offset 7, -8
 7252              		.cfi_offset 14, -4
 7253 0002 84B0     		sub	sp, sp, #16
 7254              	.LCFI496:
 7255              		.cfi_def_cfa_offset 24
 7256 0004 00AF     		add	r7, sp, #0
 7257              	.LCFI497:
 7258              		.cfi_def_cfa_register 7
 7259 0006 7860     		str	r0, [r7, #4]
 7260 0008 3960     		str	r1, [r7]
2751:Core/Src/lis2dw12_reg.c ****   int32_t ret;
2752:Core/Src/lis2dw12_reg.c **** 
2753:Core/Src/lis2dw12_reg.c ****   ret = lis2dw12_read_reg(ctx, LIS2DW12_TAP_SRC, (uint8_t *) val, 1);
 7261              		.loc 1 2753 9
 7262 000a 0123     		movs	r3, #1
 7263 000c 3A68     		ldr	r2, [r7]
 7264 000e 3921     		movs	r1, #57
 7265 0010 7868     		ldr	r0, [r7, #4]
 7266 0012 FFF7FEFF 		bl	lis2dw12_read_reg
 7267 0016 F860     		str	r0, [r7, #12]
2754:Core/Src/lis2dw12_reg.c **** 
2755:Core/Src/lis2dw12_reg.c ****   return ret;
 7268              		.loc 1 2755 10
 7269 0018 FB68     		ldr	r3, [r7, #12]
2756:Core/Src/lis2dw12_reg.c **** }
 7270              		.loc 1 2756 1
 7271 001a 1846     		mov	r0, r3
 7272 001c 1037     		adds	r7, r7, #16
 7273              	.LCFI498:
 7274              		.cfi_def_cfa_offset 8
 7275 001e BD46     		mov	sp, r7
 7276              	.LCFI499:
 7277              		.cfi_def_cfa_register 13
 7278              		@ sp needed
 7279 0020 80BD     		pop	{r7, pc}
 7280              		.cfi_endproc
 7281              	.LFE99:
 7283              		.section	.text.lis2dw12_6d_threshold_set,"ax",%progbits
 7284              		.align	1
 7285              		.global	lis2dw12_6d_threshold_set
 7286              		.syntax unified
 7287              		.thumb
 7288              		.thumb_func
 7290              	lis2dw12_6d_threshold_set:
 7291              	.LFB100:
ARM GAS  C:\Users\vct344\AppData\Local\Temp\ccePc7Ac.s 			page 174


2757:Core/Src/lis2dw12_reg.c **** 
2758:Core/Src/lis2dw12_reg.c **** /**
2759:Core/Src/lis2dw12_reg.c ****   * @}
2760:Core/Src/lis2dw12_reg.c ****   *
2761:Core/Src/lis2dw12_reg.c ****   */
2762:Core/Src/lis2dw12_reg.c **** 
2763:Core/Src/lis2dw12_reg.c **** /**
2764:Core/Src/lis2dw12_reg.c ****   * @defgroup   LIS2DW12_Six_Position_Detection(6D/4D)
2765:Core/Src/lis2dw12_reg.c ****   * @brief      This section groups all the functions concerning six
2766:Core/Src/lis2dw12_reg.c ****   *             position detection (6D).
2767:Core/Src/lis2dw12_reg.c ****   * @{
2768:Core/Src/lis2dw12_reg.c ****   *
2769:Core/Src/lis2dw12_reg.c ****   */
2770:Core/Src/lis2dw12_reg.c **** 
2771:Core/Src/lis2dw12_reg.c **** /**
2772:Core/Src/lis2dw12_reg.c ****   * @brief  Threshold for 4D/6D function.[set]
2773:Core/Src/lis2dw12_reg.c ****   *
2774:Core/Src/lis2dw12_reg.c ****   * @param  ctx      read / write interface definitions
2775:Core/Src/lis2dw12_reg.c ****   * @param  val      change the values of 6d_ths in reg TAP_THS_X
2776:Core/Src/lis2dw12_reg.c ****   * @retval          interface status (MANDATORY: return 0 -> no Error)
2777:Core/Src/lis2dw12_reg.c ****   *
2778:Core/Src/lis2dw12_reg.c ****   */
2779:Core/Src/lis2dw12_reg.c **** int32_t lis2dw12_6d_threshold_set(const stmdev_ctx_t *ctx, uint8_t val)
2780:Core/Src/lis2dw12_reg.c **** {
 7292              		.loc 1 2780 1
 7293              		.cfi_startproc
 7294              		@ args = 0, pretend = 0, frame = 16
 7295              		@ frame_needed = 1, uses_anonymous_args = 0
 7296 0000 80B5     		push	{r7, lr}
 7297              	.LCFI500:
 7298              		.cfi_def_cfa_offset 8
 7299              		.cfi_offset 7, -8
 7300              		.cfi_offset 14, -4
 7301 0002 84B0     		sub	sp, sp, #16
 7302              	.LCFI501:
 7303              		.cfi_def_cfa_offset 24
 7304 0004 00AF     		add	r7, sp, #0
 7305              	.LCFI502:
 7306              		.cfi_def_cfa_register 7
 7307 0006 7860     		str	r0, [r7, #4]
 7308 0008 0B46     		mov	r3, r1
 7309 000a FB70     		strb	r3, [r7, #3]
2781:Core/Src/lis2dw12_reg.c ****   lis2dw12_tap_ths_x_t reg;
2782:Core/Src/lis2dw12_reg.c ****   int32_t ret;
2783:Core/Src/lis2dw12_reg.c **** 
2784:Core/Src/lis2dw12_reg.c ****   ret = lis2dw12_read_reg(ctx, LIS2DW12_TAP_THS_X, (uint8_t *) &reg, 1);
 7310              		.loc 1 2784 9
 7311 000c 07F10802 		add	r2, r7, #8
 7312 0010 0123     		movs	r3, #1
 7313 0012 3021     		movs	r1, #48
 7314 0014 7868     		ldr	r0, [r7, #4]
 7315 0016 FFF7FEFF 		bl	lis2dw12_read_reg
 7316 001a F860     		str	r0, [r7, #12]
2785:Core/Src/lis2dw12_reg.c **** 
2786:Core/Src/lis2dw12_reg.c ****   if (ret == 0)
 7317              		.loc 1 2786 6
 7318 001c FB68     		ldr	r3, [r7, #12]
ARM GAS  C:\Users\vct344\AppData\Local\Temp\ccePc7Ac.s 			page 175


 7319 001e 002B     		cmp	r3, #0
 7320 0020 0FD1     		bne	.L400
2787:Core/Src/lis2dw12_reg.c ****   {
2788:Core/Src/lis2dw12_reg.c ****     reg._6d_ths = val;
 7321              		.loc 1 2788 17
 7322 0022 FB78     		ldrb	r3, [r7, #3]
 7323 0024 03F00303 		and	r3, r3, #3
 7324 0028 DAB2     		uxtb	r2, r3
 7325 002a 3B7A     		ldrb	r3, [r7, #8]
 7326 002c 62F34613 		bfi	r3, r2, #5, #2
 7327 0030 3B72     		strb	r3, [r7, #8]
2789:Core/Src/lis2dw12_reg.c ****     ret = lis2dw12_write_reg(ctx, LIS2DW12_TAP_THS_X, (uint8_t *) &reg, 1);
 7328              		.loc 1 2789 11
 7329 0032 07F10802 		add	r2, r7, #8
 7330 0036 0123     		movs	r3, #1
 7331 0038 3021     		movs	r1, #48
 7332 003a 7868     		ldr	r0, [r7, #4]
 7333 003c FFF7FEFF 		bl	lis2dw12_write_reg
 7334 0040 F860     		str	r0, [r7, #12]
 7335              	.L400:
2790:Core/Src/lis2dw12_reg.c ****   }
2791:Core/Src/lis2dw12_reg.c **** 
2792:Core/Src/lis2dw12_reg.c ****   return ret;
 7336              		.loc 1 2792 10
 7337 0042 FB68     		ldr	r3, [r7, #12]
2793:Core/Src/lis2dw12_reg.c **** }
 7338              		.loc 1 2793 1
 7339 0044 1846     		mov	r0, r3
 7340 0046 1037     		adds	r7, r7, #16
 7341              	.LCFI503:
 7342              		.cfi_def_cfa_offset 8
 7343 0048 BD46     		mov	sp, r7
 7344              	.LCFI504:
 7345              		.cfi_def_cfa_register 13
 7346              		@ sp needed
 7347 004a 80BD     		pop	{r7, pc}
 7348              		.cfi_endproc
 7349              	.LFE100:
 7351              		.section	.text.lis2dw12_6d_threshold_get,"ax",%progbits
 7352              		.align	1
 7353              		.global	lis2dw12_6d_threshold_get
 7354              		.syntax unified
 7355              		.thumb
 7356              		.thumb_func
 7358              	lis2dw12_6d_threshold_get:
 7359              	.LFB101:
2794:Core/Src/lis2dw12_reg.c **** 
2795:Core/Src/lis2dw12_reg.c **** /**
2796:Core/Src/lis2dw12_reg.c ****   * @brief  Threshold for 4D/6D function.[get]
2797:Core/Src/lis2dw12_reg.c ****   *
2798:Core/Src/lis2dw12_reg.c ****   * @param  ctx      read / write interface definitions
2799:Core/Src/lis2dw12_reg.c ****   * @param  val      change the values of 6d_ths in reg TAP_THS_X
2800:Core/Src/lis2dw12_reg.c ****   * @retval          interface status (MANDATORY: return 0 -> no Error)
2801:Core/Src/lis2dw12_reg.c ****   *
2802:Core/Src/lis2dw12_reg.c ****   */
2803:Core/Src/lis2dw12_reg.c **** int32_t lis2dw12_6d_threshold_get(const stmdev_ctx_t *ctx, uint8_t *val)
2804:Core/Src/lis2dw12_reg.c **** {
ARM GAS  C:\Users\vct344\AppData\Local\Temp\ccePc7Ac.s 			page 176


 7360              		.loc 1 2804 1
 7361              		.cfi_startproc
 7362              		@ args = 0, pretend = 0, frame = 16
 7363              		@ frame_needed = 1, uses_anonymous_args = 0
 7364 0000 80B5     		push	{r7, lr}
 7365              	.LCFI505:
 7366              		.cfi_def_cfa_offset 8
 7367              		.cfi_offset 7, -8
 7368              		.cfi_offset 14, -4
 7369 0002 84B0     		sub	sp, sp, #16
 7370              	.LCFI506:
 7371              		.cfi_def_cfa_offset 24
 7372 0004 00AF     		add	r7, sp, #0
 7373              	.LCFI507:
 7374              		.cfi_def_cfa_register 7
 7375 0006 7860     		str	r0, [r7, #4]
 7376 0008 3960     		str	r1, [r7]
2805:Core/Src/lis2dw12_reg.c ****   lis2dw12_tap_ths_x_t reg;
2806:Core/Src/lis2dw12_reg.c ****   int32_t ret;
2807:Core/Src/lis2dw12_reg.c **** 
2808:Core/Src/lis2dw12_reg.c ****   ret = lis2dw12_read_reg(ctx, LIS2DW12_TAP_THS_X, (uint8_t *) &reg, 1);
 7377              		.loc 1 2808 9
 7378 000a 07F10802 		add	r2, r7, #8
 7379 000e 0123     		movs	r3, #1
 7380 0010 3021     		movs	r1, #48
 7381 0012 7868     		ldr	r0, [r7, #4]
 7382 0014 FFF7FEFF 		bl	lis2dw12_read_reg
 7383 0018 F860     		str	r0, [r7, #12]
2809:Core/Src/lis2dw12_reg.c ****   *val = reg._6d_ths;
 7384              		.loc 1 2809 13
 7385 001a 3B7A     		ldrb	r3, [r7, #8]
 7386 001c C3F34113 		ubfx	r3, r3, #5, #2
 7387 0020 DBB2     		uxtb	r3, r3
 7388 0022 1A46     		mov	r2, r3
 7389              		.loc 1 2809 8
 7390 0024 3B68     		ldr	r3, [r7]
 7391 0026 1A70     		strb	r2, [r3]
2810:Core/Src/lis2dw12_reg.c **** 
2811:Core/Src/lis2dw12_reg.c ****   return ret;
 7392              		.loc 1 2811 10
 7393 0028 FB68     		ldr	r3, [r7, #12]
2812:Core/Src/lis2dw12_reg.c **** }
 7394              		.loc 1 2812 1
 7395 002a 1846     		mov	r0, r3
 7396 002c 1037     		adds	r7, r7, #16
 7397              	.LCFI508:
 7398              		.cfi_def_cfa_offset 8
 7399 002e BD46     		mov	sp, r7
 7400              	.LCFI509:
 7401              		.cfi_def_cfa_register 13
 7402              		@ sp needed
 7403 0030 80BD     		pop	{r7, pc}
 7404              		.cfi_endproc
 7405              	.LFE101:
 7407              		.section	.text.lis2dw12_4d_mode_set,"ax",%progbits
 7408              		.align	1
 7409              		.global	lis2dw12_4d_mode_set
ARM GAS  C:\Users\vct344\AppData\Local\Temp\ccePc7Ac.s 			page 177


 7410              		.syntax unified
 7411              		.thumb
 7412              		.thumb_func
 7414              	lis2dw12_4d_mode_set:
 7415              	.LFB102:
2813:Core/Src/lis2dw12_reg.c **** 
2814:Core/Src/lis2dw12_reg.c **** /**
2815:Core/Src/lis2dw12_reg.c ****   * @brief  4D orientation detection enable.[set]
2816:Core/Src/lis2dw12_reg.c ****   *
2817:Core/Src/lis2dw12_reg.c ****   * @param  ctx      read / write interface definitions
2818:Core/Src/lis2dw12_reg.c ****   * @param  val      change the values of 4d_en in reg TAP_THS_X
2819:Core/Src/lis2dw12_reg.c ****   * @retval          interface status (MANDATORY: return 0 -> no Error)
2820:Core/Src/lis2dw12_reg.c ****   *
2821:Core/Src/lis2dw12_reg.c ****   */
2822:Core/Src/lis2dw12_reg.c **** int32_t lis2dw12_4d_mode_set(const stmdev_ctx_t *ctx, uint8_t val)
2823:Core/Src/lis2dw12_reg.c **** {
 7416              		.loc 1 2823 1
 7417              		.cfi_startproc
 7418              		@ args = 0, pretend = 0, frame = 16
 7419              		@ frame_needed = 1, uses_anonymous_args = 0
 7420 0000 80B5     		push	{r7, lr}
 7421              	.LCFI510:
 7422              		.cfi_def_cfa_offset 8
 7423              		.cfi_offset 7, -8
 7424              		.cfi_offset 14, -4
 7425 0002 84B0     		sub	sp, sp, #16
 7426              	.LCFI511:
 7427              		.cfi_def_cfa_offset 24
 7428 0004 00AF     		add	r7, sp, #0
 7429              	.LCFI512:
 7430              		.cfi_def_cfa_register 7
 7431 0006 7860     		str	r0, [r7, #4]
 7432 0008 0B46     		mov	r3, r1
 7433 000a FB70     		strb	r3, [r7, #3]
2824:Core/Src/lis2dw12_reg.c ****   lis2dw12_tap_ths_x_t reg;
2825:Core/Src/lis2dw12_reg.c ****   int32_t ret;
2826:Core/Src/lis2dw12_reg.c **** 
2827:Core/Src/lis2dw12_reg.c ****   ret = lis2dw12_read_reg(ctx, LIS2DW12_TAP_THS_X, (uint8_t *) &reg, 1);
 7434              		.loc 1 2827 9
 7435 000c 07F10802 		add	r2, r7, #8
 7436 0010 0123     		movs	r3, #1
 7437 0012 3021     		movs	r1, #48
 7438 0014 7868     		ldr	r0, [r7, #4]
 7439 0016 FFF7FEFF 		bl	lis2dw12_read_reg
 7440 001a F860     		str	r0, [r7, #12]
2828:Core/Src/lis2dw12_reg.c **** 
2829:Core/Src/lis2dw12_reg.c ****   if (ret == 0)
 7441              		.loc 1 2829 6
 7442 001c FB68     		ldr	r3, [r7, #12]
 7443 001e 002B     		cmp	r3, #0
 7444 0020 0FD1     		bne	.L405
2830:Core/Src/lis2dw12_reg.c ****   {
2831:Core/Src/lis2dw12_reg.c ****     reg._4d_en = val;
 7445              		.loc 1 2831 16
 7446 0022 FB78     		ldrb	r3, [r7, #3]
 7447 0024 03F00103 		and	r3, r3, #1
 7448 0028 DAB2     		uxtb	r2, r3
ARM GAS  C:\Users\vct344\AppData\Local\Temp\ccePc7Ac.s 			page 178


 7449 002a 3B7A     		ldrb	r3, [r7, #8]
 7450 002c 62F3C713 		bfi	r3, r2, #7, #1
 7451 0030 3B72     		strb	r3, [r7, #8]
2832:Core/Src/lis2dw12_reg.c ****     ret = lis2dw12_write_reg(ctx, LIS2DW12_TAP_THS_X, (uint8_t *) &reg, 1);
 7452              		.loc 1 2832 11
 7453 0032 07F10802 		add	r2, r7, #8
 7454 0036 0123     		movs	r3, #1
 7455 0038 3021     		movs	r1, #48
 7456 003a 7868     		ldr	r0, [r7, #4]
 7457 003c FFF7FEFF 		bl	lis2dw12_write_reg
 7458 0040 F860     		str	r0, [r7, #12]
 7459              	.L405:
2833:Core/Src/lis2dw12_reg.c ****   }
2834:Core/Src/lis2dw12_reg.c **** 
2835:Core/Src/lis2dw12_reg.c ****   return ret;
 7460              		.loc 1 2835 10
 7461 0042 FB68     		ldr	r3, [r7, #12]
2836:Core/Src/lis2dw12_reg.c **** }
 7462              		.loc 1 2836 1
 7463 0044 1846     		mov	r0, r3
 7464 0046 1037     		adds	r7, r7, #16
 7465              	.LCFI513:
 7466              		.cfi_def_cfa_offset 8
 7467 0048 BD46     		mov	sp, r7
 7468              	.LCFI514:
 7469              		.cfi_def_cfa_register 13
 7470              		@ sp needed
 7471 004a 80BD     		pop	{r7, pc}
 7472              		.cfi_endproc
 7473              	.LFE102:
 7475              		.section	.text.lis2dw12_4d_mode_get,"ax",%progbits
 7476              		.align	1
 7477              		.global	lis2dw12_4d_mode_get
 7478              		.syntax unified
 7479              		.thumb
 7480              		.thumb_func
 7482              	lis2dw12_4d_mode_get:
 7483              	.LFB103:
2837:Core/Src/lis2dw12_reg.c **** 
2838:Core/Src/lis2dw12_reg.c **** /**
2839:Core/Src/lis2dw12_reg.c ****   * @brief  4D orientation detection enable.[get]
2840:Core/Src/lis2dw12_reg.c ****   *
2841:Core/Src/lis2dw12_reg.c ****   * @param  ctx      read / write interface definitions
2842:Core/Src/lis2dw12_reg.c ****   * @param  val      change the values of 4d_en in reg TAP_THS_X
2843:Core/Src/lis2dw12_reg.c ****   * @retval          interface status (MANDATORY: return 0 -> no Error)
2844:Core/Src/lis2dw12_reg.c ****   *
2845:Core/Src/lis2dw12_reg.c ****   */
2846:Core/Src/lis2dw12_reg.c **** int32_t lis2dw12_4d_mode_get(const stmdev_ctx_t *ctx, uint8_t *val)
2847:Core/Src/lis2dw12_reg.c **** {
 7484              		.loc 1 2847 1
 7485              		.cfi_startproc
 7486              		@ args = 0, pretend = 0, frame = 16
 7487              		@ frame_needed = 1, uses_anonymous_args = 0
 7488 0000 80B5     		push	{r7, lr}
 7489              	.LCFI515:
 7490              		.cfi_def_cfa_offset 8
 7491              		.cfi_offset 7, -8
ARM GAS  C:\Users\vct344\AppData\Local\Temp\ccePc7Ac.s 			page 179


 7492              		.cfi_offset 14, -4
 7493 0002 84B0     		sub	sp, sp, #16
 7494              	.LCFI516:
 7495              		.cfi_def_cfa_offset 24
 7496 0004 00AF     		add	r7, sp, #0
 7497              	.LCFI517:
 7498              		.cfi_def_cfa_register 7
 7499 0006 7860     		str	r0, [r7, #4]
 7500 0008 3960     		str	r1, [r7]
2848:Core/Src/lis2dw12_reg.c ****   lis2dw12_tap_ths_x_t reg;
2849:Core/Src/lis2dw12_reg.c ****   int32_t ret;
2850:Core/Src/lis2dw12_reg.c **** 
2851:Core/Src/lis2dw12_reg.c ****   ret = lis2dw12_read_reg(ctx, LIS2DW12_TAP_THS_X, (uint8_t *) &reg, 1);
 7501              		.loc 1 2851 9
 7502 000a 07F10802 		add	r2, r7, #8
 7503 000e 0123     		movs	r3, #1
 7504 0010 3021     		movs	r1, #48
 7505 0012 7868     		ldr	r0, [r7, #4]
 7506 0014 FFF7FEFF 		bl	lis2dw12_read_reg
 7507 0018 F860     		str	r0, [r7, #12]
2852:Core/Src/lis2dw12_reg.c ****   *val = reg._4d_en;
 7508              		.loc 1 2852 13
 7509 001a 3B7A     		ldrb	r3, [r7, #8]
 7510 001c C3F3C013 		ubfx	r3, r3, #7, #1
 7511 0020 DBB2     		uxtb	r3, r3
 7512 0022 1A46     		mov	r2, r3
 7513              		.loc 1 2852 8
 7514 0024 3B68     		ldr	r3, [r7]
 7515 0026 1A70     		strb	r2, [r3]
2853:Core/Src/lis2dw12_reg.c **** 
2854:Core/Src/lis2dw12_reg.c ****   return ret;
 7516              		.loc 1 2854 10
 7517 0028 FB68     		ldr	r3, [r7, #12]
2855:Core/Src/lis2dw12_reg.c **** }
 7518              		.loc 1 2855 1
 7519 002a 1846     		mov	r0, r3
 7520 002c 1037     		adds	r7, r7, #16
 7521              	.LCFI518:
 7522              		.cfi_def_cfa_offset 8
 7523 002e BD46     		mov	sp, r7
 7524              	.LCFI519:
 7525              		.cfi_def_cfa_register 13
 7526              		@ sp needed
 7527 0030 80BD     		pop	{r7, pc}
 7528              		.cfi_endproc
 7529              	.LFE103:
 7531              		.section	.text.lis2dw12_6d_src_get,"ax",%progbits
 7532              		.align	1
 7533              		.global	lis2dw12_6d_src_get
 7534              		.syntax unified
 7535              		.thumb
 7536              		.thumb_func
 7538              	lis2dw12_6d_src_get:
 7539              	.LFB104:
2856:Core/Src/lis2dw12_reg.c **** 
2857:Core/Src/lis2dw12_reg.c **** /**
2858:Core/Src/lis2dw12_reg.c ****   * @brief  Read the 6D tap source register.[get]
ARM GAS  C:\Users\vct344\AppData\Local\Temp\ccePc7Ac.s 			page 180


2859:Core/Src/lis2dw12_reg.c ****   *
2860:Core/Src/lis2dw12_reg.c ****   * @param  ctx      read / write interface definitions
2861:Core/Src/lis2dw12_reg.c ****   * @param  val      union of registers from SIXD_SRC
2862:Core/Src/lis2dw12_reg.c ****   * @retval          interface status (MANDATORY: return 0 -> no Error)
2863:Core/Src/lis2dw12_reg.c ****   *
2864:Core/Src/lis2dw12_reg.c ****   */
2865:Core/Src/lis2dw12_reg.c **** int32_t lis2dw12_6d_src_get(const stmdev_ctx_t *ctx,
2866:Core/Src/lis2dw12_reg.c ****                             lis2dw12_sixd_src_t *val)
2867:Core/Src/lis2dw12_reg.c **** {
 7540              		.loc 1 2867 1
 7541              		.cfi_startproc
 7542              		@ args = 0, pretend = 0, frame = 16
 7543              		@ frame_needed = 1, uses_anonymous_args = 0
 7544 0000 80B5     		push	{r7, lr}
 7545              	.LCFI520:
 7546              		.cfi_def_cfa_offset 8
 7547              		.cfi_offset 7, -8
 7548              		.cfi_offset 14, -4
 7549 0002 84B0     		sub	sp, sp, #16
 7550              	.LCFI521:
 7551              		.cfi_def_cfa_offset 24
 7552 0004 00AF     		add	r7, sp, #0
 7553              	.LCFI522:
 7554              		.cfi_def_cfa_register 7
 7555 0006 7860     		str	r0, [r7, #4]
 7556 0008 3960     		str	r1, [r7]
2868:Core/Src/lis2dw12_reg.c ****   int32_t ret;
2869:Core/Src/lis2dw12_reg.c **** 
2870:Core/Src/lis2dw12_reg.c ****   ret = lis2dw12_read_reg(ctx, LIS2DW12_SIXD_SRC, (uint8_t *) val, 1);
 7557              		.loc 1 2870 9
 7558 000a 0123     		movs	r3, #1
 7559 000c 3A68     		ldr	r2, [r7]
 7560 000e 3A21     		movs	r1, #58
 7561 0010 7868     		ldr	r0, [r7, #4]
 7562 0012 FFF7FEFF 		bl	lis2dw12_read_reg
 7563 0016 F860     		str	r0, [r7, #12]
2871:Core/Src/lis2dw12_reg.c **** 
2872:Core/Src/lis2dw12_reg.c ****   return ret;
 7564              		.loc 1 2872 10
 7565 0018 FB68     		ldr	r3, [r7, #12]
2873:Core/Src/lis2dw12_reg.c **** }
 7566              		.loc 1 2873 1
 7567 001a 1846     		mov	r0, r3
 7568 001c 1037     		adds	r7, r7, #16
 7569              	.LCFI523:
 7570              		.cfi_def_cfa_offset 8
 7571 001e BD46     		mov	sp, r7
 7572              	.LCFI524:
 7573              		.cfi_def_cfa_register 13
 7574              		@ sp needed
 7575 0020 80BD     		pop	{r7, pc}
 7576              		.cfi_endproc
 7577              	.LFE104:
 7579              		.section	.text.lis2dw12_6d_feed_data_set,"ax",%progbits
 7580              		.align	1
 7581              		.global	lis2dw12_6d_feed_data_set
 7582              		.syntax unified
ARM GAS  C:\Users\vct344\AppData\Local\Temp\ccePc7Ac.s 			page 181


 7583              		.thumb
 7584              		.thumb_func
 7586              	lis2dw12_6d_feed_data_set:
 7587              	.LFB105:
2874:Core/Src/lis2dw12_reg.c **** /**
2875:Core/Src/lis2dw12_reg.c ****   * @brief  Data sent to 6D interrupt function.[set]
2876:Core/Src/lis2dw12_reg.c ****   *
2877:Core/Src/lis2dw12_reg.c ****   * @param  ctx      read / write interface definitions
2878:Core/Src/lis2dw12_reg.c ****   * @param  val      change the values of lpass_on6d in reg CTRL_REG7
2879:Core/Src/lis2dw12_reg.c ****   * @retval          interface status (MANDATORY: return 0 -> no Error)
2880:Core/Src/lis2dw12_reg.c ****   *
2881:Core/Src/lis2dw12_reg.c ****   */
2882:Core/Src/lis2dw12_reg.c **** int32_t lis2dw12_6d_feed_data_set(const stmdev_ctx_t *ctx,
2883:Core/Src/lis2dw12_reg.c ****                                   lis2dw12_lpass_on6d_t val)
2884:Core/Src/lis2dw12_reg.c **** {
 7588              		.loc 1 2884 1
 7589              		.cfi_startproc
 7590              		@ args = 0, pretend = 0, frame = 16
 7591              		@ frame_needed = 1, uses_anonymous_args = 0
 7592 0000 80B5     		push	{r7, lr}
 7593              	.LCFI525:
 7594              		.cfi_def_cfa_offset 8
 7595              		.cfi_offset 7, -8
 7596              		.cfi_offset 14, -4
 7597 0002 84B0     		sub	sp, sp, #16
 7598              	.LCFI526:
 7599              		.cfi_def_cfa_offset 24
 7600 0004 00AF     		add	r7, sp, #0
 7601              	.LCFI527:
 7602              		.cfi_def_cfa_register 7
 7603 0006 7860     		str	r0, [r7, #4]
 7604 0008 0B46     		mov	r3, r1
 7605 000a FB70     		strb	r3, [r7, #3]
2885:Core/Src/lis2dw12_reg.c ****   lis2dw12_ctrl_reg7_t reg;
2886:Core/Src/lis2dw12_reg.c ****   int32_t ret;
2887:Core/Src/lis2dw12_reg.c **** 
2888:Core/Src/lis2dw12_reg.c ****   ret = lis2dw12_read_reg(ctx, LIS2DW12_CTRL_REG7, (uint8_t *) &reg, 1);
 7606              		.loc 1 2888 9
 7607 000c 07F10802 		add	r2, r7, #8
 7608 0010 0123     		movs	r3, #1
 7609 0012 3F21     		movs	r1, #63
 7610 0014 7868     		ldr	r0, [r7, #4]
 7611 0016 FFF7FEFF 		bl	lis2dw12_read_reg
 7612 001a F860     		str	r0, [r7, #12]
2889:Core/Src/lis2dw12_reg.c **** 
2890:Core/Src/lis2dw12_reg.c ****   if (ret == 0)
 7613              		.loc 1 2890 6
 7614 001c FB68     		ldr	r3, [r7, #12]
 7615 001e 002B     		cmp	r3, #0
 7616 0020 0FD1     		bne	.L412
2891:Core/Src/lis2dw12_reg.c ****   {
2892:Core/Src/lis2dw12_reg.c ****     reg.lpass_on6d = (uint8_t) val;
 7617              		.loc 1 2892 22
 7618 0022 FB78     		ldrb	r3, [r7, #3]
 7619 0024 03F00103 		and	r3, r3, #1
 7620 0028 DAB2     		uxtb	r2, r3
 7621              		.loc 1 2892 20
ARM GAS  C:\Users\vct344\AppData\Local\Temp\ccePc7Ac.s 			page 182


 7622 002a 3B7A     		ldrb	r3, [r7, #8]
 7623 002c 62F30003 		bfi	r3, r2, #0, #1
 7624 0030 3B72     		strb	r3, [r7, #8]
2893:Core/Src/lis2dw12_reg.c ****     ret = lis2dw12_write_reg(ctx, LIS2DW12_CTRL_REG7, (uint8_t *) &reg, 1);
 7625              		.loc 1 2893 11
 7626 0032 07F10802 		add	r2, r7, #8
 7627 0036 0123     		movs	r3, #1
 7628 0038 3F21     		movs	r1, #63
 7629 003a 7868     		ldr	r0, [r7, #4]
 7630 003c FFF7FEFF 		bl	lis2dw12_write_reg
 7631 0040 F860     		str	r0, [r7, #12]
 7632              	.L412:
2894:Core/Src/lis2dw12_reg.c ****   }
2895:Core/Src/lis2dw12_reg.c **** 
2896:Core/Src/lis2dw12_reg.c ****   return ret;
 7633              		.loc 1 2896 10
 7634 0042 FB68     		ldr	r3, [r7, #12]
2897:Core/Src/lis2dw12_reg.c **** }
 7635              		.loc 1 2897 1
 7636 0044 1846     		mov	r0, r3
 7637 0046 1037     		adds	r7, r7, #16
 7638              	.LCFI528:
 7639              		.cfi_def_cfa_offset 8
 7640 0048 BD46     		mov	sp, r7
 7641              	.LCFI529:
 7642              		.cfi_def_cfa_register 13
 7643              		@ sp needed
 7644 004a 80BD     		pop	{r7, pc}
 7645              		.cfi_endproc
 7646              	.LFE105:
 7648              		.section	.text.lis2dw12_6d_feed_data_get,"ax",%progbits
 7649              		.align	1
 7650              		.global	lis2dw12_6d_feed_data_get
 7651              		.syntax unified
 7652              		.thumb
 7653              		.thumb_func
 7655              	lis2dw12_6d_feed_data_get:
 7656              	.LFB106:
2898:Core/Src/lis2dw12_reg.c **** 
2899:Core/Src/lis2dw12_reg.c **** /**
2900:Core/Src/lis2dw12_reg.c ****   * @brief  Data sent to 6D interrupt function.[get]
2901:Core/Src/lis2dw12_reg.c ****   *
2902:Core/Src/lis2dw12_reg.c ****   * @param  ctx      read / write interface definitions
2903:Core/Src/lis2dw12_reg.c ****   * @param  val      Get the values of lpass_on6d in reg CTRL_REG7
2904:Core/Src/lis2dw12_reg.c ****   * @retval          interface status (MANDATORY: return 0 -> no Error)
2905:Core/Src/lis2dw12_reg.c ****   *
2906:Core/Src/lis2dw12_reg.c ****   */
2907:Core/Src/lis2dw12_reg.c **** int32_t lis2dw12_6d_feed_data_get(const stmdev_ctx_t *ctx,
2908:Core/Src/lis2dw12_reg.c ****                                   lis2dw12_lpass_on6d_t *val)
2909:Core/Src/lis2dw12_reg.c **** {
 7657              		.loc 1 2909 1
 7658              		.cfi_startproc
 7659              		@ args = 0, pretend = 0, frame = 16
 7660              		@ frame_needed = 1, uses_anonymous_args = 0
 7661 0000 80B5     		push	{r7, lr}
 7662              	.LCFI530:
 7663              		.cfi_def_cfa_offset 8
ARM GAS  C:\Users\vct344\AppData\Local\Temp\ccePc7Ac.s 			page 183


 7664              		.cfi_offset 7, -8
 7665              		.cfi_offset 14, -4
 7666 0002 84B0     		sub	sp, sp, #16
 7667              	.LCFI531:
 7668              		.cfi_def_cfa_offset 24
 7669 0004 00AF     		add	r7, sp, #0
 7670              	.LCFI532:
 7671              		.cfi_def_cfa_register 7
 7672 0006 7860     		str	r0, [r7, #4]
 7673 0008 3960     		str	r1, [r7]
2910:Core/Src/lis2dw12_reg.c ****   lis2dw12_ctrl_reg7_t reg;
2911:Core/Src/lis2dw12_reg.c ****   int32_t ret;
2912:Core/Src/lis2dw12_reg.c **** 
2913:Core/Src/lis2dw12_reg.c ****   ret = lis2dw12_read_reg(ctx, LIS2DW12_CTRL_REG7, (uint8_t *) &reg, 1);
 7674              		.loc 1 2913 9
 7675 000a 07F10802 		add	r2, r7, #8
 7676 000e 0123     		movs	r3, #1
 7677 0010 3F21     		movs	r1, #63
 7678 0012 7868     		ldr	r0, [r7, #4]
 7679 0014 FFF7FEFF 		bl	lis2dw12_read_reg
 7680 0018 F860     		str	r0, [r7, #12]
2914:Core/Src/lis2dw12_reg.c **** 
2915:Core/Src/lis2dw12_reg.c ****   switch (reg.lpass_on6d)
 7681              		.loc 1 2915 14
 7682 001a 3B7A     		ldrb	r3, [r7, #8]
 7683 001c C3F30003 		ubfx	r3, r3, #0, #1
 7684 0020 DBB2     		uxtb	r3, r3
 7685              		.loc 1 2915 3
 7686 0022 002B     		cmp	r3, #0
 7687 0024 02D0     		beq	.L415
 7688 0026 012B     		cmp	r3, #1
 7689 0028 04D0     		beq	.L416
 7690 002a 07E0     		b	.L420
 7691              	.L415:
2916:Core/Src/lis2dw12_reg.c ****   {
2917:Core/Src/lis2dw12_reg.c ****     case LIS2DW12_ODR_DIV_2_FEED:
2918:Core/Src/lis2dw12_reg.c ****       *val = LIS2DW12_ODR_DIV_2_FEED;
 7692              		.loc 1 2918 12
 7693 002c 3B68     		ldr	r3, [r7]
 7694 002e 0022     		movs	r2, #0
 7695 0030 1A70     		strb	r2, [r3]
2919:Core/Src/lis2dw12_reg.c ****       break;
 7696              		.loc 1 2919 7
 7697 0032 07E0     		b	.L418
 7698              	.L416:
2920:Core/Src/lis2dw12_reg.c **** 
2921:Core/Src/lis2dw12_reg.c ****     case LIS2DW12_LPF2_FEED:
2922:Core/Src/lis2dw12_reg.c ****       *val = LIS2DW12_LPF2_FEED;
 7699              		.loc 1 2922 12
 7700 0034 3B68     		ldr	r3, [r7]
 7701 0036 0122     		movs	r2, #1
 7702 0038 1A70     		strb	r2, [r3]
2923:Core/Src/lis2dw12_reg.c ****       break;
 7703              		.loc 1 2923 7
 7704 003a 03E0     		b	.L418
 7705              	.L420:
2924:Core/Src/lis2dw12_reg.c **** 
ARM GAS  C:\Users\vct344\AppData\Local\Temp\ccePc7Ac.s 			page 184


2925:Core/Src/lis2dw12_reg.c ****     default:
2926:Core/Src/lis2dw12_reg.c ****       *val = LIS2DW12_ODR_DIV_2_FEED;
 7706              		.loc 1 2926 12
 7707 003c 3B68     		ldr	r3, [r7]
 7708 003e 0022     		movs	r2, #0
 7709 0040 1A70     		strb	r2, [r3]
2927:Core/Src/lis2dw12_reg.c ****       break;
 7710              		.loc 1 2927 7
 7711 0042 00BF     		nop
 7712              	.L418:
2928:Core/Src/lis2dw12_reg.c ****   }
2929:Core/Src/lis2dw12_reg.c **** 
2930:Core/Src/lis2dw12_reg.c ****   return ret;
 7713              		.loc 1 2930 10
 7714 0044 FB68     		ldr	r3, [r7, #12]
2931:Core/Src/lis2dw12_reg.c **** }
 7715              		.loc 1 2931 1
 7716 0046 1846     		mov	r0, r3
 7717 0048 1037     		adds	r7, r7, #16
 7718              	.LCFI533:
 7719              		.cfi_def_cfa_offset 8
 7720 004a BD46     		mov	sp, r7
 7721              	.LCFI534:
 7722              		.cfi_def_cfa_register 13
 7723              		@ sp needed
 7724 004c 80BD     		pop	{r7, pc}
 7725              		.cfi_endproc
 7726              	.LFE106:
 7728              		.section	.text.lis2dw12_ff_dur_set,"ax",%progbits
 7729              		.align	1
 7730              		.global	lis2dw12_ff_dur_set
 7731              		.syntax unified
 7732              		.thumb
 7733              		.thumb_func
 7735              	lis2dw12_ff_dur_set:
 7736              	.LFB107:
2932:Core/Src/lis2dw12_reg.c **** 
2933:Core/Src/lis2dw12_reg.c **** /**
2934:Core/Src/lis2dw12_reg.c ****   * @}
2935:Core/Src/lis2dw12_reg.c ****   *
2936:Core/Src/lis2dw12_reg.c ****   */
2937:Core/Src/lis2dw12_reg.c **** 
2938:Core/Src/lis2dw12_reg.c **** /**
2939:Core/Src/lis2dw12_reg.c ****   * @defgroup  LIS2DW12_Free_Fall
2940:Core/Src/lis2dw12_reg.c ****   * @brief     This section group all the functions concerning
2941:Core/Src/lis2dw12_reg.c ****   *            the free fall detection.
2942:Core/Src/lis2dw12_reg.c ****   * @{
2943:Core/Src/lis2dw12_reg.c ****   *
2944:Core/Src/lis2dw12_reg.c ****   */
2945:Core/Src/lis2dw12_reg.c **** 
2946:Core/Src/lis2dw12_reg.c **** /**
2947:Core/Src/lis2dw12_reg.c ****   * @brief  Free fall duration event(1LSb = 1 / ODR).[set]
2948:Core/Src/lis2dw12_reg.c ****   *
2949:Core/Src/lis2dw12_reg.c ****   * @param  ctx      read / write interface definitions
2950:Core/Src/lis2dw12_reg.c ****   * @param  val      change the values of ff_dur in reg
2951:Core/Src/lis2dw12_reg.c ****   *                  WAKE_UP_DUR /F REE_FALL
2952:Core/Src/lis2dw12_reg.c ****   * @retval          interface status (MANDATORY: return 0 -> no Error)
ARM GAS  C:\Users\vct344\AppData\Local\Temp\ccePc7Ac.s 			page 185


2953:Core/Src/lis2dw12_reg.c ****   *
2954:Core/Src/lis2dw12_reg.c ****   */
2955:Core/Src/lis2dw12_reg.c **** int32_t lis2dw12_ff_dur_set(const stmdev_ctx_t *ctx, uint8_t val)
2956:Core/Src/lis2dw12_reg.c **** {
 7737              		.loc 1 2956 1
 7738              		.cfi_startproc
 7739              		@ args = 0, pretend = 0, frame = 24
 7740              		@ frame_needed = 1, uses_anonymous_args = 0
 7741 0000 80B5     		push	{r7, lr}
 7742              	.LCFI535:
 7743              		.cfi_def_cfa_offset 8
 7744              		.cfi_offset 7, -8
 7745              		.cfi_offset 14, -4
 7746 0002 86B0     		sub	sp, sp, #24
 7747              	.LCFI536:
 7748              		.cfi_def_cfa_offset 32
 7749 0004 00AF     		add	r7, sp, #0
 7750              	.LCFI537:
 7751              		.cfi_def_cfa_register 7
 7752 0006 7860     		str	r0, [r7, #4]
 7753 0008 0B46     		mov	r3, r1
 7754 000a FB70     		strb	r3, [r7, #3]
2957:Core/Src/lis2dw12_reg.c ****   lis2dw12_wake_up_dur_t wake_up_dur;
2958:Core/Src/lis2dw12_reg.c ****   lis2dw12_free_fall_t free_fall;
2959:Core/Src/lis2dw12_reg.c ****   int32_t ret;
2960:Core/Src/lis2dw12_reg.c **** 
2961:Core/Src/lis2dw12_reg.c ****   ret = lis2dw12_read_reg(ctx, LIS2DW12_WAKE_UP_DUR,
 7755              		.loc 1 2961 9
 7756 000c 07F11002 		add	r2, r7, #16
 7757 0010 0123     		movs	r3, #1
 7758 0012 3521     		movs	r1, #53
 7759 0014 7868     		ldr	r0, [r7, #4]
 7760 0016 FFF7FEFF 		bl	lis2dw12_read_reg
 7761 001a 7861     		str	r0, [r7, #20]
2962:Core/Src/lis2dw12_reg.c ****                           (uint8_t *) &wake_up_dur, 1);
2963:Core/Src/lis2dw12_reg.c **** 
2964:Core/Src/lis2dw12_reg.c ****   if (ret == 0)
 7762              		.loc 1 2964 6
 7763 001c 7B69     		ldr	r3, [r7, #20]
 7764 001e 002B     		cmp	r3, #0
 7765 0020 07D1     		bne	.L422
2965:Core/Src/lis2dw12_reg.c ****   {
2966:Core/Src/lis2dw12_reg.c ****     ret = lis2dw12_read_reg(ctx, LIS2DW12_FREE_FALL,
 7766              		.loc 1 2966 11
 7767 0022 07F10C02 		add	r2, r7, #12
 7768 0026 0123     		movs	r3, #1
 7769 0028 3621     		movs	r1, #54
 7770 002a 7868     		ldr	r0, [r7, #4]
 7771 002c FFF7FEFF 		bl	lis2dw12_read_reg
 7772 0030 7861     		str	r0, [r7, #20]
 7773              	.L422:
2967:Core/Src/lis2dw12_reg.c ****                             (uint8_t *) &free_fall, 1);
2968:Core/Src/lis2dw12_reg.c ****   }
2969:Core/Src/lis2dw12_reg.c **** 
2970:Core/Src/lis2dw12_reg.c ****   if (ret == 0)
 7774              		.loc 1 2970 6
 7775 0032 7B69     		ldr	r3, [r7, #20]
ARM GAS  C:\Users\vct344\AppData\Local\Temp\ccePc7Ac.s 			page 186


 7776 0034 002B     		cmp	r3, #0
 7777 0036 18D1     		bne	.L423
2971:Core/Src/lis2dw12_reg.c ****   {
2972:Core/Src/lis2dw12_reg.c ****     wake_up_dur.ff_dur = ((uint8_t) val & 0x20U) >> 5;
 7778              		.loc 1 2972 50
 7779 0038 FB78     		ldrb	r3, [r7, #3]	@ zero_extendqisi2
 7780 003a 5B09     		lsrs	r3, r3, #5
 7781 003c 03F00103 		and	r3, r3, #1
 7782 0040 DAB2     		uxtb	r2, r3
 7783              		.loc 1 2972 24
 7784 0042 3B7C     		ldrb	r3, [r7, #16]
 7785 0044 62F3C713 		bfi	r3, r2, #7, #1
 7786 0048 3B74     		strb	r3, [r7, #16]
2973:Core/Src/lis2dw12_reg.c ****     free_fall.ff_dur = (uint8_t) val & 0x1FU;
 7787              		.loc 1 2973 38
 7788 004a FB78     		ldrb	r3, [r7, #3]
 7789 004c 03F01F03 		and	r3, r3, #31
 7790 0050 DAB2     		uxtb	r2, r3
 7791              		.loc 1 2973 22
 7792 0052 3B7B     		ldrb	r3, [r7, #12]
 7793 0054 62F3C703 		bfi	r3, r2, #3, #5
 7794 0058 3B73     		strb	r3, [r7, #12]
2974:Core/Src/lis2dw12_reg.c ****     ret = lis2dw12_write_reg(ctx, LIS2DW12_WAKE_UP_DUR,
 7795              		.loc 1 2974 11
 7796 005a 07F11002 		add	r2, r7, #16
 7797 005e 0123     		movs	r3, #1
 7798 0060 3521     		movs	r1, #53
 7799 0062 7868     		ldr	r0, [r7, #4]
 7800 0064 FFF7FEFF 		bl	lis2dw12_write_reg
 7801 0068 7861     		str	r0, [r7, #20]
 7802              	.L423:
2975:Core/Src/lis2dw12_reg.c ****                              (uint8_t *) &wake_up_dur, 1);
2976:Core/Src/lis2dw12_reg.c ****   }
2977:Core/Src/lis2dw12_reg.c **** 
2978:Core/Src/lis2dw12_reg.c ****   if (ret == 0)
 7803              		.loc 1 2978 6
 7804 006a 7B69     		ldr	r3, [r7, #20]
 7805 006c 002B     		cmp	r3, #0
 7806 006e 07D1     		bne	.L424
2979:Core/Src/lis2dw12_reg.c ****   {
2980:Core/Src/lis2dw12_reg.c ****     ret = lis2dw12_write_reg(ctx, LIS2DW12_FREE_FALL,
 7807              		.loc 1 2980 11
 7808 0070 07F10C02 		add	r2, r7, #12
 7809 0074 0123     		movs	r3, #1
 7810 0076 3621     		movs	r1, #54
 7811 0078 7868     		ldr	r0, [r7, #4]
 7812 007a FFF7FEFF 		bl	lis2dw12_write_reg
 7813 007e 7861     		str	r0, [r7, #20]
 7814              	.L424:
2981:Core/Src/lis2dw12_reg.c ****                              (uint8_t *) &free_fall, 1);
2982:Core/Src/lis2dw12_reg.c ****   }
2983:Core/Src/lis2dw12_reg.c **** 
2984:Core/Src/lis2dw12_reg.c ****   return ret;
 7815              		.loc 1 2984 10
 7816 0080 7B69     		ldr	r3, [r7, #20]
2985:Core/Src/lis2dw12_reg.c **** }
 7817              		.loc 1 2985 1
ARM GAS  C:\Users\vct344\AppData\Local\Temp\ccePc7Ac.s 			page 187


 7818 0082 1846     		mov	r0, r3
 7819 0084 1837     		adds	r7, r7, #24
 7820              	.LCFI538:
 7821              		.cfi_def_cfa_offset 8
 7822 0086 BD46     		mov	sp, r7
 7823              	.LCFI539:
 7824              		.cfi_def_cfa_register 13
 7825              		@ sp needed
 7826 0088 80BD     		pop	{r7, pc}
 7827              		.cfi_endproc
 7828              	.LFE107:
 7830              		.section	.text.lis2dw12_ff_dur_get,"ax",%progbits
 7831              		.align	1
 7832              		.global	lis2dw12_ff_dur_get
 7833              		.syntax unified
 7834              		.thumb
 7835              		.thumb_func
 7837              	lis2dw12_ff_dur_get:
 7838              	.LFB108:
2986:Core/Src/lis2dw12_reg.c **** 
2987:Core/Src/lis2dw12_reg.c **** /**
2988:Core/Src/lis2dw12_reg.c ****   * @brief  Free fall duration event(1LSb = 1 / ODR).[get]
2989:Core/Src/lis2dw12_reg.c ****   *
2990:Core/Src/lis2dw12_reg.c ****   * @param  ctx      read / write interface definitions
2991:Core/Src/lis2dw12_reg.c ****   * @param  val      change the values of ff_dur in
2992:Core/Src/lis2dw12_reg.c ****   *                  reg WAKE_UP_DUR /F REE_FALL
2993:Core/Src/lis2dw12_reg.c ****   * @retval          interface status (MANDATORY: return 0 -> no Error)
2994:Core/Src/lis2dw12_reg.c ****   *
2995:Core/Src/lis2dw12_reg.c ****   */
2996:Core/Src/lis2dw12_reg.c **** int32_t lis2dw12_ff_dur_get(const stmdev_ctx_t *ctx, uint8_t *val)
2997:Core/Src/lis2dw12_reg.c **** {
 7839              		.loc 1 2997 1
 7840              		.cfi_startproc
 7841              		@ args = 0, pretend = 0, frame = 24
 7842              		@ frame_needed = 1, uses_anonymous_args = 0
 7843 0000 80B5     		push	{r7, lr}
 7844              	.LCFI540:
 7845              		.cfi_def_cfa_offset 8
 7846              		.cfi_offset 7, -8
 7847              		.cfi_offset 14, -4
 7848 0002 86B0     		sub	sp, sp, #24
 7849              	.LCFI541:
 7850              		.cfi_def_cfa_offset 32
 7851 0004 00AF     		add	r7, sp, #0
 7852              	.LCFI542:
 7853              		.cfi_def_cfa_register 7
 7854 0006 7860     		str	r0, [r7, #4]
 7855 0008 3960     		str	r1, [r7]
2998:Core/Src/lis2dw12_reg.c ****   lis2dw12_wake_up_dur_t wake_up_dur;
2999:Core/Src/lis2dw12_reg.c ****   lis2dw12_free_fall_t free_fall;
3000:Core/Src/lis2dw12_reg.c ****   int32_t ret;
3001:Core/Src/lis2dw12_reg.c **** 
3002:Core/Src/lis2dw12_reg.c ****   ret = lis2dw12_read_reg(ctx, LIS2DW12_WAKE_UP_DUR,
 7856              		.loc 1 3002 9
 7857 000a 07F11002 		add	r2, r7, #16
 7858 000e 0123     		movs	r3, #1
 7859 0010 3521     		movs	r1, #53
ARM GAS  C:\Users\vct344\AppData\Local\Temp\ccePc7Ac.s 			page 188


 7860 0012 7868     		ldr	r0, [r7, #4]
 7861 0014 FFF7FEFF 		bl	lis2dw12_read_reg
 7862 0018 7861     		str	r0, [r7, #20]
3003:Core/Src/lis2dw12_reg.c ****                           (uint8_t *) &wake_up_dur, 1);
3004:Core/Src/lis2dw12_reg.c **** 
3005:Core/Src/lis2dw12_reg.c ****   if (ret == 0)
 7863              		.loc 1 3005 6
 7864 001a 7B69     		ldr	r3, [r7, #20]
 7865 001c 002B     		cmp	r3, #0
 7866 001e 15D1     		bne	.L427
3006:Core/Src/lis2dw12_reg.c ****   {
3007:Core/Src/lis2dw12_reg.c ****     ret = lis2dw12_read_reg(ctx, LIS2DW12_FREE_FALL,
 7867              		.loc 1 3007 11
 7868 0020 07F10C02 		add	r2, r7, #12
 7869 0024 0123     		movs	r3, #1
 7870 0026 3621     		movs	r1, #54
 7871 0028 7868     		ldr	r0, [r7, #4]
 7872 002a FFF7FEFF 		bl	lis2dw12_read_reg
 7873 002e 7861     		str	r0, [r7, #20]
3008:Core/Src/lis2dw12_reg.c ****                             (uint8_t *) &free_fall, 1);
3009:Core/Src/lis2dw12_reg.c ****     *val = (wake_up_dur.ff_dur << 5) + free_fall.ff_dur;
 7874              		.loc 1 3009 24
 7875 0030 3B7C     		ldrb	r3, [r7, #16]
 7876 0032 C3F3C013 		ubfx	r3, r3, #7, #1
 7877 0036 DBB2     		uxtb	r3, r3
 7878              		.loc 1 3009 32
 7879 0038 5B01     		lsls	r3, r3, #5
 7880 003a DBB2     		uxtb	r3, r3
 7881              		.loc 1 3009 49
 7882 003c 3A7B     		ldrb	r2, [r7, #12]
 7883 003e C2F3C402 		ubfx	r2, r2, #3, #5
 7884 0042 D2B2     		uxtb	r2, r2
 7885              		.loc 1 3009 38
 7886 0044 1344     		add	r3, r3, r2
 7887 0046 DAB2     		uxtb	r2, r3
 7888              		.loc 1 3009 10
 7889 0048 3B68     		ldr	r3, [r7]
 7890 004a 1A70     		strb	r2, [r3]
 7891              	.L427:
3010:Core/Src/lis2dw12_reg.c ****   }
3011:Core/Src/lis2dw12_reg.c **** 
3012:Core/Src/lis2dw12_reg.c ****   return ret;
 7892              		.loc 1 3012 10
 7893 004c 7B69     		ldr	r3, [r7, #20]
3013:Core/Src/lis2dw12_reg.c **** }
 7894              		.loc 1 3013 1
 7895 004e 1846     		mov	r0, r3
 7896 0050 1837     		adds	r7, r7, #24
 7897              	.LCFI543:
 7898              		.cfi_def_cfa_offset 8
 7899 0052 BD46     		mov	sp, r7
 7900              	.LCFI544:
 7901              		.cfi_def_cfa_register 13
 7902              		@ sp needed
 7903 0054 80BD     		pop	{r7, pc}
 7904              		.cfi_endproc
 7905              	.LFE108:
ARM GAS  C:\Users\vct344\AppData\Local\Temp\ccePc7Ac.s 			page 189


 7907              		.section	.text.lis2dw12_ff_threshold_set,"ax",%progbits
 7908              		.align	1
 7909              		.global	lis2dw12_ff_threshold_set
 7910              		.syntax unified
 7911              		.thumb
 7912              		.thumb_func
 7914              	lis2dw12_ff_threshold_set:
 7915              	.LFB109:
3014:Core/Src/lis2dw12_reg.c **** 
3015:Core/Src/lis2dw12_reg.c **** /**
3016:Core/Src/lis2dw12_reg.c ****   * @brief  Free fall threshold setting.[set]
3017:Core/Src/lis2dw12_reg.c ****   *
3018:Core/Src/lis2dw12_reg.c ****   * @param  ctx      read / write interface definitions
3019:Core/Src/lis2dw12_reg.c ****   * @param  val      change the values of ff_ths in reg FREE_FALL
3020:Core/Src/lis2dw12_reg.c ****   * @retval          interface status (MANDATORY: return 0 -> no Error)
3021:Core/Src/lis2dw12_reg.c ****   *
3022:Core/Src/lis2dw12_reg.c ****   */
3023:Core/Src/lis2dw12_reg.c **** int32_t lis2dw12_ff_threshold_set(const stmdev_ctx_t *ctx,
3024:Core/Src/lis2dw12_reg.c ****                                   lis2dw12_ff_ths_t val)
3025:Core/Src/lis2dw12_reg.c **** {
 7916              		.loc 1 3025 1
 7917              		.cfi_startproc
 7918              		@ args = 0, pretend = 0, frame = 16
 7919              		@ frame_needed = 1, uses_anonymous_args = 0
 7920 0000 80B5     		push	{r7, lr}
 7921              	.LCFI545:
 7922              		.cfi_def_cfa_offset 8
 7923              		.cfi_offset 7, -8
 7924              		.cfi_offset 14, -4
 7925 0002 84B0     		sub	sp, sp, #16
 7926              	.LCFI546:
 7927              		.cfi_def_cfa_offset 24
 7928 0004 00AF     		add	r7, sp, #0
 7929              	.LCFI547:
 7930              		.cfi_def_cfa_register 7
 7931 0006 7860     		str	r0, [r7, #4]
 7932 0008 0B46     		mov	r3, r1
 7933 000a FB70     		strb	r3, [r7, #3]
3026:Core/Src/lis2dw12_reg.c ****   lis2dw12_free_fall_t reg;
3027:Core/Src/lis2dw12_reg.c ****   int32_t ret;
3028:Core/Src/lis2dw12_reg.c **** 
3029:Core/Src/lis2dw12_reg.c ****   ret = lis2dw12_read_reg(ctx, LIS2DW12_FREE_FALL, (uint8_t *) &reg, 1);
 7934              		.loc 1 3029 9
 7935 000c 07F10802 		add	r2, r7, #8
 7936 0010 0123     		movs	r3, #1
 7937 0012 3621     		movs	r1, #54
 7938 0014 7868     		ldr	r0, [r7, #4]
 7939 0016 FFF7FEFF 		bl	lis2dw12_read_reg
 7940 001a F860     		str	r0, [r7, #12]
3030:Core/Src/lis2dw12_reg.c **** 
3031:Core/Src/lis2dw12_reg.c ****   if (ret == 0)
 7941              		.loc 1 3031 6
 7942 001c FB68     		ldr	r3, [r7, #12]
 7943 001e 002B     		cmp	r3, #0
 7944 0020 0FD1     		bne	.L430
3032:Core/Src/lis2dw12_reg.c ****   {
3033:Core/Src/lis2dw12_reg.c ****     reg.ff_ths = (uint8_t) val;
ARM GAS  C:\Users\vct344\AppData\Local\Temp\ccePc7Ac.s 			page 190


 7945              		.loc 1 3033 18
 7946 0022 FB78     		ldrb	r3, [r7, #3]
 7947 0024 03F00703 		and	r3, r3, #7
 7948 0028 DAB2     		uxtb	r2, r3
 7949              		.loc 1 3033 16
 7950 002a 3B7A     		ldrb	r3, [r7, #8]
 7951 002c 62F30203 		bfi	r3, r2, #0, #3
 7952 0030 3B72     		strb	r3, [r7, #8]
3034:Core/Src/lis2dw12_reg.c ****     ret = lis2dw12_write_reg(ctx, LIS2DW12_FREE_FALL, (uint8_t *) &reg, 1);
 7953              		.loc 1 3034 11
 7954 0032 07F10802 		add	r2, r7, #8
 7955 0036 0123     		movs	r3, #1
 7956 0038 3621     		movs	r1, #54
 7957 003a 7868     		ldr	r0, [r7, #4]
 7958 003c FFF7FEFF 		bl	lis2dw12_write_reg
 7959 0040 F860     		str	r0, [r7, #12]
 7960              	.L430:
3035:Core/Src/lis2dw12_reg.c ****   }
3036:Core/Src/lis2dw12_reg.c **** 
3037:Core/Src/lis2dw12_reg.c ****   return ret;
 7961              		.loc 1 3037 10
 7962 0042 FB68     		ldr	r3, [r7, #12]
3038:Core/Src/lis2dw12_reg.c **** }
 7963              		.loc 1 3038 1
 7964 0044 1846     		mov	r0, r3
 7965 0046 1037     		adds	r7, r7, #16
 7966              	.LCFI548:
 7967              		.cfi_def_cfa_offset 8
 7968 0048 BD46     		mov	sp, r7
 7969              	.LCFI549:
 7970              		.cfi_def_cfa_register 13
 7971              		@ sp needed
 7972 004a 80BD     		pop	{r7, pc}
 7973              		.cfi_endproc
 7974              	.LFE109:
 7976              		.section	.text.lis2dw12_ff_threshold_get,"ax",%progbits
 7977              		.align	1
 7978              		.global	lis2dw12_ff_threshold_get
 7979              		.syntax unified
 7980              		.thumb
 7981              		.thumb_func
 7983              	lis2dw12_ff_threshold_get:
 7984              	.LFB110:
3039:Core/Src/lis2dw12_reg.c **** 
3040:Core/Src/lis2dw12_reg.c **** /**
3041:Core/Src/lis2dw12_reg.c ****   * @brief  Free fall threshold setting.[get]
3042:Core/Src/lis2dw12_reg.c ****   *
3043:Core/Src/lis2dw12_reg.c ****   * @param  ctx      read / write interface definitions
3044:Core/Src/lis2dw12_reg.c ****   * @param  val      Get the values of ff_ths in reg FREE_FALL
3045:Core/Src/lis2dw12_reg.c ****   * @retval          interface status (MANDATORY: return 0 -> no Error)
3046:Core/Src/lis2dw12_reg.c ****   *
3047:Core/Src/lis2dw12_reg.c ****   */
3048:Core/Src/lis2dw12_reg.c **** int32_t lis2dw12_ff_threshold_get(const stmdev_ctx_t *ctx,
3049:Core/Src/lis2dw12_reg.c ****                                   lis2dw12_ff_ths_t *val)
3050:Core/Src/lis2dw12_reg.c **** {
 7985              		.loc 1 3050 1
 7986              		.cfi_startproc
ARM GAS  C:\Users\vct344\AppData\Local\Temp\ccePc7Ac.s 			page 191


 7987              		@ args = 0, pretend = 0, frame = 16
 7988              		@ frame_needed = 1, uses_anonymous_args = 0
 7989 0000 80B5     		push	{r7, lr}
 7990              	.LCFI550:
 7991              		.cfi_def_cfa_offset 8
 7992              		.cfi_offset 7, -8
 7993              		.cfi_offset 14, -4
 7994 0002 84B0     		sub	sp, sp, #16
 7995              	.LCFI551:
 7996              		.cfi_def_cfa_offset 24
 7997 0004 00AF     		add	r7, sp, #0
 7998              	.LCFI552:
 7999              		.cfi_def_cfa_register 7
 8000 0006 7860     		str	r0, [r7, #4]
 8001 0008 3960     		str	r1, [r7]
3051:Core/Src/lis2dw12_reg.c ****   lis2dw12_free_fall_t reg;
3052:Core/Src/lis2dw12_reg.c ****   int32_t ret;
3053:Core/Src/lis2dw12_reg.c **** 
3054:Core/Src/lis2dw12_reg.c ****   ret = lis2dw12_read_reg(ctx, LIS2DW12_FREE_FALL, (uint8_t *) &reg, 1);
 8002              		.loc 1 3054 9
 8003 000a 07F10802 		add	r2, r7, #8
 8004 000e 0123     		movs	r3, #1
 8005 0010 3621     		movs	r1, #54
 8006 0012 7868     		ldr	r0, [r7, #4]
 8007 0014 FFF7FEFF 		bl	lis2dw12_read_reg
 8008 0018 F860     		str	r0, [r7, #12]
3055:Core/Src/lis2dw12_reg.c **** 
3056:Core/Src/lis2dw12_reg.c ****   switch (reg.ff_ths)
 8009              		.loc 1 3056 14
 8010 001a 3B7A     		ldrb	r3, [r7, #8]
 8011 001c C3F30203 		ubfx	r3, r3, #0, #3
 8012 0020 DBB2     		uxtb	r3, r3
 8013              		.loc 1 3056 3
 8014 0022 072B     		cmp	r3, #7
 8015 0024 32D8     		bhi	.L433
 8016 0026 01A2     		adr	r2, .L435
 8017 0028 52F823F0 		ldr	pc, [r2, r3, lsl #2]
 8018              		.p2align 2
 8019              	.L435:
 8020 002c 4D000000 		.word	.L442+1
 8021 0030 55000000 		.word	.L441+1
 8022 0034 5D000000 		.word	.L440+1
 8023 0038 65000000 		.word	.L439+1
 8024 003c 6D000000 		.word	.L438+1
 8025 0040 75000000 		.word	.L437+1
 8026 0044 7D000000 		.word	.L436+1
 8027 0048 85000000 		.word	.L434+1
 8028              		.p2align 1
 8029              	.L442:
3057:Core/Src/lis2dw12_reg.c ****   {
3058:Core/Src/lis2dw12_reg.c ****     case LIS2DW12_FF_TSH_5LSb_FS2g:
3059:Core/Src/lis2dw12_reg.c ****       *val = LIS2DW12_FF_TSH_5LSb_FS2g;
 8030              		.loc 1 3059 12
 8031 004c 3B68     		ldr	r3, [r7]
 8032 004e 0022     		movs	r2, #0
 8033 0050 1A70     		strb	r2, [r3]
3060:Core/Src/lis2dw12_reg.c ****       break;
ARM GAS  C:\Users\vct344\AppData\Local\Temp\ccePc7Ac.s 			page 192


 8034              		.loc 1 3060 7
 8035 0052 1FE0     		b	.L443
 8036              	.L441:
3061:Core/Src/lis2dw12_reg.c **** 
3062:Core/Src/lis2dw12_reg.c ****     case LIS2DW12_FF_TSH_7LSb_FS2g:
3063:Core/Src/lis2dw12_reg.c ****       *val = LIS2DW12_FF_TSH_7LSb_FS2g;
 8037              		.loc 1 3063 12
 8038 0054 3B68     		ldr	r3, [r7]
 8039 0056 0122     		movs	r2, #1
 8040 0058 1A70     		strb	r2, [r3]
3064:Core/Src/lis2dw12_reg.c ****       break;
 8041              		.loc 1 3064 7
 8042 005a 1BE0     		b	.L443
 8043              	.L440:
3065:Core/Src/lis2dw12_reg.c **** 
3066:Core/Src/lis2dw12_reg.c ****     case LIS2DW12_FF_TSH_8LSb_FS2g:
3067:Core/Src/lis2dw12_reg.c ****       *val = LIS2DW12_FF_TSH_8LSb_FS2g;
 8044              		.loc 1 3067 12
 8045 005c 3B68     		ldr	r3, [r7]
 8046 005e 0222     		movs	r2, #2
 8047 0060 1A70     		strb	r2, [r3]
3068:Core/Src/lis2dw12_reg.c ****       break;
 8048              		.loc 1 3068 7
 8049 0062 17E0     		b	.L443
 8050              	.L439:
3069:Core/Src/lis2dw12_reg.c **** 
3070:Core/Src/lis2dw12_reg.c ****     case LIS2DW12_FF_TSH_10LSb_FS2g:
3071:Core/Src/lis2dw12_reg.c ****       *val = LIS2DW12_FF_TSH_10LSb_FS2g;
 8051              		.loc 1 3071 12
 8052 0064 3B68     		ldr	r3, [r7]
 8053 0066 0322     		movs	r2, #3
 8054 0068 1A70     		strb	r2, [r3]
3072:Core/Src/lis2dw12_reg.c ****       break;
 8055              		.loc 1 3072 7
 8056 006a 13E0     		b	.L443
 8057              	.L438:
3073:Core/Src/lis2dw12_reg.c **** 
3074:Core/Src/lis2dw12_reg.c ****     case LIS2DW12_FF_TSH_11LSb_FS2g:
3075:Core/Src/lis2dw12_reg.c ****       *val = LIS2DW12_FF_TSH_11LSb_FS2g;
 8058              		.loc 1 3075 12
 8059 006c 3B68     		ldr	r3, [r7]
 8060 006e 0422     		movs	r2, #4
 8061 0070 1A70     		strb	r2, [r3]
3076:Core/Src/lis2dw12_reg.c ****       break;
 8062              		.loc 1 3076 7
 8063 0072 0FE0     		b	.L443
 8064              	.L437:
3077:Core/Src/lis2dw12_reg.c **** 
3078:Core/Src/lis2dw12_reg.c ****     case LIS2DW12_FF_TSH_13LSb_FS2g:
3079:Core/Src/lis2dw12_reg.c ****       *val = LIS2DW12_FF_TSH_13LSb_FS2g;
 8065              		.loc 1 3079 12
 8066 0074 3B68     		ldr	r3, [r7]
 8067 0076 0522     		movs	r2, #5
 8068 0078 1A70     		strb	r2, [r3]
3080:Core/Src/lis2dw12_reg.c ****       break;
 8069              		.loc 1 3080 7
 8070 007a 0BE0     		b	.L443
ARM GAS  C:\Users\vct344\AppData\Local\Temp\ccePc7Ac.s 			page 193


 8071              	.L436:
3081:Core/Src/lis2dw12_reg.c **** 
3082:Core/Src/lis2dw12_reg.c ****     case LIS2DW12_FF_TSH_15LSb_FS2g:
3083:Core/Src/lis2dw12_reg.c ****       *val = LIS2DW12_FF_TSH_15LSb_FS2g;
 8072              		.loc 1 3083 12
 8073 007c 3B68     		ldr	r3, [r7]
 8074 007e 0622     		movs	r2, #6
 8075 0080 1A70     		strb	r2, [r3]
3084:Core/Src/lis2dw12_reg.c ****       break;
 8076              		.loc 1 3084 7
 8077 0082 07E0     		b	.L443
 8078              	.L434:
3085:Core/Src/lis2dw12_reg.c **** 
3086:Core/Src/lis2dw12_reg.c ****     case LIS2DW12_FF_TSH_16LSb_FS2g:
3087:Core/Src/lis2dw12_reg.c ****       *val = LIS2DW12_FF_TSH_16LSb_FS2g;
 8079              		.loc 1 3087 12
 8080 0084 3B68     		ldr	r3, [r7]
 8081 0086 0722     		movs	r2, #7
 8082 0088 1A70     		strb	r2, [r3]
3088:Core/Src/lis2dw12_reg.c ****       break;
 8083              		.loc 1 3088 7
 8084 008a 03E0     		b	.L443
 8085              	.L433:
3089:Core/Src/lis2dw12_reg.c **** 
3090:Core/Src/lis2dw12_reg.c ****     default:
3091:Core/Src/lis2dw12_reg.c ****       *val = LIS2DW12_FF_TSH_5LSb_FS2g;
 8086              		.loc 1 3091 12
 8087 008c 3B68     		ldr	r3, [r7]
 8088 008e 0022     		movs	r2, #0
 8089 0090 1A70     		strb	r2, [r3]
3092:Core/Src/lis2dw12_reg.c ****       break;
 8090              		.loc 1 3092 7
 8091 0092 00BF     		nop
 8092              	.L443:
3093:Core/Src/lis2dw12_reg.c ****   }
3094:Core/Src/lis2dw12_reg.c **** 
3095:Core/Src/lis2dw12_reg.c ****   return ret;
 8093              		.loc 1 3095 10
 8094 0094 FB68     		ldr	r3, [r7, #12]
3096:Core/Src/lis2dw12_reg.c **** }
 8095              		.loc 1 3096 1
 8096 0096 1846     		mov	r0, r3
 8097 0098 1037     		adds	r7, r7, #16
 8098              	.LCFI553:
 8099              		.cfi_def_cfa_offset 8
 8100 009a BD46     		mov	sp, r7
 8101              	.LCFI554:
 8102              		.cfi_def_cfa_register 13
 8103              		@ sp needed
 8104 009c 80BD     		pop	{r7, pc}
 8105              		.cfi_endproc
 8106              	.LFE110:
 8108 009e 00BF     		.section	.text.lis2dw12_fifo_watermark_set,"ax",%progbits
 8109              		.align	1
 8110              		.global	lis2dw12_fifo_watermark_set
 8111              		.syntax unified
 8112              		.thumb
ARM GAS  C:\Users\vct344\AppData\Local\Temp\ccePc7Ac.s 			page 194


 8113              		.thumb_func
 8115              	lis2dw12_fifo_watermark_set:
 8116              	.LFB111:
3097:Core/Src/lis2dw12_reg.c **** 
3098:Core/Src/lis2dw12_reg.c **** /**
3099:Core/Src/lis2dw12_reg.c ****   * @}
3100:Core/Src/lis2dw12_reg.c ****   *
3101:Core/Src/lis2dw12_reg.c ****   */
3102:Core/Src/lis2dw12_reg.c **** 
3103:Core/Src/lis2dw12_reg.c **** /**
3104:Core/Src/lis2dw12_reg.c ****   * @defgroup  LIS2DW12_Fifo
3105:Core/Src/lis2dw12_reg.c ****   * @brief     This section group all the functions concerning the fifo usage
3106:Core/Src/lis2dw12_reg.c ****   * @{
3107:Core/Src/lis2dw12_reg.c ****   *
3108:Core/Src/lis2dw12_reg.c ****   */
3109:Core/Src/lis2dw12_reg.c **** 
3110:Core/Src/lis2dw12_reg.c **** /**
3111:Core/Src/lis2dw12_reg.c ****   * @brief  FIFO watermark level selection.[set]
3112:Core/Src/lis2dw12_reg.c ****   *
3113:Core/Src/lis2dw12_reg.c ****   * @param  ctx      read / write interface definitions
3114:Core/Src/lis2dw12_reg.c ****   * @param  val      change the values of fth in reg FIFO_CTRL
3115:Core/Src/lis2dw12_reg.c ****   * @retval          interface status (MANDATORY: return 0 -> no Error)
3116:Core/Src/lis2dw12_reg.c ****   *
3117:Core/Src/lis2dw12_reg.c ****   */
3118:Core/Src/lis2dw12_reg.c **** int32_t lis2dw12_fifo_watermark_set(const stmdev_ctx_t *ctx, uint8_t val)
3119:Core/Src/lis2dw12_reg.c **** {
 8117              		.loc 1 3119 1
 8118              		.cfi_startproc
 8119              		@ args = 0, pretend = 0, frame = 16
 8120              		@ frame_needed = 1, uses_anonymous_args = 0
 8121 0000 80B5     		push	{r7, lr}
 8122              	.LCFI555:
 8123              		.cfi_def_cfa_offset 8
 8124              		.cfi_offset 7, -8
 8125              		.cfi_offset 14, -4
 8126 0002 84B0     		sub	sp, sp, #16
 8127              	.LCFI556:
 8128              		.cfi_def_cfa_offset 24
 8129 0004 00AF     		add	r7, sp, #0
 8130              	.LCFI557:
 8131              		.cfi_def_cfa_register 7
 8132 0006 7860     		str	r0, [r7, #4]
 8133 0008 0B46     		mov	r3, r1
 8134 000a FB70     		strb	r3, [r7, #3]
3120:Core/Src/lis2dw12_reg.c ****   lis2dw12_fifo_ctrl_t reg;
3121:Core/Src/lis2dw12_reg.c ****   int32_t ret;
3122:Core/Src/lis2dw12_reg.c **** 
3123:Core/Src/lis2dw12_reg.c ****   ret = lis2dw12_read_reg(ctx, LIS2DW12_FIFO_CTRL, (uint8_t *) &reg, 1);
 8135              		.loc 1 3123 9
 8136 000c 07F10802 		add	r2, r7, #8
 8137 0010 0123     		movs	r3, #1
 8138 0012 2E21     		movs	r1, #46
 8139 0014 7868     		ldr	r0, [r7, #4]
 8140 0016 FFF7FEFF 		bl	lis2dw12_read_reg
 8141 001a F860     		str	r0, [r7, #12]
3124:Core/Src/lis2dw12_reg.c **** 
3125:Core/Src/lis2dw12_reg.c ****   if (ret == 0)
ARM GAS  C:\Users\vct344\AppData\Local\Temp\ccePc7Ac.s 			page 195


 8142              		.loc 1 3125 6
 8143 001c FB68     		ldr	r3, [r7, #12]
 8144 001e 002B     		cmp	r3, #0
 8145 0020 0FD1     		bne	.L446
3126:Core/Src/lis2dw12_reg.c ****   {
3127:Core/Src/lis2dw12_reg.c ****     reg.fth = val;
 8146              		.loc 1 3127 13
 8147 0022 FB78     		ldrb	r3, [r7, #3]
 8148 0024 03F01F03 		and	r3, r3, #31
 8149 0028 DAB2     		uxtb	r2, r3
 8150 002a 3B7A     		ldrb	r3, [r7, #8]
 8151 002c 62F30403 		bfi	r3, r2, #0, #5
 8152 0030 3B72     		strb	r3, [r7, #8]
3128:Core/Src/lis2dw12_reg.c ****     ret = lis2dw12_write_reg(ctx, LIS2DW12_FIFO_CTRL, (uint8_t *) &reg, 1);
 8153              		.loc 1 3128 11
 8154 0032 07F10802 		add	r2, r7, #8
 8155 0036 0123     		movs	r3, #1
 8156 0038 2E21     		movs	r1, #46
 8157 003a 7868     		ldr	r0, [r7, #4]
 8158 003c FFF7FEFF 		bl	lis2dw12_write_reg
 8159 0040 F860     		str	r0, [r7, #12]
 8160              	.L446:
3129:Core/Src/lis2dw12_reg.c ****   }
3130:Core/Src/lis2dw12_reg.c **** 
3131:Core/Src/lis2dw12_reg.c ****   return ret;
 8161              		.loc 1 3131 10
 8162 0042 FB68     		ldr	r3, [r7, #12]
3132:Core/Src/lis2dw12_reg.c **** }
 8163              		.loc 1 3132 1
 8164 0044 1846     		mov	r0, r3
 8165 0046 1037     		adds	r7, r7, #16
 8166              	.LCFI558:
 8167              		.cfi_def_cfa_offset 8
 8168 0048 BD46     		mov	sp, r7
 8169              	.LCFI559:
 8170              		.cfi_def_cfa_register 13
 8171              		@ sp needed
 8172 004a 80BD     		pop	{r7, pc}
 8173              		.cfi_endproc
 8174              	.LFE111:
 8176              		.section	.text.lis2dw12_fifo_watermark_get,"ax",%progbits
 8177              		.align	1
 8178              		.global	lis2dw12_fifo_watermark_get
 8179              		.syntax unified
 8180              		.thumb
 8181              		.thumb_func
 8183              	lis2dw12_fifo_watermark_get:
 8184              	.LFB112:
3133:Core/Src/lis2dw12_reg.c **** 
3134:Core/Src/lis2dw12_reg.c **** /**
3135:Core/Src/lis2dw12_reg.c ****   * @brief  FIFO watermark level selection.[get]
3136:Core/Src/lis2dw12_reg.c ****   *
3137:Core/Src/lis2dw12_reg.c ****   * @param  ctx      read / write interface definitions
3138:Core/Src/lis2dw12_reg.c ****   * @param  val      change the values of fth in reg FIFO_CTRL
3139:Core/Src/lis2dw12_reg.c ****   * @retval          interface status (MANDATORY: return 0 -> no Error)
3140:Core/Src/lis2dw12_reg.c ****   *
3141:Core/Src/lis2dw12_reg.c ****   */
ARM GAS  C:\Users\vct344\AppData\Local\Temp\ccePc7Ac.s 			page 196


3142:Core/Src/lis2dw12_reg.c **** int32_t lis2dw12_fifo_watermark_get(const stmdev_ctx_t *ctx, uint8_t *val)
3143:Core/Src/lis2dw12_reg.c **** {
 8185              		.loc 1 3143 1
 8186              		.cfi_startproc
 8187              		@ args = 0, pretend = 0, frame = 16
 8188              		@ frame_needed = 1, uses_anonymous_args = 0
 8189 0000 80B5     		push	{r7, lr}
 8190              	.LCFI560:
 8191              		.cfi_def_cfa_offset 8
 8192              		.cfi_offset 7, -8
 8193              		.cfi_offset 14, -4
 8194 0002 84B0     		sub	sp, sp, #16
 8195              	.LCFI561:
 8196              		.cfi_def_cfa_offset 24
 8197 0004 00AF     		add	r7, sp, #0
 8198              	.LCFI562:
 8199              		.cfi_def_cfa_register 7
 8200 0006 7860     		str	r0, [r7, #4]
 8201 0008 3960     		str	r1, [r7]
3144:Core/Src/lis2dw12_reg.c ****   lis2dw12_fifo_ctrl_t reg;
3145:Core/Src/lis2dw12_reg.c ****   int32_t ret;
3146:Core/Src/lis2dw12_reg.c **** 
3147:Core/Src/lis2dw12_reg.c ****   ret = lis2dw12_read_reg(ctx, LIS2DW12_FIFO_CTRL, (uint8_t *) &reg, 1);
 8202              		.loc 1 3147 9
 8203 000a 07F10802 		add	r2, r7, #8
 8204 000e 0123     		movs	r3, #1
 8205 0010 2E21     		movs	r1, #46
 8206 0012 7868     		ldr	r0, [r7, #4]
 8207 0014 FFF7FEFF 		bl	lis2dw12_read_reg
 8208 0018 F860     		str	r0, [r7, #12]
3148:Core/Src/lis2dw12_reg.c ****   *val = reg.fth;
 8209              		.loc 1 3148 13
 8210 001a 3B7A     		ldrb	r3, [r7, #8]
 8211 001c C3F30403 		ubfx	r3, r3, #0, #5
 8212 0020 DBB2     		uxtb	r3, r3
 8213 0022 1A46     		mov	r2, r3
 8214              		.loc 1 3148 8
 8215 0024 3B68     		ldr	r3, [r7]
 8216 0026 1A70     		strb	r2, [r3]
3149:Core/Src/lis2dw12_reg.c **** 
3150:Core/Src/lis2dw12_reg.c ****   return ret;
 8217              		.loc 1 3150 10
 8218 0028 FB68     		ldr	r3, [r7, #12]
3151:Core/Src/lis2dw12_reg.c **** }
 8219              		.loc 1 3151 1
 8220 002a 1846     		mov	r0, r3
 8221 002c 1037     		adds	r7, r7, #16
 8222              	.LCFI563:
 8223              		.cfi_def_cfa_offset 8
 8224 002e BD46     		mov	sp, r7
 8225              	.LCFI564:
 8226              		.cfi_def_cfa_register 13
 8227              		@ sp needed
 8228 0030 80BD     		pop	{r7, pc}
 8229              		.cfi_endproc
 8230              	.LFE112:
 8232              		.section	.text.lis2dw12_fifo_mode_set,"ax",%progbits
ARM GAS  C:\Users\vct344\AppData\Local\Temp\ccePc7Ac.s 			page 197


 8233              		.align	1
 8234              		.global	lis2dw12_fifo_mode_set
 8235              		.syntax unified
 8236              		.thumb
 8237              		.thumb_func
 8239              	lis2dw12_fifo_mode_set:
 8240              	.LFB113:
3152:Core/Src/lis2dw12_reg.c **** 
3153:Core/Src/lis2dw12_reg.c **** /**
3154:Core/Src/lis2dw12_reg.c ****   * @brief  FIFO mode selection.[set]
3155:Core/Src/lis2dw12_reg.c ****   *
3156:Core/Src/lis2dw12_reg.c ****   * @param  ctx      read / write interface definitions
3157:Core/Src/lis2dw12_reg.c ****   * @param  val      change the values of fmode in reg FIFO_CTRL
3158:Core/Src/lis2dw12_reg.c ****   * @retval          interface status (MANDATORY: return 0 -> no Error)
3159:Core/Src/lis2dw12_reg.c ****   *
3160:Core/Src/lis2dw12_reg.c ****   */
3161:Core/Src/lis2dw12_reg.c **** int32_t lis2dw12_fifo_mode_set(const stmdev_ctx_t *ctx,
3162:Core/Src/lis2dw12_reg.c ****                                lis2dw12_fmode_t val)
3163:Core/Src/lis2dw12_reg.c **** {
 8241              		.loc 1 3163 1
 8242              		.cfi_startproc
 8243              		@ args = 0, pretend = 0, frame = 16
 8244              		@ frame_needed = 1, uses_anonymous_args = 0
 8245 0000 80B5     		push	{r7, lr}
 8246              	.LCFI565:
 8247              		.cfi_def_cfa_offset 8
 8248              		.cfi_offset 7, -8
 8249              		.cfi_offset 14, -4
 8250 0002 84B0     		sub	sp, sp, #16
 8251              	.LCFI566:
 8252              		.cfi_def_cfa_offset 24
 8253 0004 00AF     		add	r7, sp, #0
 8254              	.LCFI567:
 8255              		.cfi_def_cfa_register 7
 8256 0006 7860     		str	r0, [r7, #4]
 8257 0008 0B46     		mov	r3, r1
 8258 000a FB70     		strb	r3, [r7, #3]
3164:Core/Src/lis2dw12_reg.c ****   lis2dw12_fifo_ctrl_t reg;
3165:Core/Src/lis2dw12_reg.c ****   int32_t ret;
3166:Core/Src/lis2dw12_reg.c **** 
3167:Core/Src/lis2dw12_reg.c ****   ret = lis2dw12_read_reg(ctx, LIS2DW12_FIFO_CTRL, (uint8_t *) &reg, 1);
 8259              		.loc 1 3167 9
 8260 000c 07F10802 		add	r2, r7, #8
 8261 0010 0123     		movs	r3, #1
 8262 0012 2E21     		movs	r1, #46
 8263 0014 7868     		ldr	r0, [r7, #4]
 8264 0016 FFF7FEFF 		bl	lis2dw12_read_reg
 8265 001a F860     		str	r0, [r7, #12]
3168:Core/Src/lis2dw12_reg.c **** 
3169:Core/Src/lis2dw12_reg.c ****   if (ret == 0)
 8266              		.loc 1 3169 6
 8267 001c FB68     		ldr	r3, [r7, #12]
 8268 001e 002B     		cmp	r3, #0
 8269 0020 0FD1     		bne	.L451
3170:Core/Src/lis2dw12_reg.c ****   {
3171:Core/Src/lis2dw12_reg.c ****     reg.fmode = (uint8_t) val;
 8270              		.loc 1 3171 17
ARM GAS  C:\Users\vct344\AppData\Local\Temp\ccePc7Ac.s 			page 198


 8271 0022 FB78     		ldrb	r3, [r7, #3]
 8272 0024 03F00703 		and	r3, r3, #7
 8273 0028 DAB2     		uxtb	r2, r3
 8274              		.loc 1 3171 15
 8275 002a 3B7A     		ldrb	r3, [r7, #8]
 8276 002c 62F34713 		bfi	r3, r2, #5, #3
 8277 0030 3B72     		strb	r3, [r7, #8]
3172:Core/Src/lis2dw12_reg.c ****     ret = lis2dw12_write_reg(ctx, LIS2DW12_FIFO_CTRL, (uint8_t *) &reg, 1);
 8278              		.loc 1 3172 11
 8279 0032 07F10802 		add	r2, r7, #8
 8280 0036 0123     		movs	r3, #1
 8281 0038 2E21     		movs	r1, #46
 8282 003a 7868     		ldr	r0, [r7, #4]
 8283 003c FFF7FEFF 		bl	lis2dw12_write_reg
 8284 0040 F860     		str	r0, [r7, #12]
 8285              	.L451:
3173:Core/Src/lis2dw12_reg.c ****   }
3174:Core/Src/lis2dw12_reg.c **** 
3175:Core/Src/lis2dw12_reg.c ****   return ret;
 8286              		.loc 1 3175 10
 8287 0042 FB68     		ldr	r3, [r7, #12]
3176:Core/Src/lis2dw12_reg.c **** }
 8288              		.loc 1 3176 1
 8289 0044 1846     		mov	r0, r3
 8290 0046 1037     		adds	r7, r7, #16
 8291              	.LCFI568:
 8292              		.cfi_def_cfa_offset 8
 8293 0048 BD46     		mov	sp, r7
 8294              	.LCFI569:
 8295              		.cfi_def_cfa_register 13
 8296              		@ sp needed
 8297 004a 80BD     		pop	{r7, pc}
 8298              		.cfi_endproc
 8299              	.LFE113:
 8301              		.section	.text.lis2dw12_fifo_mode_get,"ax",%progbits
 8302              		.align	1
 8303              		.global	lis2dw12_fifo_mode_get
 8304              		.syntax unified
 8305              		.thumb
 8306              		.thumb_func
 8308              	lis2dw12_fifo_mode_get:
 8309              	.LFB114:
3177:Core/Src/lis2dw12_reg.c **** 
3178:Core/Src/lis2dw12_reg.c **** /**
3179:Core/Src/lis2dw12_reg.c ****   * @brief  FIFO mode selection.[get]
3180:Core/Src/lis2dw12_reg.c ****   *
3181:Core/Src/lis2dw12_reg.c ****   * @param  ctx      read / write interface definitions
3182:Core/Src/lis2dw12_reg.c ****   * @param  val      Get the values of fmode in reg FIFO_CTRL
3183:Core/Src/lis2dw12_reg.c ****   * @retval          interface status (MANDATORY: return 0 -> no Error)
3184:Core/Src/lis2dw12_reg.c ****   *
3185:Core/Src/lis2dw12_reg.c ****   */
3186:Core/Src/lis2dw12_reg.c **** int32_t lis2dw12_fifo_mode_get(const stmdev_ctx_t *ctx,
3187:Core/Src/lis2dw12_reg.c ****                                lis2dw12_fmode_t *val)
3188:Core/Src/lis2dw12_reg.c **** {
 8310              		.loc 1 3188 1
 8311              		.cfi_startproc
 8312              		@ args = 0, pretend = 0, frame = 16
ARM GAS  C:\Users\vct344\AppData\Local\Temp\ccePc7Ac.s 			page 199


 8313              		@ frame_needed = 1, uses_anonymous_args = 0
 8314 0000 80B5     		push	{r7, lr}
 8315              	.LCFI570:
 8316              		.cfi_def_cfa_offset 8
 8317              		.cfi_offset 7, -8
 8318              		.cfi_offset 14, -4
 8319 0002 84B0     		sub	sp, sp, #16
 8320              	.LCFI571:
 8321              		.cfi_def_cfa_offset 24
 8322 0004 00AF     		add	r7, sp, #0
 8323              	.LCFI572:
 8324              		.cfi_def_cfa_register 7
 8325 0006 7860     		str	r0, [r7, #4]
 8326 0008 3960     		str	r1, [r7]
3189:Core/Src/lis2dw12_reg.c ****   lis2dw12_fifo_ctrl_t reg;
3190:Core/Src/lis2dw12_reg.c ****   int32_t ret;
3191:Core/Src/lis2dw12_reg.c **** 
3192:Core/Src/lis2dw12_reg.c ****   ret = lis2dw12_read_reg(ctx, LIS2DW12_FIFO_CTRL, (uint8_t *) &reg, 1);
 8327              		.loc 1 3192 9
 8328 000a 07F10802 		add	r2, r7, #8
 8329 000e 0123     		movs	r3, #1
 8330 0010 2E21     		movs	r1, #46
 8331 0012 7868     		ldr	r0, [r7, #4]
 8332 0014 FFF7FEFF 		bl	lis2dw12_read_reg
 8333 0018 F860     		str	r0, [r7, #12]
3193:Core/Src/lis2dw12_reg.c **** 
3194:Core/Src/lis2dw12_reg.c ****   switch (reg.fmode)
 8334              		.loc 1 3194 14
 8335 001a 3B7A     		ldrb	r3, [r7, #8]
 8336 001c C3F34213 		ubfx	r3, r3, #5, #3
 8337 0020 DBB2     		uxtb	r3, r3
 8338              		.loc 1 3194 3
 8339 0022 062B     		cmp	r3, #6
 8340 0024 24D8     		bhi	.L454
 8341 0026 01A2     		adr	r2, .L456
 8342 0028 52F823F0 		ldr	pc, [r2, r3, lsl #2]
 8343              		.p2align 2
 8344              	.L456:
 8345 002c 49000000 		.word	.L460+1
 8346 0030 51000000 		.word	.L459+1
 8347 0034 71000000 		.word	.L454+1
 8348 0038 59000000 		.word	.L458+1
 8349 003c 61000000 		.word	.L457+1
 8350 0040 71000000 		.word	.L454+1
 8351 0044 69000000 		.word	.L455+1
 8352              		.p2align 1
 8353              	.L460:
3195:Core/Src/lis2dw12_reg.c ****   {
3196:Core/Src/lis2dw12_reg.c ****     case LIS2DW12_BYPASS_MODE:
3197:Core/Src/lis2dw12_reg.c ****       *val = LIS2DW12_BYPASS_MODE;
 8354              		.loc 1 3197 12
 8355 0048 3B68     		ldr	r3, [r7]
 8356 004a 0022     		movs	r2, #0
 8357 004c 1A70     		strb	r2, [r3]
3198:Core/Src/lis2dw12_reg.c ****       break;
 8358              		.loc 1 3198 7
 8359 004e 13E0     		b	.L461
ARM GAS  C:\Users\vct344\AppData\Local\Temp\ccePc7Ac.s 			page 200


 8360              	.L459:
3199:Core/Src/lis2dw12_reg.c **** 
3200:Core/Src/lis2dw12_reg.c ****     case LIS2DW12_FIFO_MODE:
3201:Core/Src/lis2dw12_reg.c ****       *val = LIS2DW12_FIFO_MODE;
 8361              		.loc 1 3201 12
 8362 0050 3B68     		ldr	r3, [r7]
 8363 0052 0122     		movs	r2, #1
 8364 0054 1A70     		strb	r2, [r3]
3202:Core/Src/lis2dw12_reg.c ****       break;
 8365              		.loc 1 3202 7
 8366 0056 0FE0     		b	.L461
 8367              	.L458:
3203:Core/Src/lis2dw12_reg.c **** 
3204:Core/Src/lis2dw12_reg.c ****     case LIS2DW12_STREAM_TO_FIFO_MODE:
3205:Core/Src/lis2dw12_reg.c ****       *val = LIS2DW12_STREAM_TO_FIFO_MODE;
 8368              		.loc 1 3205 12
 8369 0058 3B68     		ldr	r3, [r7]
 8370 005a 0322     		movs	r2, #3
 8371 005c 1A70     		strb	r2, [r3]
3206:Core/Src/lis2dw12_reg.c ****       break;
 8372              		.loc 1 3206 7
 8373 005e 0BE0     		b	.L461
 8374              	.L457:
3207:Core/Src/lis2dw12_reg.c **** 
3208:Core/Src/lis2dw12_reg.c ****     case LIS2DW12_BYPASS_TO_STREAM_MODE:
3209:Core/Src/lis2dw12_reg.c ****       *val = LIS2DW12_BYPASS_TO_STREAM_MODE;
 8375              		.loc 1 3209 12
 8376 0060 3B68     		ldr	r3, [r7]
 8377 0062 0422     		movs	r2, #4
 8378 0064 1A70     		strb	r2, [r3]
3210:Core/Src/lis2dw12_reg.c ****       break;
 8379              		.loc 1 3210 7
 8380 0066 07E0     		b	.L461
 8381              	.L455:
3211:Core/Src/lis2dw12_reg.c **** 
3212:Core/Src/lis2dw12_reg.c ****     case LIS2DW12_STREAM_MODE:
3213:Core/Src/lis2dw12_reg.c ****       *val = LIS2DW12_STREAM_MODE;
 8382              		.loc 1 3213 12
 8383 0068 3B68     		ldr	r3, [r7]
 8384 006a 0622     		movs	r2, #6
 8385 006c 1A70     		strb	r2, [r3]
3214:Core/Src/lis2dw12_reg.c ****       break;
 8386              		.loc 1 3214 7
 8387 006e 03E0     		b	.L461
 8388              	.L454:
3215:Core/Src/lis2dw12_reg.c **** 
3216:Core/Src/lis2dw12_reg.c ****     default:
3217:Core/Src/lis2dw12_reg.c ****       *val = LIS2DW12_BYPASS_MODE;
 8389              		.loc 1 3217 12
 8390 0070 3B68     		ldr	r3, [r7]
 8391 0072 0022     		movs	r2, #0
 8392 0074 1A70     		strb	r2, [r3]
3218:Core/Src/lis2dw12_reg.c ****       break;
 8393              		.loc 1 3218 7
 8394 0076 00BF     		nop
 8395              	.L461:
3219:Core/Src/lis2dw12_reg.c ****   }
ARM GAS  C:\Users\vct344\AppData\Local\Temp\ccePc7Ac.s 			page 201


3220:Core/Src/lis2dw12_reg.c **** 
3221:Core/Src/lis2dw12_reg.c ****   return ret;
 8396              		.loc 1 3221 10
 8397 0078 FB68     		ldr	r3, [r7, #12]
3222:Core/Src/lis2dw12_reg.c **** }
 8398              		.loc 1 3222 1
 8399 007a 1846     		mov	r0, r3
 8400 007c 1037     		adds	r7, r7, #16
 8401              	.LCFI573:
 8402              		.cfi_def_cfa_offset 8
 8403 007e BD46     		mov	sp, r7
 8404              	.LCFI574:
 8405              		.cfi_def_cfa_register 13
 8406              		@ sp needed
 8407 0080 80BD     		pop	{r7, pc}
 8408              		.cfi_endproc
 8409              	.LFE114:
 8411 0082 00BF     		.section	.text.lis2dw12_fifo_data_level_get,"ax",%progbits
 8412              		.align	1
 8413              		.global	lis2dw12_fifo_data_level_get
 8414              		.syntax unified
 8415              		.thumb
 8416              		.thumb_func
 8418              	lis2dw12_fifo_data_level_get:
 8419              	.LFB115:
3223:Core/Src/lis2dw12_reg.c **** 
3224:Core/Src/lis2dw12_reg.c **** /**
3225:Core/Src/lis2dw12_reg.c ****   * @brief  Number of unread samples stored in FIFO.[get]
3226:Core/Src/lis2dw12_reg.c ****   *
3227:Core/Src/lis2dw12_reg.c ****   * @param  ctx      read / write interface definitions
3228:Core/Src/lis2dw12_reg.c ****   * @param  val      change the values of diff in reg FIFO_SAMPLES
3229:Core/Src/lis2dw12_reg.c ****   * @retval          interface status (MANDATORY: return 0 -> no Error)
3230:Core/Src/lis2dw12_reg.c ****   *
3231:Core/Src/lis2dw12_reg.c ****   */
3232:Core/Src/lis2dw12_reg.c **** int32_t lis2dw12_fifo_data_level_get(const stmdev_ctx_t *ctx, uint8_t *val)
3233:Core/Src/lis2dw12_reg.c **** {
 8420              		.loc 1 3233 1
 8421              		.cfi_startproc
 8422              		@ args = 0, pretend = 0, frame = 16
 8423              		@ frame_needed = 1, uses_anonymous_args = 0
 8424 0000 80B5     		push	{r7, lr}
 8425              	.LCFI575:
 8426              		.cfi_def_cfa_offset 8
 8427              		.cfi_offset 7, -8
 8428              		.cfi_offset 14, -4
 8429 0002 84B0     		sub	sp, sp, #16
 8430              	.LCFI576:
 8431              		.cfi_def_cfa_offset 24
 8432 0004 00AF     		add	r7, sp, #0
 8433              	.LCFI577:
 8434              		.cfi_def_cfa_register 7
 8435 0006 7860     		str	r0, [r7, #4]
 8436 0008 3960     		str	r1, [r7]
3234:Core/Src/lis2dw12_reg.c ****   lis2dw12_fifo_samples_t reg;
3235:Core/Src/lis2dw12_reg.c ****   int32_t ret;
3236:Core/Src/lis2dw12_reg.c **** 
3237:Core/Src/lis2dw12_reg.c ****   ret = lis2dw12_read_reg(ctx, LIS2DW12_FIFO_SAMPLES, (uint8_t *) &reg, 1);
ARM GAS  C:\Users\vct344\AppData\Local\Temp\ccePc7Ac.s 			page 202


 8437              		.loc 1 3237 9
 8438 000a 07F10802 		add	r2, r7, #8
 8439 000e 0123     		movs	r3, #1
 8440 0010 2F21     		movs	r1, #47
 8441 0012 7868     		ldr	r0, [r7, #4]
 8442 0014 FFF7FEFF 		bl	lis2dw12_read_reg
 8443 0018 F860     		str	r0, [r7, #12]
3238:Core/Src/lis2dw12_reg.c ****   *val = reg.diff;
 8444              		.loc 1 3238 13
 8445 001a 3B7A     		ldrb	r3, [r7, #8]
 8446 001c C3F30503 		ubfx	r3, r3, #0, #6
 8447 0020 DBB2     		uxtb	r3, r3
 8448 0022 1A46     		mov	r2, r3
 8449              		.loc 1 3238 8
 8450 0024 3B68     		ldr	r3, [r7]
 8451 0026 1A70     		strb	r2, [r3]
3239:Core/Src/lis2dw12_reg.c **** 
3240:Core/Src/lis2dw12_reg.c ****   return ret;
 8452              		.loc 1 3240 10
 8453 0028 FB68     		ldr	r3, [r7, #12]
3241:Core/Src/lis2dw12_reg.c **** }
 8454              		.loc 1 3241 1
 8455 002a 1846     		mov	r0, r3
 8456 002c 1037     		adds	r7, r7, #16
 8457              	.LCFI578:
 8458              		.cfi_def_cfa_offset 8
 8459 002e BD46     		mov	sp, r7
 8460              	.LCFI579:
 8461              		.cfi_def_cfa_register 13
 8462              		@ sp needed
 8463 0030 80BD     		pop	{r7, pc}
 8464              		.cfi_endproc
 8465              	.LFE115:
 8467              		.section	.text.lis2dw12_fifo_ovr_flag_get,"ax",%progbits
 8468              		.align	1
 8469              		.global	lis2dw12_fifo_ovr_flag_get
 8470              		.syntax unified
 8471              		.thumb
 8472              		.thumb_func
 8474              	lis2dw12_fifo_ovr_flag_get:
 8475              	.LFB116:
3242:Core/Src/lis2dw12_reg.c **** /**
3243:Core/Src/lis2dw12_reg.c ****   * @brief  FIFO overrun status.[get]
3244:Core/Src/lis2dw12_reg.c ****   *
3245:Core/Src/lis2dw12_reg.c ****   * @param  ctx      read / write interface definitions
3246:Core/Src/lis2dw12_reg.c ****   * @param  val      change the values of fifo_ovr in reg FIFO_SAMPLES
3247:Core/Src/lis2dw12_reg.c ****   * @retval          interface status (MANDATORY: return 0 -> no Error)
3248:Core/Src/lis2dw12_reg.c ****   *
3249:Core/Src/lis2dw12_reg.c ****   */
3250:Core/Src/lis2dw12_reg.c **** int32_t lis2dw12_fifo_ovr_flag_get(const stmdev_ctx_t *ctx, uint8_t *val)
3251:Core/Src/lis2dw12_reg.c **** {
 8476              		.loc 1 3251 1
 8477              		.cfi_startproc
 8478              		@ args = 0, pretend = 0, frame = 16
 8479              		@ frame_needed = 1, uses_anonymous_args = 0
 8480 0000 80B5     		push	{r7, lr}
 8481              	.LCFI580:
ARM GAS  C:\Users\vct344\AppData\Local\Temp\ccePc7Ac.s 			page 203


 8482              		.cfi_def_cfa_offset 8
 8483              		.cfi_offset 7, -8
 8484              		.cfi_offset 14, -4
 8485 0002 84B0     		sub	sp, sp, #16
 8486              	.LCFI581:
 8487              		.cfi_def_cfa_offset 24
 8488 0004 00AF     		add	r7, sp, #0
 8489              	.LCFI582:
 8490              		.cfi_def_cfa_register 7
 8491 0006 7860     		str	r0, [r7, #4]
 8492 0008 3960     		str	r1, [r7]
3252:Core/Src/lis2dw12_reg.c ****   lis2dw12_fifo_samples_t reg;
3253:Core/Src/lis2dw12_reg.c ****   int32_t ret;
3254:Core/Src/lis2dw12_reg.c **** 
3255:Core/Src/lis2dw12_reg.c ****   ret = lis2dw12_read_reg(ctx, LIS2DW12_FIFO_SAMPLES, (uint8_t *) &reg, 1);
 8493              		.loc 1 3255 9
 8494 000a 07F10802 		add	r2, r7, #8
 8495 000e 0123     		movs	r3, #1
 8496 0010 2F21     		movs	r1, #47
 8497 0012 7868     		ldr	r0, [r7, #4]
 8498 0014 FFF7FEFF 		bl	lis2dw12_read_reg
 8499 0018 F860     		str	r0, [r7, #12]
3256:Core/Src/lis2dw12_reg.c ****   *val = reg.fifo_ovr;
 8500              		.loc 1 3256 13
 8501 001a 3B7A     		ldrb	r3, [r7, #8]
 8502 001c C3F38013 		ubfx	r3, r3, #6, #1
 8503 0020 DBB2     		uxtb	r3, r3
 8504 0022 1A46     		mov	r2, r3
 8505              		.loc 1 3256 8
 8506 0024 3B68     		ldr	r3, [r7]
 8507 0026 1A70     		strb	r2, [r3]
3257:Core/Src/lis2dw12_reg.c **** 
3258:Core/Src/lis2dw12_reg.c ****   return ret;
 8508              		.loc 1 3258 10
 8509 0028 FB68     		ldr	r3, [r7, #12]
3259:Core/Src/lis2dw12_reg.c **** }
 8510              		.loc 1 3259 1
 8511 002a 1846     		mov	r0, r3
 8512 002c 1037     		adds	r7, r7, #16
 8513              	.LCFI583:
 8514              		.cfi_def_cfa_offset 8
 8515 002e BD46     		mov	sp, r7
 8516              	.LCFI584:
 8517              		.cfi_def_cfa_register 13
 8518              		@ sp needed
 8519 0030 80BD     		pop	{r7, pc}
 8520              		.cfi_endproc
 8521              	.LFE116:
 8523              		.section	.text.lis2dw12_fifo_wtm_flag_get,"ax",%progbits
 8524              		.align	1
 8525              		.global	lis2dw12_fifo_wtm_flag_get
 8526              		.syntax unified
 8527              		.thumb
 8528              		.thumb_func
 8530              	lis2dw12_fifo_wtm_flag_get:
 8531              	.LFB117:
3260:Core/Src/lis2dw12_reg.c **** /**
ARM GAS  C:\Users\vct344\AppData\Local\Temp\ccePc7Ac.s 			page 204


3261:Core/Src/lis2dw12_reg.c ****   * @brief  FIFO threshold status flag.[get]
3262:Core/Src/lis2dw12_reg.c ****   *
3263:Core/Src/lis2dw12_reg.c ****   * @param  ctx      read / write interface definitions
3264:Core/Src/lis2dw12_reg.c ****   * @param  val      change the values of fifo_fth in reg FIFO_SAMPLES
3265:Core/Src/lis2dw12_reg.c ****   * @retval          interface status (MANDATORY: return 0 -> no Error)
3266:Core/Src/lis2dw12_reg.c ****   *
3267:Core/Src/lis2dw12_reg.c ****   */
3268:Core/Src/lis2dw12_reg.c **** int32_t lis2dw12_fifo_wtm_flag_get(const stmdev_ctx_t *ctx, uint8_t *val)
3269:Core/Src/lis2dw12_reg.c **** {
 8532              		.loc 1 3269 1
 8533              		.cfi_startproc
 8534              		@ args = 0, pretend = 0, frame = 16
 8535              		@ frame_needed = 1, uses_anonymous_args = 0
 8536 0000 80B5     		push	{r7, lr}
 8537              	.LCFI585:
 8538              		.cfi_def_cfa_offset 8
 8539              		.cfi_offset 7, -8
 8540              		.cfi_offset 14, -4
 8541 0002 84B0     		sub	sp, sp, #16
 8542              	.LCFI586:
 8543              		.cfi_def_cfa_offset 24
 8544 0004 00AF     		add	r7, sp, #0
 8545              	.LCFI587:
 8546              		.cfi_def_cfa_register 7
 8547 0006 7860     		str	r0, [r7, #4]
 8548 0008 3960     		str	r1, [r7]
3270:Core/Src/lis2dw12_reg.c ****   lis2dw12_fifo_samples_t reg;
3271:Core/Src/lis2dw12_reg.c ****   int32_t ret;
3272:Core/Src/lis2dw12_reg.c **** 
3273:Core/Src/lis2dw12_reg.c ****   ret = lis2dw12_read_reg(ctx, LIS2DW12_FIFO_SAMPLES, (uint8_t *) &reg, 1);
 8549              		.loc 1 3273 9
 8550 000a 07F10802 		add	r2, r7, #8
 8551 000e 0123     		movs	r3, #1
 8552 0010 2F21     		movs	r1, #47
 8553 0012 7868     		ldr	r0, [r7, #4]
 8554 0014 FFF7FEFF 		bl	lis2dw12_read_reg
 8555 0018 F860     		str	r0, [r7, #12]
3274:Core/Src/lis2dw12_reg.c ****   *val = reg.fifo_fth;
 8556              		.loc 1 3274 13
 8557 001a 3B7A     		ldrb	r3, [r7, #8]
 8558 001c C3F3C013 		ubfx	r3, r3, #7, #1
 8559 0020 DBB2     		uxtb	r3, r3
 8560 0022 1A46     		mov	r2, r3
 8561              		.loc 1 3274 8
 8562 0024 3B68     		ldr	r3, [r7]
 8563 0026 1A70     		strb	r2, [r3]
3275:Core/Src/lis2dw12_reg.c **** 
3276:Core/Src/lis2dw12_reg.c ****   return ret;
 8564              		.loc 1 3276 10
 8565 0028 FB68     		ldr	r3, [r7, #12]
3277:Core/Src/lis2dw12_reg.c **** }
 8566              		.loc 1 3277 1
 8567 002a 1846     		mov	r0, r3
 8568 002c 1037     		adds	r7, r7, #16
 8569              	.LCFI588:
 8570              		.cfi_def_cfa_offset 8
 8571 002e BD46     		mov	sp, r7
ARM GAS  C:\Users\vct344\AppData\Local\Temp\ccePc7Ac.s 			page 205


 8572              	.LCFI589:
 8573              		.cfi_def_cfa_register 13
 8574              		@ sp needed
 8575 0030 80BD     		pop	{r7, pc}
 8576              		.cfi_endproc
 8577              	.LFE117:
 8579              		.text
 8580              	.Letext0:
 8581              		.file 2 "C:\\ST\\STM32CubeCLT_1.16.0\\GNU-tools-for-STM32\\bin/../lib/gcc/arm-none-eabi/12.3.1/../
 8582              		.file 3 "C:\\ST\\STM32CubeCLT_1.16.0\\GNU-tools-for-STM32\\bin/../lib/gcc/arm-none-eabi/12.3.1/../
 8583              		.file 4 "C:\\ST\\STM32CubeCLT_1.16.0\\GNU-tools-for-STM32\\bin/../lib/gcc/arm-none-eabi/12.3.1/../
 8584              		.file 5 "Core/Inc/lis2dw12_reg.h"
ARM GAS  C:\Users\vct344\AppData\Local\Temp\ccePc7Ac.s 			page 206


DEFINED SYMBOLS
                            *ABS*:00000000 lis2dw12_reg.c
C:\Users\vct344\AppData\Local\Temp\ccePc7Ac.s:19     .text.lis2dw12_read_reg:00000000 $t
C:\Users\vct344\AppData\Local\Temp\ccePc7Ac.s:25     .text.lis2dw12_read_reg:00000000 lis2dw12_read_reg
C:\Users\vct344\AppData\Local\Temp\ccePc7Ac.s:88     .text.lis2dw12_write_reg:00000000 $t
C:\Users\vct344\AppData\Local\Temp\ccePc7Ac.s:94     .text.lis2dw12_write_reg:00000000 lis2dw12_write_reg
C:\Users\vct344\AppData\Local\Temp\ccePc7Ac.s:159    .text.lis2dw12_from_fs2_to_mg:00000000 $t
C:\Users\vct344\AppData\Local\Temp\ccePc7Ac.s:165    .text.lis2dw12_from_fs2_to_mg:00000000 lis2dw12_from_fs2_to_mg
C:\Users\vct344\AppData\Local\Temp\ccePc7Ac.s:207    .text.lis2dw12_from_fs2_to_mg:00000028 $d
C:\Users\vct344\AppData\Local\Temp\ccePc7Ac.s:212    .text.lis2dw12_from_fs4_to_mg:00000000 $t
C:\Users\vct344\AppData\Local\Temp\ccePc7Ac.s:218    .text.lis2dw12_from_fs4_to_mg:00000000 lis2dw12_from_fs4_to_mg
C:\Users\vct344\AppData\Local\Temp\ccePc7Ac.s:260    .text.lis2dw12_from_fs4_to_mg:00000028 $d
C:\Users\vct344\AppData\Local\Temp\ccePc7Ac.s:265    .text.lis2dw12_from_fs8_to_mg:00000000 $t
C:\Users\vct344\AppData\Local\Temp\ccePc7Ac.s:271    .text.lis2dw12_from_fs8_to_mg:00000000 lis2dw12_from_fs8_to_mg
C:\Users\vct344\AppData\Local\Temp\ccePc7Ac.s:313    .text.lis2dw12_from_fs8_to_mg:00000028 $d
C:\Users\vct344\AppData\Local\Temp\ccePc7Ac.s:318    .text.lis2dw12_from_fs16_to_mg:00000000 $t
C:\Users\vct344\AppData\Local\Temp\ccePc7Ac.s:324    .text.lis2dw12_from_fs16_to_mg:00000000 lis2dw12_from_fs16_to_mg
C:\Users\vct344\AppData\Local\Temp\ccePc7Ac.s:366    .text.lis2dw12_from_fs16_to_mg:00000028 $d
C:\Users\vct344\AppData\Local\Temp\ccePc7Ac.s:371    .text.lis2dw12_from_fs2_lp1_to_mg:00000000 $t
C:\Users\vct344\AppData\Local\Temp\ccePc7Ac.s:377    .text.lis2dw12_from_fs2_lp1_to_mg:00000000 lis2dw12_from_fs2_lp1_to_mg
C:\Users\vct344\AppData\Local\Temp\ccePc7Ac.s:419    .text.lis2dw12_from_fs2_lp1_to_mg:00000028 $d
C:\Users\vct344\AppData\Local\Temp\ccePc7Ac.s:424    .text.lis2dw12_from_fs4_lp1_to_mg:00000000 $t
C:\Users\vct344\AppData\Local\Temp\ccePc7Ac.s:430    .text.lis2dw12_from_fs4_lp1_to_mg:00000000 lis2dw12_from_fs4_lp1_to_mg
C:\Users\vct344\AppData\Local\Temp\ccePc7Ac.s:472    .text.lis2dw12_from_fs4_lp1_to_mg:00000028 $d
C:\Users\vct344\AppData\Local\Temp\ccePc7Ac.s:477    .text.lis2dw12_from_fs8_lp1_to_mg:00000000 $t
C:\Users\vct344\AppData\Local\Temp\ccePc7Ac.s:483    .text.lis2dw12_from_fs8_lp1_to_mg:00000000 lis2dw12_from_fs8_lp1_to_mg
C:\Users\vct344\AppData\Local\Temp\ccePc7Ac.s:525    .text.lis2dw12_from_fs8_lp1_to_mg:00000028 $d
C:\Users\vct344\AppData\Local\Temp\ccePc7Ac.s:530    .text.lis2dw12_from_fs16_lp1_to_mg:00000000 $t
C:\Users\vct344\AppData\Local\Temp\ccePc7Ac.s:536    .text.lis2dw12_from_fs16_lp1_to_mg:00000000 lis2dw12_from_fs16_lp1_to_mg
C:\Users\vct344\AppData\Local\Temp\ccePc7Ac.s:578    .text.lis2dw12_from_fs16_lp1_to_mg:00000028 $d
C:\Users\vct344\AppData\Local\Temp\ccePc7Ac.s:585    .text.lis2dw12_from_lsb_to_celsius:00000000 $t
C:\Users\vct344\AppData\Local\Temp\ccePc7Ac.s:591    .text.lis2dw12_from_lsb_to_celsius:00000000 lis2dw12_from_lsb_to_celsius
C:\Users\vct344\AppData\Local\Temp\ccePc7Ac.s:638    .text.lis2dw12_from_lsb_to_celsius:00000034 $d
C:\Users\vct344\AppData\Local\Temp\ccePc7Ac.s:643    .text.lis2dw12_power_mode_set:00000000 $t
C:\Users\vct344\AppData\Local\Temp\ccePc7Ac.s:649    .text.lis2dw12_power_mode_set:00000000 lis2dw12_power_mode_set
C:\Users\vct344\AppData\Local\Temp\ccePc7Ac.s:754    .text.lis2dw12_power_mode_get:00000000 $t
C:\Users\vct344\AppData\Local\Temp\ccePc7Ac.s:760    .text.lis2dw12_power_mode_get:00000000 lis2dw12_power_mode_get
C:\Users\vct344\AppData\Local\Temp\ccePc7Ac.s:824    .text.lis2dw12_power_mode_get:00000060 $d
C:\Users\vct344\AppData\Local\Temp\ccePc7Ac.s:852    .text.lis2dw12_power_mode_get:000000d0 $t
C:\Users\vct344\AppData\Local\Temp\ccePc7Ac.s:1003   .text.lis2dw12_data_rate_set:00000000 $t
C:\Users\vct344\AppData\Local\Temp\ccePc7Ac.s:1009   .text.lis2dw12_data_rate_set:00000000 lis2dw12_data_rate_set
C:\Users\vct344\AppData\Local\Temp\ccePc7Ac.s:1105   .text.lis2dw12_data_rate_get:00000000 $t
C:\Users\vct344\AppData\Local\Temp\ccePc7Ac.s:1111   .text.lis2dw12_data_rate_get:00000000 lis2dw12_data_rate_get
C:\Users\vct344\AppData\Local\Temp\ccePc7Ac.s:1167   .text.lis2dw12_data_rate_get:00000054 $d
C:\Users\vct344\AppData\Local\Temp\ccePc7Ac.s:1218   .text.lis2dw12_data_rate_get:00000120 $t
C:\Users\vct344\AppData\Local\Temp\ccePc7Ac.s:1327   .text.lis2dw12_block_data_update_set:00000000 $t
C:\Users\vct344\AppData\Local\Temp\ccePc7Ac.s:1333   .text.lis2dw12_block_data_update_set:00000000 lis2dw12_block_data_update_set
C:\Users\vct344\AppData\Local\Temp\ccePc7Ac.s:1395   .text.lis2dw12_block_data_update_get:00000000 $t
C:\Users\vct344\AppData\Local\Temp\ccePc7Ac.s:1401   .text.lis2dw12_block_data_update_get:00000000 lis2dw12_block_data_update_get
C:\Users\vct344\AppData\Local\Temp\ccePc7Ac.s:1451   .text.lis2dw12_full_scale_set:00000000 $t
C:\Users\vct344\AppData\Local\Temp\ccePc7Ac.s:1457   .text.lis2dw12_full_scale_set:00000000 lis2dw12_full_scale_set
C:\Users\vct344\AppData\Local\Temp\ccePc7Ac.s:1520   .text.lis2dw12_full_scale_get:00000000 $t
C:\Users\vct344\AppData\Local\Temp\ccePc7Ac.s:1526   .text.lis2dw12_full_scale_get:00000000 lis2dw12_full_scale_get
C:\Users\vct344\AppData\Local\Temp\ccePc7Ac.s:1563   .text.lis2dw12_full_scale_get:0000002c $d
C:\Users\vct344\AppData\Local\Temp\ccePc7Ac.s:1567   .text.lis2dw12_full_scale_get:0000003c $t
C:\Users\vct344\AppData\Local\Temp\ccePc7Ac.s:1620   .text.lis2dw12_status_reg_get:00000000 $t
C:\Users\vct344\AppData\Local\Temp\ccePc7Ac.s:1626   .text.lis2dw12_status_reg_get:00000000 lis2dw12_status_reg_get
ARM GAS  C:\Users\vct344\AppData\Local\Temp\ccePc7Ac.s 			page 207


C:\Users\vct344\AppData\Local\Temp\ccePc7Ac.s:1668   .text.lis2dw12_flag_data_ready_get:00000000 $t
C:\Users\vct344\AppData\Local\Temp\ccePc7Ac.s:1674   .text.lis2dw12_flag_data_ready_get:00000000 lis2dw12_flag_data_ready_get
C:\Users\vct344\AppData\Local\Temp\ccePc7Ac.s:1724   .text.lis2dw12_all_sources_get:00000000 $t
C:\Users\vct344\AppData\Local\Temp\ccePc7Ac.s:1730   .text.lis2dw12_all_sources_get:00000000 lis2dw12_all_sources_get
C:\Users\vct344\AppData\Local\Temp\ccePc7Ac.s:1772   .text.lis2dw12_usr_offset_x_set:00000000 $t
C:\Users\vct344\AppData\Local\Temp\ccePc7Ac.s:1778   .text.lis2dw12_usr_offset_x_set:00000000 lis2dw12_usr_offset_x_set
C:\Users\vct344\AppData\Local\Temp\ccePc7Ac.s:1820   .text.lis2dw12_usr_offset_x_get:00000000 $t
C:\Users\vct344\AppData\Local\Temp\ccePc7Ac.s:1826   .text.lis2dw12_usr_offset_x_get:00000000 lis2dw12_usr_offset_x_get
C:\Users\vct344\AppData\Local\Temp\ccePc7Ac.s:1868   .text.lis2dw12_usr_offset_y_set:00000000 $t
C:\Users\vct344\AppData\Local\Temp\ccePc7Ac.s:1874   .text.lis2dw12_usr_offset_y_set:00000000 lis2dw12_usr_offset_y_set
C:\Users\vct344\AppData\Local\Temp\ccePc7Ac.s:1916   .text.lis2dw12_usr_offset_y_get:00000000 $t
C:\Users\vct344\AppData\Local\Temp\ccePc7Ac.s:1922   .text.lis2dw12_usr_offset_y_get:00000000 lis2dw12_usr_offset_y_get
C:\Users\vct344\AppData\Local\Temp\ccePc7Ac.s:1964   .text.lis2dw12_usr_offset_z_set:00000000 $t
C:\Users\vct344\AppData\Local\Temp\ccePc7Ac.s:1970   .text.lis2dw12_usr_offset_z_set:00000000 lis2dw12_usr_offset_z_set
C:\Users\vct344\AppData\Local\Temp\ccePc7Ac.s:2012   .text.lis2dw12_usr_offset_z_get:00000000 $t
C:\Users\vct344\AppData\Local\Temp\ccePc7Ac.s:2018   .text.lis2dw12_usr_offset_z_get:00000000 lis2dw12_usr_offset_z_get
C:\Users\vct344\AppData\Local\Temp\ccePc7Ac.s:2060   .text.lis2dw12_offset_weight_set:00000000 $t
C:\Users\vct344\AppData\Local\Temp\ccePc7Ac.s:2066   .text.lis2dw12_offset_weight_set:00000000 lis2dw12_offset_weight_set
C:\Users\vct344\AppData\Local\Temp\ccePc7Ac.s:2129   .text.lis2dw12_offset_weight_get:00000000 $t
C:\Users\vct344\AppData\Local\Temp\ccePc7Ac.s:2135   .text.lis2dw12_offset_weight_get:00000000 lis2dw12_offset_weight_get
C:\Users\vct344\AppData\Local\Temp\ccePc7Ac.s:2209   .text.lis2dw12_temperature_raw_get:00000000 $t
C:\Users\vct344\AppData\Local\Temp\ccePc7Ac.s:2215   .text.lis2dw12_temperature_raw_get:00000000 lis2dw12_temperature_raw_get
C:\Users\vct344\AppData\Local\Temp\ccePc7Ac.s:2280   .text.lis2dw12_acceleration_raw_get:00000000 $t
C:\Users\vct344\AppData\Local\Temp\ccePc7Ac.s:2286   .text.lis2dw12_acceleration_raw_get:00000000 lis2dw12_acceleration_raw_get
C:\Users\vct344\AppData\Local\Temp\ccePc7Ac.s:2409   .text.lis2dw12_device_id_get:00000000 $t
C:\Users\vct344\AppData\Local\Temp\ccePc7Ac.s:2415   .text.lis2dw12_device_id_get:00000000 lis2dw12_device_id_get
C:\Users\vct344\AppData\Local\Temp\ccePc7Ac.s:2457   .text.lis2dw12_auto_increment_set:00000000 $t
C:\Users\vct344\AppData\Local\Temp\ccePc7Ac.s:2463   .text.lis2dw12_auto_increment_set:00000000 lis2dw12_auto_increment_set
C:\Users\vct344\AppData\Local\Temp\ccePc7Ac.s:2525   .text.lis2dw12_auto_increment_get:00000000 $t
C:\Users\vct344\AppData\Local\Temp\ccePc7Ac.s:2531   .text.lis2dw12_auto_increment_get:00000000 lis2dw12_auto_increment_get
C:\Users\vct344\AppData\Local\Temp\ccePc7Ac.s:2581   .text.lis2dw12_reset_set:00000000 $t
C:\Users\vct344\AppData\Local\Temp\ccePc7Ac.s:2587   .text.lis2dw12_reset_set:00000000 lis2dw12_reset_set
C:\Users\vct344\AppData\Local\Temp\ccePc7Ac.s:2649   .text.lis2dw12_reset_get:00000000 $t
C:\Users\vct344\AppData\Local\Temp\ccePc7Ac.s:2655   .text.lis2dw12_reset_get:00000000 lis2dw12_reset_get
C:\Users\vct344\AppData\Local\Temp\ccePc7Ac.s:2705   .text.lis2dw12_boot_set:00000000 $t
C:\Users\vct344\AppData\Local\Temp\ccePc7Ac.s:2711   .text.lis2dw12_boot_set:00000000 lis2dw12_boot_set
C:\Users\vct344\AppData\Local\Temp\ccePc7Ac.s:2773   .text.lis2dw12_boot_get:00000000 $t
C:\Users\vct344\AppData\Local\Temp\ccePc7Ac.s:2779   .text.lis2dw12_boot_get:00000000 lis2dw12_boot_get
C:\Users\vct344\AppData\Local\Temp\ccePc7Ac.s:2829   .text.lis2dw12_self_test_set:00000000 $t
C:\Users\vct344\AppData\Local\Temp\ccePc7Ac.s:2835   .text.lis2dw12_self_test_set:00000000 lis2dw12_self_test_set
C:\Users\vct344\AppData\Local\Temp\ccePc7Ac.s:2898   .text.lis2dw12_self_test_get:00000000 $t
C:\Users\vct344\AppData\Local\Temp\ccePc7Ac.s:2904   .text.lis2dw12_self_test_get:00000000 lis2dw12_self_test_get
C:\Users\vct344\AppData\Local\Temp\ccePc7Ac.s:2989   .text.lis2dw12_data_ready_mode_set:00000000 $t
C:\Users\vct344\AppData\Local\Temp\ccePc7Ac.s:2995   .text.lis2dw12_data_ready_mode_set:00000000 lis2dw12_data_ready_mode_set
C:\Users\vct344\AppData\Local\Temp\ccePc7Ac.s:3058   .text.lis2dw12_data_ready_mode_get:00000000 $t
C:\Users\vct344\AppData\Local\Temp\ccePc7Ac.s:3064   .text.lis2dw12_data_ready_mode_get:00000000 lis2dw12_data_ready_mode_get
C:\Users\vct344\AppData\Local\Temp\ccePc7Ac.s:3138   .text.lis2dw12_filter_path_set:00000000 $t
C:\Users\vct344\AppData\Local\Temp\ccePc7Ac.s:3144   .text.lis2dw12_filter_path_set:00000000 lis2dw12_filter_path_set
C:\Users\vct344\AppData\Local\Temp\ccePc7Ac.s:3240   .text.lis2dw12_filter_path_get:00000000 $t
C:\Users\vct344\AppData\Local\Temp\ccePc7Ac.s:3246   .text.lis2dw12_filter_path_get:00000000 lis2dw12_filter_path_get
C:\Users\vct344\AppData\Local\Temp\ccePc7Ac.s:3350   .text.lis2dw12_filter_bandwidth_set:00000000 $t
C:\Users\vct344\AppData\Local\Temp\ccePc7Ac.s:3356   .text.lis2dw12_filter_bandwidth_set:00000000 lis2dw12_filter_bandwidth_set
C:\Users\vct344\AppData\Local\Temp\ccePc7Ac.s:3419   .text.lis2dw12_filter_bandwidth_get:00000000 $t
C:\Users\vct344\AppData\Local\Temp\ccePc7Ac.s:3425   .text.lis2dw12_filter_bandwidth_get:00000000 lis2dw12_filter_bandwidth_get
C:\Users\vct344\AppData\Local\Temp\ccePc7Ac.s:3462   .text.lis2dw12_filter_bandwidth_get:0000002c $d
C:\Users\vct344\AppData\Local\Temp\ccePc7Ac.s:3466   .text.lis2dw12_filter_bandwidth_get:0000003c $t
C:\Users\vct344\AppData\Local\Temp\ccePc7Ac.s:3519   .text.lis2dw12_reference_mode_set:00000000 $t
ARM GAS  C:\Users\vct344\AppData\Local\Temp\ccePc7Ac.s 			page 208


C:\Users\vct344\AppData\Local\Temp\ccePc7Ac.s:3525   .text.lis2dw12_reference_mode_set:00000000 lis2dw12_reference_mode_set
C:\Users\vct344\AppData\Local\Temp\ccePc7Ac.s:3587   .text.lis2dw12_reference_mode_get:00000000 $t
C:\Users\vct344\AppData\Local\Temp\ccePc7Ac.s:3593   .text.lis2dw12_reference_mode_get:00000000 lis2dw12_reference_mode_get
C:\Users\vct344\AppData\Local\Temp\ccePc7Ac.s:3643   .text.lis2dw12_spi_mode_set:00000000 $t
C:\Users\vct344\AppData\Local\Temp\ccePc7Ac.s:3649   .text.lis2dw12_spi_mode_set:00000000 lis2dw12_spi_mode_set
C:\Users\vct344\AppData\Local\Temp\ccePc7Ac.s:3712   .text.lis2dw12_spi_mode_get:00000000 $t
C:\Users\vct344\AppData\Local\Temp\ccePc7Ac.s:3718   .text.lis2dw12_spi_mode_get:00000000 lis2dw12_spi_mode_get
C:\Users\vct344\AppData\Local\Temp\ccePc7Ac.s:3792   .text.lis2dw12_i2c_interface_set:00000000 $t
C:\Users\vct344\AppData\Local\Temp\ccePc7Ac.s:3798   .text.lis2dw12_i2c_interface_set:00000000 lis2dw12_i2c_interface_set
C:\Users\vct344\AppData\Local\Temp\ccePc7Ac.s:3861   .text.lis2dw12_i2c_interface_get:00000000 $t
C:\Users\vct344\AppData\Local\Temp\ccePc7Ac.s:3867   .text.lis2dw12_i2c_interface_get:00000000 lis2dw12_i2c_interface_get
C:\Users\vct344\AppData\Local\Temp\ccePc7Ac.s:3941   .text.lis2dw12_cs_mode_set:00000000 $t
C:\Users\vct344\AppData\Local\Temp\ccePc7Ac.s:3947   .text.lis2dw12_cs_mode_set:00000000 lis2dw12_cs_mode_set
C:\Users\vct344\AppData\Local\Temp\ccePc7Ac.s:4010   .text.lis2dw12_cs_mode_get:00000000 $t
C:\Users\vct344\AppData\Local\Temp\ccePc7Ac.s:4016   .text.lis2dw12_cs_mode_get:00000000 lis2dw12_cs_mode_get
C:\Users\vct344\AppData\Local\Temp\ccePc7Ac.s:4090   .text.lis2dw12_pin_polarity_set:00000000 $t
C:\Users\vct344\AppData\Local\Temp\ccePc7Ac.s:4096   .text.lis2dw12_pin_polarity_set:00000000 lis2dw12_pin_polarity_set
C:\Users\vct344\AppData\Local\Temp\ccePc7Ac.s:4159   .text.lis2dw12_pin_polarity_get:00000000 $t
C:\Users\vct344\AppData\Local\Temp\ccePc7Ac.s:4165   .text.lis2dw12_pin_polarity_get:00000000 lis2dw12_pin_polarity_get
C:\Users\vct344\AppData\Local\Temp\ccePc7Ac.s:4239   .text.lis2dw12_int_notification_set:00000000 $t
C:\Users\vct344\AppData\Local\Temp\ccePc7Ac.s:4245   .text.lis2dw12_int_notification_set:00000000 lis2dw12_int_notification_set
C:\Users\vct344\AppData\Local\Temp\ccePc7Ac.s:4308   .text.lis2dw12_int_notification_get:00000000 $t
C:\Users\vct344\AppData\Local\Temp\ccePc7Ac.s:4314   .text.lis2dw12_int_notification_get:00000000 lis2dw12_int_notification_get
C:\Users\vct344\AppData\Local\Temp\ccePc7Ac.s:4388   .text.lis2dw12_pin_mode_set:00000000 $t
C:\Users\vct344\AppData\Local\Temp\ccePc7Ac.s:4394   .text.lis2dw12_pin_mode_set:00000000 lis2dw12_pin_mode_set
C:\Users\vct344\AppData\Local\Temp\ccePc7Ac.s:4457   .text.lis2dw12_pin_mode_get:00000000 $t
C:\Users\vct344\AppData\Local\Temp\ccePc7Ac.s:4463   .text.lis2dw12_pin_mode_get:00000000 lis2dw12_pin_mode_get
C:\Users\vct344\AppData\Local\Temp\ccePc7Ac.s:4537   .text.lis2dw12_pin_int1_route_set:00000000 $t
C:\Users\vct344\AppData\Local\Temp\ccePc7Ac.s:4543   .text.lis2dw12_pin_int1_route_set:00000000 lis2dw12_pin_int1_route_set
C:\Users\vct344\AppData\Local\Temp\ccePc7Ac.s:4686   .text.lis2dw12_pin_int1_route_get:00000000 $t
C:\Users\vct344\AppData\Local\Temp\ccePc7Ac.s:4692   .text.lis2dw12_pin_int1_route_get:00000000 lis2dw12_pin_int1_route_get
C:\Users\vct344\AppData\Local\Temp\ccePc7Ac.s:4734   .text.lis2dw12_pin_int2_route_set:00000000 $t
C:\Users\vct344\AppData\Local\Temp\ccePc7Ac.s:4740   .text.lis2dw12_pin_int2_route_set:00000000 lis2dw12_pin_int2_route_set
C:\Users\vct344\AppData\Local\Temp\ccePc7Ac.s:4880   .text.lis2dw12_pin_int2_route_get:00000000 $t
C:\Users\vct344\AppData\Local\Temp\ccePc7Ac.s:4886   .text.lis2dw12_pin_int2_route_get:00000000 lis2dw12_pin_int2_route_get
C:\Users\vct344\AppData\Local\Temp\ccePc7Ac.s:4928   .text.lis2dw12_all_on_int1_set:00000000 $t
C:\Users\vct344\AppData\Local\Temp\ccePc7Ac.s:4934   .text.lis2dw12_all_on_int1_set:00000000 lis2dw12_all_on_int1_set
C:\Users\vct344\AppData\Local\Temp\ccePc7Ac.s:4996   .text.lis2dw12_all_on_int1_get:00000000 $t
C:\Users\vct344\AppData\Local\Temp\ccePc7Ac.s:5002   .text.lis2dw12_all_on_int1_get:00000000 lis2dw12_all_on_int1_get
C:\Users\vct344\AppData\Local\Temp\ccePc7Ac.s:5052   .text.lis2dw12_wkup_threshold_set:00000000 $t
C:\Users\vct344\AppData\Local\Temp\ccePc7Ac.s:5058   .text.lis2dw12_wkup_threshold_set:00000000 lis2dw12_wkup_threshold_set
C:\Users\vct344\AppData\Local\Temp\ccePc7Ac.s:5120   .text.lis2dw12_wkup_threshold_get:00000000 $t
C:\Users\vct344\AppData\Local\Temp\ccePc7Ac.s:5126   .text.lis2dw12_wkup_threshold_get:00000000 lis2dw12_wkup_threshold_get
C:\Users\vct344\AppData\Local\Temp\ccePc7Ac.s:5176   .text.lis2dw12_wkup_dur_set:00000000 $t
C:\Users\vct344\AppData\Local\Temp\ccePc7Ac.s:5182   .text.lis2dw12_wkup_dur_set:00000000 lis2dw12_wkup_dur_set
C:\Users\vct344\AppData\Local\Temp\ccePc7Ac.s:5244   .text.lis2dw12_wkup_dur_get:00000000 $t
C:\Users\vct344\AppData\Local\Temp\ccePc7Ac.s:5250   .text.lis2dw12_wkup_dur_get:00000000 lis2dw12_wkup_dur_get
C:\Users\vct344\AppData\Local\Temp\ccePc7Ac.s:5300   .text.lis2dw12_wkup_feed_data_set:00000000 $t
C:\Users\vct344\AppData\Local\Temp\ccePc7Ac.s:5306   .text.lis2dw12_wkup_feed_data_set:00000000 lis2dw12_wkup_feed_data_set
C:\Users\vct344\AppData\Local\Temp\ccePc7Ac.s:5369   .text.lis2dw12_wkup_feed_data_get:00000000 $t
C:\Users\vct344\AppData\Local\Temp\ccePc7Ac.s:5375   .text.lis2dw12_wkup_feed_data_get:00000000 lis2dw12_wkup_feed_data_get
C:\Users\vct344\AppData\Local\Temp\ccePc7Ac.s:5449   .text.lis2dw12_act_mode_set:00000000 $t
C:\Users\vct344\AppData\Local\Temp\ccePc7Ac.s:5455   .text.lis2dw12_act_mode_set:00000000 lis2dw12_act_mode_set
C:\Users\vct344\AppData\Local\Temp\ccePc7Ac.s:5551   .text.lis2dw12_act_mode_get:00000000 $t
C:\Users\vct344\AppData\Local\Temp\ccePc7Ac.s:5557   .text.lis2dw12_act_mode_get:00000000 lis2dw12_act_mode_get
C:\Users\vct344\AppData\Local\Temp\ccePc7Ac.s:5661   .text.lis2dw12_act_sleep_dur_set:00000000 $t
C:\Users\vct344\AppData\Local\Temp\ccePc7Ac.s:5667   .text.lis2dw12_act_sleep_dur_set:00000000 lis2dw12_act_sleep_dur_set
ARM GAS  C:\Users\vct344\AppData\Local\Temp\ccePc7Ac.s 			page 209


C:\Users\vct344\AppData\Local\Temp\ccePc7Ac.s:5729   .text.lis2dw12_act_sleep_dur_get:00000000 $t
C:\Users\vct344\AppData\Local\Temp\ccePc7Ac.s:5735   .text.lis2dw12_act_sleep_dur_get:00000000 lis2dw12_act_sleep_dur_get
C:\Users\vct344\AppData\Local\Temp\ccePc7Ac.s:5785   .text.lis2dw12_tap_threshold_x_set:00000000 $t
C:\Users\vct344\AppData\Local\Temp\ccePc7Ac.s:5791   .text.lis2dw12_tap_threshold_x_set:00000000 lis2dw12_tap_threshold_x_set
C:\Users\vct344\AppData\Local\Temp\ccePc7Ac.s:5853   .text.lis2dw12_tap_threshold_x_get:00000000 $t
C:\Users\vct344\AppData\Local\Temp\ccePc7Ac.s:5859   .text.lis2dw12_tap_threshold_x_get:00000000 lis2dw12_tap_threshold_x_get
C:\Users\vct344\AppData\Local\Temp\ccePc7Ac.s:5909   .text.lis2dw12_tap_threshold_y_set:00000000 $t
C:\Users\vct344\AppData\Local\Temp\ccePc7Ac.s:5915   .text.lis2dw12_tap_threshold_y_set:00000000 lis2dw12_tap_threshold_y_set
C:\Users\vct344\AppData\Local\Temp\ccePc7Ac.s:5977   .text.lis2dw12_tap_threshold_y_get:00000000 $t
C:\Users\vct344\AppData\Local\Temp\ccePc7Ac.s:5983   .text.lis2dw12_tap_threshold_y_get:00000000 lis2dw12_tap_threshold_y_get
C:\Users\vct344\AppData\Local\Temp\ccePc7Ac.s:6033   .text.lis2dw12_tap_axis_priority_set:00000000 $t
C:\Users\vct344\AppData\Local\Temp\ccePc7Ac.s:6039   .text.lis2dw12_tap_axis_priority_set:00000000 lis2dw12_tap_axis_priority_set
C:\Users\vct344\AppData\Local\Temp\ccePc7Ac.s:6102   .text.lis2dw12_tap_axis_priority_get:00000000 $t
C:\Users\vct344\AppData\Local\Temp\ccePc7Ac.s:6108   .text.lis2dw12_tap_axis_priority_get:00000000 lis2dw12_tap_axis_priority_get
C:\Users\vct344\AppData\Local\Temp\ccePc7Ac.s:6145   .text.lis2dw12_tap_axis_priority_get:0000002c $d
C:\Users\vct344\AppData\Local\Temp\ccePc7Ac.s:6152   .text.lis2dw12_tap_axis_priority_get:00000048 $t
C:\Users\vct344\AppData\Local\Temp\ccePc7Ac.s:6219   .text.lis2dw12_tap_threshold_z_set:00000000 $t
C:\Users\vct344\AppData\Local\Temp\ccePc7Ac.s:6225   .text.lis2dw12_tap_threshold_z_set:00000000 lis2dw12_tap_threshold_z_set
C:\Users\vct344\AppData\Local\Temp\ccePc7Ac.s:6287   .text.lis2dw12_tap_threshold_z_get:00000000 $t
C:\Users\vct344\AppData\Local\Temp\ccePc7Ac.s:6293   .text.lis2dw12_tap_threshold_z_get:00000000 lis2dw12_tap_threshold_z_get
C:\Users\vct344\AppData\Local\Temp\ccePc7Ac.s:6343   .text.lis2dw12_tap_detection_on_z_set:00000000 $t
C:\Users\vct344\AppData\Local\Temp\ccePc7Ac.s:6349   .text.lis2dw12_tap_detection_on_z_set:00000000 lis2dw12_tap_detection_on_z_set
C:\Users\vct344\AppData\Local\Temp\ccePc7Ac.s:6411   .text.lis2dw12_tap_detection_on_z_get:00000000 $t
C:\Users\vct344\AppData\Local\Temp\ccePc7Ac.s:6417   .text.lis2dw12_tap_detection_on_z_get:00000000 lis2dw12_tap_detection_on_z_get
C:\Users\vct344\AppData\Local\Temp\ccePc7Ac.s:6467   .text.lis2dw12_tap_detection_on_y_set:00000000 $t
C:\Users\vct344\AppData\Local\Temp\ccePc7Ac.s:6473   .text.lis2dw12_tap_detection_on_y_set:00000000 lis2dw12_tap_detection_on_y_set
C:\Users\vct344\AppData\Local\Temp\ccePc7Ac.s:6535   .text.lis2dw12_tap_detection_on_y_get:00000000 $t
C:\Users\vct344\AppData\Local\Temp\ccePc7Ac.s:6541   .text.lis2dw12_tap_detection_on_y_get:00000000 lis2dw12_tap_detection_on_y_get
C:\Users\vct344\AppData\Local\Temp\ccePc7Ac.s:6591   .text.lis2dw12_tap_detection_on_x_set:00000000 $t
C:\Users\vct344\AppData\Local\Temp\ccePc7Ac.s:6597   .text.lis2dw12_tap_detection_on_x_set:00000000 lis2dw12_tap_detection_on_x_set
C:\Users\vct344\AppData\Local\Temp\ccePc7Ac.s:6659   .text.lis2dw12_tap_detection_on_x_get:00000000 $t
C:\Users\vct344\AppData\Local\Temp\ccePc7Ac.s:6665   .text.lis2dw12_tap_detection_on_x_get:00000000 lis2dw12_tap_detection_on_x_get
C:\Users\vct344\AppData\Local\Temp\ccePc7Ac.s:6715   .text.lis2dw12_tap_shock_set:00000000 $t
C:\Users\vct344\AppData\Local\Temp\ccePc7Ac.s:6721   .text.lis2dw12_tap_shock_set:00000000 lis2dw12_tap_shock_set
C:\Users\vct344\AppData\Local\Temp\ccePc7Ac.s:6783   .text.lis2dw12_tap_shock_get:00000000 $t
C:\Users\vct344\AppData\Local\Temp\ccePc7Ac.s:6789   .text.lis2dw12_tap_shock_get:00000000 lis2dw12_tap_shock_get
C:\Users\vct344\AppData\Local\Temp\ccePc7Ac.s:6839   .text.lis2dw12_tap_quiet_set:00000000 $t
C:\Users\vct344\AppData\Local\Temp\ccePc7Ac.s:6845   .text.lis2dw12_tap_quiet_set:00000000 lis2dw12_tap_quiet_set
C:\Users\vct344\AppData\Local\Temp\ccePc7Ac.s:6907   .text.lis2dw12_tap_quiet_get:00000000 $t
C:\Users\vct344\AppData\Local\Temp\ccePc7Ac.s:6913   .text.lis2dw12_tap_quiet_get:00000000 lis2dw12_tap_quiet_get
C:\Users\vct344\AppData\Local\Temp\ccePc7Ac.s:6963   .text.lis2dw12_tap_dur_set:00000000 $t
C:\Users\vct344\AppData\Local\Temp\ccePc7Ac.s:6969   .text.lis2dw12_tap_dur_set:00000000 lis2dw12_tap_dur_set
C:\Users\vct344\AppData\Local\Temp\ccePc7Ac.s:7031   .text.lis2dw12_tap_dur_get:00000000 $t
C:\Users\vct344\AppData\Local\Temp\ccePc7Ac.s:7037   .text.lis2dw12_tap_dur_get:00000000 lis2dw12_tap_dur_get
C:\Users\vct344\AppData\Local\Temp\ccePc7Ac.s:7087   .text.lis2dw12_tap_mode_set:00000000 $t
C:\Users\vct344\AppData\Local\Temp\ccePc7Ac.s:7093   .text.lis2dw12_tap_mode_set:00000000 lis2dw12_tap_mode_set
C:\Users\vct344\AppData\Local\Temp\ccePc7Ac.s:7156   .text.lis2dw12_tap_mode_get:00000000 $t
C:\Users\vct344\AppData\Local\Temp\ccePc7Ac.s:7162   .text.lis2dw12_tap_mode_get:00000000 lis2dw12_tap_mode_get
C:\Users\vct344\AppData\Local\Temp\ccePc7Ac.s:7236   .text.lis2dw12_tap_src_get:00000000 $t
C:\Users\vct344\AppData\Local\Temp\ccePc7Ac.s:7242   .text.lis2dw12_tap_src_get:00000000 lis2dw12_tap_src_get
C:\Users\vct344\AppData\Local\Temp\ccePc7Ac.s:7284   .text.lis2dw12_6d_threshold_set:00000000 $t
C:\Users\vct344\AppData\Local\Temp\ccePc7Ac.s:7290   .text.lis2dw12_6d_threshold_set:00000000 lis2dw12_6d_threshold_set
C:\Users\vct344\AppData\Local\Temp\ccePc7Ac.s:7352   .text.lis2dw12_6d_threshold_get:00000000 $t
C:\Users\vct344\AppData\Local\Temp\ccePc7Ac.s:7358   .text.lis2dw12_6d_threshold_get:00000000 lis2dw12_6d_threshold_get
C:\Users\vct344\AppData\Local\Temp\ccePc7Ac.s:7408   .text.lis2dw12_4d_mode_set:00000000 $t
C:\Users\vct344\AppData\Local\Temp\ccePc7Ac.s:7414   .text.lis2dw12_4d_mode_set:00000000 lis2dw12_4d_mode_set
C:\Users\vct344\AppData\Local\Temp\ccePc7Ac.s:7476   .text.lis2dw12_4d_mode_get:00000000 $t
ARM GAS  C:\Users\vct344\AppData\Local\Temp\ccePc7Ac.s 			page 210


C:\Users\vct344\AppData\Local\Temp\ccePc7Ac.s:7482   .text.lis2dw12_4d_mode_get:00000000 lis2dw12_4d_mode_get
C:\Users\vct344\AppData\Local\Temp\ccePc7Ac.s:7532   .text.lis2dw12_6d_src_get:00000000 $t
C:\Users\vct344\AppData\Local\Temp\ccePc7Ac.s:7538   .text.lis2dw12_6d_src_get:00000000 lis2dw12_6d_src_get
C:\Users\vct344\AppData\Local\Temp\ccePc7Ac.s:7580   .text.lis2dw12_6d_feed_data_set:00000000 $t
C:\Users\vct344\AppData\Local\Temp\ccePc7Ac.s:7586   .text.lis2dw12_6d_feed_data_set:00000000 lis2dw12_6d_feed_data_set
C:\Users\vct344\AppData\Local\Temp\ccePc7Ac.s:7649   .text.lis2dw12_6d_feed_data_get:00000000 $t
C:\Users\vct344\AppData\Local\Temp\ccePc7Ac.s:7655   .text.lis2dw12_6d_feed_data_get:00000000 lis2dw12_6d_feed_data_get
C:\Users\vct344\AppData\Local\Temp\ccePc7Ac.s:7729   .text.lis2dw12_ff_dur_set:00000000 $t
C:\Users\vct344\AppData\Local\Temp\ccePc7Ac.s:7735   .text.lis2dw12_ff_dur_set:00000000 lis2dw12_ff_dur_set
C:\Users\vct344\AppData\Local\Temp\ccePc7Ac.s:7831   .text.lis2dw12_ff_dur_get:00000000 $t
C:\Users\vct344\AppData\Local\Temp\ccePc7Ac.s:7837   .text.lis2dw12_ff_dur_get:00000000 lis2dw12_ff_dur_get
C:\Users\vct344\AppData\Local\Temp\ccePc7Ac.s:7908   .text.lis2dw12_ff_threshold_set:00000000 $t
C:\Users\vct344\AppData\Local\Temp\ccePc7Ac.s:7914   .text.lis2dw12_ff_threshold_set:00000000 lis2dw12_ff_threshold_set
C:\Users\vct344\AppData\Local\Temp\ccePc7Ac.s:7977   .text.lis2dw12_ff_threshold_get:00000000 $t
C:\Users\vct344\AppData\Local\Temp\ccePc7Ac.s:7983   .text.lis2dw12_ff_threshold_get:00000000 lis2dw12_ff_threshold_get
C:\Users\vct344\AppData\Local\Temp\ccePc7Ac.s:8020   .text.lis2dw12_ff_threshold_get:0000002c $d
C:\Users\vct344\AppData\Local\Temp\ccePc7Ac.s:8028   .text.lis2dw12_ff_threshold_get:0000004c $t
C:\Users\vct344\AppData\Local\Temp\ccePc7Ac.s:8109   .text.lis2dw12_fifo_watermark_set:00000000 $t
C:\Users\vct344\AppData\Local\Temp\ccePc7Ac.s:8115   .text.lis2dw12_fifo_watermark_set:00000000 lis2dw12_fifo_watermark_set
C:\Users\vct344\AppData\Local\Temp\ccePc7Ac.s:8177   .text.lis2dw12_fifo_watermark_get:00000000 $t
C:\Users\vct344\AppData\Local\Temp\ccePc7Ac.s:8183   .text.lis2dw12_fifo_watermark_get:00000000 lis2dw12_fifo_watermark_get
C:\Users\vct344\AppData\Local\Temp\ccePc7Ac.s:8233   .text.lis2dw12_fifo_mode_set:00000000 $t
C:\Users\vct344\AppData\Local\Temp\ccePc7Ac.s:8239   .text.lis2dw12_fifo_mode_set:00000000 lis2dw12_fifo_mode_set
C:\Users\vct344\AppData\Local\Temp\ccePc7Ac.s:8302   .text.lis2dw12_fifo_mode_get:00000000 $t
C:\Users\vct344\AppData\Local\Temp\ccePc7Ac.s:8308   .text.lis2dw12_fifo_mode_get:00000000 lis2dw12_fifo_mode_get
C:\Users\vct344\AppData\Local\Temp\ccePc7Ac.s:8345   .text.lis2dw12_fifo_mode_get:0000002c $d
C:\Users\vct344\AppData\Local\Temp\ccePc7Ac.s:8352   .text.lis2dw12_fifo_mode_get:00000048 $t
C:\Users\vct344\AppData\Local\Temp\ccePc7Ac.s:8412   .text.lis2dw12_fifo_data_level_get:00000000 $t
C:\Users\vct344\AppData\Local\Temp\ccePc7Ac.s:8418   .text.lis2dw12_fifo_data_level_get:00000000 lis2dw12_fifo_data_level_get
C:\Users\vct344\AppData\Local\Temp\ccePc7Ac.s:8468   .text.lis2dw12_fifo_ovr_flag_get:00000000 $t
C:\Users\vct344\AppData\Local\Temp\ccePc7Ac.s:8474   .text.lis2dw12_fifo_ovr_flag_get:00000000 lis2dw12_fifo_ovr_flag_get
C:\Users\vct344\AppData\Local\Temp\ccePc7Ac.s:8524   .text.lis2dw12_fifo_wtm_flag_get:00000000 $t
C:\Users\vct344\AppData\Local\Temp\ccePc7Ac.s:8530   .text.lis2dw12_fifo_wtm_flag_get:00000000 lis2dw12_fifo_wtm_flag_get

UNDEFINED SYMBOLS
__aeabi_i2f
__aeabi_fmul
__aeabi_fdiv
__aeabi_fadd
