ARM GAS  C:\Users\vct344\AppData\Local\Temp\ccupTMSk.s 			page 1


   1              		.cpu cortex-m3
   2              		.arch armv7-m
   3              		.fpu softvfp
   4              		.eabi_attribute 20, 1
   5              		.eabi_attribute 21, 1
   6              		.eabi_attribute 23, 3
   7              		.eabi_attribute 24, 1
   8              		.eabi_attribute 25, 1
   9              		.eabi_attribute 26, 1
  10              		.eabi_attribute 30, 1
  11              		.eabi_attribute 34, 1
  12              		.eabi_attribute 18, 4
  13              		.file	"main.c"
  14              		.text
  15              	.Ltext0:
  16              		.cfi_sections	.debug_frame
  17              		.file 1 "Core/Src/main.c"
  18              		.section	.text.MX_GPIO_Init,"ax",%progbits
  19              		.align	1
  20              		.syntax unified
  21              		.thumb
  22              		.thumb_func
  24              	MX_GPIO_Init:
  25              	.LFB75:
   1:Core/Src/main.c **** /* USER CODE BEGIN Header */
   2:Core/Src/main.c **** /**
   3:Core/Src/main.c ****   ******************************************************************************
   4:Core/Src/main.c ****   * @file           : main.c
   5:Core/Src/main.c ****   * @brief          : Main program body
   6:Core/Src/main.c ****   ******************************************************************************
   7:Core/Src/main.c ****   * @attention
   8:Core/Src/main.c ****   *
   9:Core/Src/main.c ****   * Copyright (c) 2024 STMicroelectronics.
  10:Core/Src/main.c ****   * All rights reserved.
  11:Core/Src/main.c ****   *
  12:Core/Src/main.c ****   * This software is licensed under terms that can be found in the LICENSE file
  13:Core/Src/main.c ****   * in the root directory of this software component.
  14:Core/Src/main.c ****   * If no LICENSE file comes with this software, it is provided AS-IS.
  15:Core/Src/main.c ****   *
  16:Core/Src/main.c ****   ******************************************************************************
  17:Core/Src/main.c ****   */
  18:Core/Src/main.c **** /* USER CODE END Header */
  19:Core/Src/main.c **** /* Includes ------------------------------------------------------------------*/
  20:Core/Src/main.c **** #include "main.h"
  21:Core/Src/main.c **** 
  22:Core/Src/main.c **** /* Private includes ----------------------------------------------------------*/
  23:Core/Src/main.c **** /* USER CODE BEGIN Includes */
  24:Core/Src/main.c **** #include <stdio.h>
  25:Core/Src/main.c **** #include "max30102_for_stm32_hal.h"
  26:Core/Src/main.c **** /* USER CODE END Includes */
  27:Core/Src/main.c **** 
  28:Core/Src/main.c **** /* Private typedef -----------------------------------------------------------*/
  29:Core/Src/main.c **** /* USER CODE BEGIN PTD */
  30:Core/Src/main.c **** 
  31:Core/Src/main.c **** /* USER CODE END PTD */
  32:Core/Src/main.c **** 
  33:Core/Src/main.c **** /* Private define ------------------------------------------------------------*/
ARM GAS  C:\Users\vct344\AppData\Local\Temp\ccupTMSk.s 			page 2


  34:Core/Src/main.c **** /* USER CODE BEGIN PD */
  35:Core/Src/main.c **** 
  36:Core/Src/main.c **** /* USER CODE END PD */
  37:Core/Src/main.c **** 
  38:Core/Src/main.c **** /* Private macro -------------------------------------------------------------*/
  39:Core/Src/main.c **** /* USER CODE BEGIN PM */
  40:Core/Src/main.c **** 
  41:Core/Src/main.c **** /* USER CODE END PM */
  42:Core/Src/main.c **** 
  43:Core/Src/main.c **** /* Private variables ---------------------------------------------------------*/
  44:Core/Src/main.c **** I2C_HandleTypeDef hi2c1;
  45:Core/Src/main.c **** 
  46:Core/Src/main.c **** UART_HandleTypeDef huart1;
  47:Core/Src/main.c **** UART_HandleTypeDef huart2;
  48:Core/Src/main.c **** 
  49:Core/Src/main.c **** /* USER CODE BEGIN PV */
  50:Core/Src/main.c **** int __io_putchar(int ch)
  51:Core/Src/main.c **** {
  52:Core/Src/main.c ****   uint8_t temp = ch;
  53:Core/Src/main.c ****   HAL_UART_Transmit(&huart1, &temp, 1, HAL_MAX_DELAY);
  54:Core/Src/main.c ****   return ch;
  55:Core/Src/main.c **** }
  56:Core/Src/main.c **** 
  57:Core/Src/main.c **** // Override plot function
  58:Core/Src/main.c **** void max30102_plot(uint32_t ir_sample, uint32_t red_sample)
  59:Core/Src/main.c **** {
  60:Core/Src/main.c ****     printf("ir:%u\n", ir_sample);                  // Print IR only
  61:Core/Src/main.c ****     printf("r:%u\n", red_sample);                  // Print Red only
  62:Core/Src/main.c ****     printf("ir:%u,r:%u\n", ir_sample, red_sample);    // Print IR and Red
  63:Core/Src/main.c **** }
  64:Core/Src/main.c **** 
  65:Core/Src/main.c **** // MAX30102 object
  66:Core/Src/main.c **** max30102_t max30102;
  67:Core/Src/main.c **** /* USER CODE END PV */
  68:Core/Src/main.c **** 
  69:Core/Src/main.c **** /* Private function prototypes -----------------------------------------------*/
  70:Core/Src/main.c **** void SystemClock_Config(void);
  71:Core/Src/main.c **** static void MX_GPIO_Init(void);
  72:Core/Src/main.c **** static void MX_USART2_UART_Init(void);
  73:Core/Src/main.c **** static void MX_I2C1_Init(void);
  74:Core/Src/main.c **** static void MX_USART1_UART_Init(void);
  75:Core/Src/main.c **** /* USER CODE BEGIN PFP */
  76:Core/Src/main.c **** 
  77:Core/Src/main.c **** /* USER CODE END PFP */
  78:Core/Src/main.c **** 
  79:Core/Src/main.c **** /* Private user code ---------------------------------------------------------*/
  80:Core/Src/main.c **** /* USER CODE BEGIN 0 */
  81:Core/Src/main.c **** 
  82:Core/Src/main.c **** /* USER CODE END 0 */
  83:Core/Src/main.c **** 
  84:Core/Src/main.c **** /**
  85:Core/Src/main.c ****   * @brief  The application entry point.
  86:Core/Src/main.c ****   * @retval int
  87:Core/Src/main.c ****   */
  88:Core/Src/main.c **** int main(void)
  89:Core/Src/main.c **** {
  90:Core/Src/main.c **** 
ARM GAS  C:\Users\vct344\AppData\Local\Temp\ccupTMSk.s 			page 3


  91:Core/Src/main.c ****   /* USER CODE BEGIN 1 */
  92:Core/Src/main.c **** 
  93:Core/Src/main.c ****   /* USER CODE END 1 */
  94:Core/Src/main.c **** 
  95:Core/Src/main.c ****   /* MCU Configuration--------------------------------------------------------*/
  96:Core/Src/main.c **** 
  97:Core/Src/main.c ****   /* Reset of all peripherals, Initializes the Flash interface and the Systick. */
  98:Core/Src/main.c ****   HAL_Init();
  99:Core/Src/main.c **** 
 100:Core/Src/main.c ****   /* USER CODE BEGIN Init */
 101:Core/Src/main.c ****   printf("Hello World\n"); 
 102:Core/Src/main.c **** 
 103:Core/Src/main.c ****   /* USER CODE END Init */
 104:Core/Src/main.c **** 
 105:Core/Src/main.c ****   /* Configure the system clock */
 106:Core/Src/main.c ****   SystemClock_Config();
 107:Core/Src/main.c **** 
 108:Core/Src/main.c ****   /* USER CODE BEGIN SysInit */
 109:Core/Src/main.c **** 
 110:Core/Src/main.c ****   /* USER CODE END SysInit */
 111:Core/Src/main.c **** 
 112:Core/Src/main.c ****   /* Initialize all configured peripherals */
 113:Core/Src/main.c ****   MX_GPIO_Init();
 114:Core/Src/main.c ****   MX_USART2_UART_Init();
 115:Core/Src/main.c ****   MX_I2C1_Init();
 116:Core/Src/main.c ****   MX_USART1_UART_Init();
 117:Core/Src/main.c ****   /* USER CODE BEGIN 2 */
 118:Core/Src/main.c ****   max30102_init(&max30102, &hi2c1);
 119:Core/Src/main.c ****   max30102_reset(&max30102);
 120:Core/Src/main.c ****   max30102_clear_fifo(&max30102);
 121:Core/Src/main.c ****   max30102_set_fifo_config(&max30102, max30102_smp_ave_8, 1, 7);
 122:Core/Src/main.c ****   
 123:Core/Src/main.c ****   // Sensor settings
 124:Core/Src/main.c ****   max30102_set_led_pulse_width(&max30102, max30102_pw_16_bit);
 125:Core/Src/main.c ****   max30102_set_adc_resolution(&max30102, max30102_adc_2048);
 126:Core/Src/main.c ****   max30102_set_sampling_rate(&max30102, max30102_sr_800);
 127:Core/Src/main.c ****   max30102_set_led_current_1(&max30102, 6.2);
 128:Core/Src/main.c ****   max30102_set_led_current_2(&max30102, 6.2);
 129:Core/Src/main.c **** 
 130:Core/Src/main.c ****   // Enter SpO2 mode
 131:Core/Src/main.c ****   max30102_set_mode(&max30102, max30102_spo2);
 132:Core/Src/main.c ****   max30102_set_a_full(&max30102, 1);
 133:Core/Src/main.c ****   
 134:Core/Src/main.c ****   // Initiate 1 temperature measurement
 135:Core/Src/main.c ****   max30102_set_die_temp_en(&max30102, 1);
 136:Core/Src/main.c ****   max30102_set_die_temp_rdy(&max30102, 1);
 137:Core/Src/main.c ****   
 138:Core/Src/main.c ****   uint8_t en_reg[2] = {0};
 139:Core/Src/main.c ****   max30102_read(&max30102, 0x00, en_reg, 1);
 140:Core/Src/main.c ****   /* USER CODE END 2 */
 141:Core/Src/main.c **** 
 142:Core/Src/main.c ****   /* Infinite loop */
 143:Core/Src/main.c ****   /* USER CODE BEGIN WHILE */
 144:Core/Src/main.c ****   while (1)
 145:Core/Src/main.c ****   {
 146:Core/Src/main.c ****     if (max30102_has_interrupt(&max30102))
 147:Core/Src/main.c ****     {
ARM GAS  C:\Users\vct344\AppData\Local\Temp\ccupTMSk.s 			page 4


 148:Core/Src/main.c ****       max30102_interrupt_handler(&max30102);
 149:Core/Src/main.c ****     }
 150:Core/Src/main.c ****     /* USER CODE END WHILE */
 151:Core/Src/main.c ****     HAL_GPIO_TogglePin (GPIOA, GPIO_PIN_5);
 152:Core/Src/main.c ****     HAL_Delay (1000);
 153:Core/Src/main.c **** 
 154:Core/Src/main.c ****     /* USER CODE BEGIN 3 */
 155:Core/Src/main.c ****   }
 156:Core/Src/main.c ****   /* USER CODE END 3 */
 157:Core/Src/main.c **** }
 158:Core/Src/main.c **** 
 159:Core/Src/main.c **** /**
 160:Core/Src/main.c ****   * @brief System Clock Configuration
 161:Core/Src/main.c ****   * @retval None
 162:Core/Src/main.c ****   */
 163:Core/Src/main.c **** void SystemClock_Config(void)
 164:Core/Src/main.c **** {
 165:Core/Src/main.c ****   RCC_OscInitTypeDef RCC_OscInitStruct = {0};
 166:Core/Src/main.c ****   RCC_ClkInitTypeDef RCC_ClkInitStruct = {0};
 167:Core/Src/main.c **** 
 168:Core/Src/main.c ****   /** Initializes the RCC Oscillators according to the specified parameters
 169:Core/Src/main.c ****   * in the RCC_OscInitTypeDef structure.
 170:Core/Src/main.c ****   */
 171:Core/Src/main.c ****   RCC_OscInitStruct.OscillatorType = RCC_OSCILLATORTYPE_HSI;
 172:Core/Src/main.c ****   RCC_OscInitStruct.HSIState = RCC_HSI_ON;
 173:Core/Src/main.c ****   RCC_OscInitStruct.HSICalibrationValue = RCC_HSICALIBRATION_DEFAULT;
 174:Core/Src/main.c ****   RCC_OscInitStruct.PLL.PLLState = RCC_PLL_ON;
 175:Core/Src/main.c ****   RCC_OscInitStruct.PLL.PLLSource = RCC_PLLSOURCE_HSI_DIV2;
 176:Core/Src/main.c ****   RCC_OscInitStruct.PLL.PLLMUL = RCC_PLL_MUL16;
 177:Core/Src/main.c ****   if (HAL_RCC_OscConfig(&RCC_OscInitStruct) != HAL_OK)
 178:Core/Src/main.c ****   {
 179:Core/Src/main.c ****     Error_Handler();
 180:Core/Src/main.c ****   }
 181:Core/Src/main.c **** 
 182:Core/Src/main.c ****   /** Initializes the CPU, AHB and APB buses clocks
 183:Core/Src/main.c ****   */
 184:Core/Src/main.c ****   RCC_ClkInitStruct.ClockType = RCC_CLOCKTYPE_HCLK|RCC_CLOCKTYPE_SYSCLK
 185:Core/Src/main.c ****                               |RCC_CLOCKTYPE_PCLK1|RCC_CLOCKTYPE_PCLK2;
 186:Core/Src/main.c ****   RCC_ClkInitStruct.SYSCLKSource = RCC_SYSCLKSOURCE_PLLCLK;
 187:Core/Src/main.c ****   RCC_ClkInitStruct.AHBCLKDivider = RCC_SYSCLK_DIV1;
 188:Core/Src/main.c ****   RCC_ClkInitStruct.APB1CLKDivider = RCC_HCLK_DIV2;
 189:Core/Src/main.c ****   RCC_ClkInitStruct.APB2CLKDivider = RCC_HCLK_DIV1;
 190:Core/Src/main.c **** 
 191:Core/Src/main.c ****   if (HAL_RCC_ClockConfig(&RCC_ClkInitStruct, FLASH_LATENCY_2) != HAL_OK)
 192:Core/Src/main.c ****   {
 193:Core/Src/main.c ****     Error_Handler();
 194:Core/Src/main.c ****   }
 195:Core/Src/main.c **** }
 196:Core/Src/main.c **** 
 197:Core/Src/main.c **** /**
 198:Core/Src/main.c ****   * @brief I2C1 Initialization Function
 199:Core/Src/main.c ****   * @param None
 200:Core/Src/main.c ****   * @retval None
 201:Core/Src/main.c ****   */
 202:Core/Src/main.c **** static void MX_I2C1_Init(void)
 203:Core/Src/main.c **** {
 204:Core/Src/main.c **** 
ARM GAS  C:\Users\vct344\AppData\Local\Temp\ccupTMSk.s 			page 5


 205:Core/Src/main.c ****   /* USER CODE BEGIN I2C1_Init 0 */
 206:Core/Src/main.c **** 
 207:Core/Src/main.c ****   /* USER CODE END I2C1_Init 0 */
 208:Core/Src/main.c **** 
 209:Core/Src/main.c ****   /* USER CODE BEGIN I2C1_Init 1 */
 210:Core/Src/main.c **** 
 211:Core/Src/main.c ****   /* USER CODE END I2C1_Init 1 */
 212:Core/Src/main.c ****   hi2c1.Instance = I2C1;
 213:Core/Src/main.c ****   hi2c1.Init.ClockSpeed = 400000;
 214:Core/Src/main.c ****   hi2c1.Init.DutyCycle = I2C_DUTYCYCLE_2;
 215:Core/Src/main.c ****   hi2c1.Init.OwnAddress1 = 0;
 216:Core/Src/main.c ****   hi2c1.Init.AddressingMode = I2C_ADDRESSINGMODE_7BIT;
 217:Core/Src/main.c ****   hi2c1.Init.DualAddressMode = I2C_DUALADDRESS_DISABLE;
 218:Core/Src/main.c ****   hi2c1.Init.OwnAddress2 = 0;
 219:Core/Src/main.c ****   hi2c1.Init.GeneralCallMode = I2C_GENERALCALL_DISABLE;
 220:Core/Src/main.c ****   hi2c1.Init.NoStretchMode = I2C_NOSTRETCH_DISABLE;
 221:Core/Src/main.c ****   if (HAL_I2C_Init(&hi2c1) != HAL_OK)
 222:Core/Src/main.c ****   {
 223:Core/Src/main.c ****     Error_Handler();
 224:Core/Src/main.c ****   }
 225:Core/Src/main.c ****   /* USER CODE BEGIN I2C1_Init 2 */
 226:Core/Src/main.c **** 
 227:Core/Src/main.c ****   /* USER CODE END I2C1_Init 2 */
 228:Core/Src/main.c **** 
 229:Core/Src/main.c **** }
 230:Core/Src/main.c **** 
 231:Core/Src/main.c **** /**
 232:Core/Src/main.c ****   * @brief USART1 Initialization Function
 233:Core/Src/main.c ****   * @param None
 234:Core/Src/main.c ****   * @retval None
 235:Core/Src/main.c ****   */
 236:Core/Src/main.c **** static void MX_USART1_UART_Init(void)
 237:Core/Src/main.c **** {
 238:Core/Src/main.c **** 
 239:Core/Src/main.c ****   /* USER CODE BEGIN USART1_Init 0 */
 240:Core/Src/main.c **** 
 241:Core/Src/main.c ****   /* USER CODE END USART1_Init 0 */
 242:Core/Src/main.c **** 
 243:Core/Src/main.c ****   /* USER CODE BEGIN USART1_Init 1 */
 244:Core/Src/main.c **** 
 245:Core/Src/main.c ****   /* USER CODE END USART1_Init 1 */
 246:Core/Src/main.c ****   huart1.Instance = USART1;
 247:Core/Src/main.c ****   huart1.Init.BaudRate = 115200;
 248:Core/Src/main.c ****   huart1.Init.WordLength = UART_WORDLENGTH_8B;
 249:Core/Src/main.c ****   huart1.Init.StopBits = UART_STOPBITS_1;
 250:Core/Src/main.c ****   huart1.Init.Parity = UART_PARITY_NONE;
 251:Core/Src/main.c ****   huart1.Init.Mode = UART_MODE_TX_RX;
 252:Core/Src/main.c ****   huart1.Init.HwFlowCtl = UART_HWCONTROL_NONE;
 253:Core/Src/main.c ****   huart1.Init.OverSampling = UART_OVERSAMPLING_16;
 254:Core/Src/main.c ****   if (HAL_UART_Init(&huart1) != HAL_OK)
 255:Core/Src/main.c ****   {
 256:Core/Src/main.c ****     Error_Handler();
 257:Core/Src/main.c ****   }
 258:Core/Src/main.c ****   /* USER CODE BEGIN USART1_Init 2 */
 259:Core/Src/main.c **** 
 260:Core/Src/main.c ****   /* USER CODE END USART1_Init 2 */
 261:Core/Src/main.c **** 
ARM GAS  C:\Users\vct344\AppData\Local\Temp\ccupTMSk.s 			page 6


 262:Core/Src/main.c **** }
 263:Core/Src/main.c **** 
 264:Core/Src/main.c **** /**
 265:Core/Src/main.c ****   * @brief USART2 Initialization Function
 266:Core/Src/main.c ****   * @param None
 267:Core/Src/main.c ****   * @retval None
 268:Core/Src/main.c ****   */
 269:Core/Src/main.c **** static void MX_USART2_UART_Init(void)
 270:Core/Src/main.c **** {
 271:Core/Src/main.c **** 
 272:Core/Src/main.c ****   /* USER CODE BEGIN USART2_Init 0 */
 273:Core/Src/main.c **** 
 274:Core/Src/main.c ****   /* USER CODE END USART2_Init 0 */
 275:Core/Src/main.c **** 
 276:Core/Src/main.c ****   /* USER CODE BEGIN USART2_Init 1 */
 277:Core/Src/main.c **** 
 278:Core/Src/main.c ****   /* USER CODE END USART2_Init 1 */
 279:Core/Src/main.c ****   huart2.Instance = USART2;
 280:Core/Src/main.c ****   huart2.Init.BaudRate = 115200;
 281:Core/Src/main.c ****   huart2.Init.WordLength = UART_WORDLENGTH_8B;
 282:Core/Src/main.c ****   huart2.Init.StopBits = UART_STOPBITS_1;
 283:Core/Src/main.c ****   huart2.Init.Parity = UART_PARITY_NONE;
 284:Core/Src/main.c ****   huart2.Init.Mode = UART_MODE_TX_RX;
 285:Core/Src/main.c ****   huart2.Init.HwFlowCtl = UART_HWCONTROL_NONE;
 286:Core/Src/main.c ****   huart2.Init.OverSampling = UART_OVERSAMPLING_16;
 287:Core/Src/main.c ****   if (HAL_UART_Init(&huart2) != HAL_OK)
 288:Core/Src/main.c ****   {
 289:Core/Src/main.c ****     Error_Handler();
 290:Core/Src/main.c ****   }
 291:Core/Src/main.c ****   /* USER CODE BEGIN USART2_Init 2 */
 292:Core/Src/main.c **** 
 293:Core/Src/main.c ****   /* USER CODE END USART2_Init 2 */
 294:Core/Src/main.c **** 
 295:Core/Src/main.c **** }
 296:Core/Src/main.c **** 
 297:Core/Src/main.c **** /**
 298:Core/Src/main.c ****   * @brief GPIO Initialization Function
 299:Core/Src/main.c ****   * @param None
 300:Core/Src/main.c ****   * @retval None
 301:Core/Src/main.c ****   */
 302:Core/Src/main.c **** static void MX_GPIO_Init(void)
 303:Core/Src/main.c **** {
  26              		.loc 1 303 1 view -0
  27              		.cfi_startproc
  28              		@ args = 0, pretend = 0, frame = 32
  29              		@ frame_needed = 0, uses_anonymous_args = 0
  30 0000 F0B5     		push	{r4, r5, r6, r7, lr}
  31              	.LCFI0:
  32              		.cfi_def_cfa_offset 20
  33              		.cfi_offset 4, -20
  34              		.cfi_offset 5, -16
  35              		.cfi_offset 6, -12
  36              		.cfi_offset 7, -8
  37              		.cfi_offset 14, -4
  38 0002 89B0     		sub	sp, sp, #36
  39              	.LCFI1:
  40              		.cfi_def_cfa_offset 56
ARM GAS  C:\Users\vct344\AppData\Local\Temp\ccupTMSk.s 			page 7


 304:Core/Src/main.c ****   GPIO_InitTypeDef GPIO_InitStruct = {0};
  41              		.loc 1 304 3 view .LVU1
  42              		.loc 1 304 20 is_stmt 0 view .LVU2
  43 0004 0024     		movs	r4, #0
  44 0006 0494     		str	r4, [sp, #16]
  45 0008 0594     		str	r4, [sp, #20]
  46 000a 0694     		str	r4, [sp, #24]
  47 000c 0794     		str	r4, [sp, #28]
 305:Core/Src/main.c **** /* USER CODE BEGIN MX_GPIO_Init_1 */
 306:Core/Src/main.c **** /* USER CODE END MX_GPIO_Init_1 */
 307:Core/Src/main.c **** 
 308:Core/Src/main.c ****   /* GPIO Ports Clock Enable */
 309:Core/Src/main.c ****   __HAL_RCC_GPIOC_CLK_ENABLE();
  48              		.loc 1 309 3 is_stmt 1 view .LVU3
  49              	.LBB4:
  50              		.loc 1 309 3 view .LVU4
  51              		.loc 1 309 3 view .LVU5
  52 000e 2E4B     		ldr	r3, .L3
  53 0010 9A69     		ldr	r2, [r3, #24]
  54 0012 42F01002 		orr	r2, r2, #16
  55 0016 9A61     		str	r2, [r3, #24]
  56              		.loc 1 309 3 view .LVU6
  57 0018 9A69     		ldr	r2, [r3, #24]
  58 001a 02F01002 		and	r2, r2, #16
  59 001e 0092     		str	r2, [sp]
  60              		.loc 1 309 3 view .LVU7
  61 0020 009A     		ldr	r2, [sp]
  62              	.LBE4:
  63              		.loc 1 309 3 view .LVU8
 310:Core/Src/main.c ****   __HAL_RCC_GPIOD_CLK_ENABLE();
  64              		.loc 1 310 3 view .LVU9
  65              	.LBB5:
  66              		.loc 1 310 3 view .LVU10
  67              		.loc 1 310 3 view .LVU11
  68 0022 9A69     		ldr	r2, [r3, #24]
  69 0024 42F02002 		orr	r2, r2, #32
  70 0028 9A61     		str	r2, [r3, #24]
  71              		.loc 1 310 3 view .LVU12
  72 002a 9A69     		ldr	r2, [r3, #24]
  73 002c 02F02002 		and	r2, r2, #32
  74 0030 0192     		str	r2, [sp, #4]
  75              		.loc 1 310 3 view .LVU13
  76 0032 019A     		ldr	r2, [sp, #4]
  77              	.LBE5:
  78              		.loc 1 310 3 view .LVU14
 311:Core/Src/main.c ****   __HAL_RCC_GPIOA_CLK_ENABLE();
  79              		.loc 1 311 3 view .LVU15
  80              	.LBB6:
  81              		.loc 1 311 3 view .LVU16
  82              		.loc 1 311 3 view .LVU17
  83 0034 9A69     		ldr	r2, [r3, #24]
  84 0036 42F00402 		orr	r2, r2, #4
  85 003a 9A61     		str	r2, [r3, #24]
  86              		.loc 1 311 3 view .LVU18
  87 003c 9A69     		ldr	r2, [r3, #24]
  88 003e 02F00402 		and	r2, r2, #4
  89 0042 0292     		str	r2, [sp, #8]
ARM GAS  C:\Users\vct344\AppData\Local\Temp\ccupTMSk.s 			page 8


  90              		.loc 1 311 3 view .LVU19
  91 0044 029A     		ldr	r2, [sp, #8]
  92              	.LBE6:
  93              		.loc 1 311 3 view .LVU20
 312:Core/Src/main.c ****   __HAL_RCC_GPIOB_CLK_ENABLE();
  94              		.loc 1 312 3 view .LVU21
  95              	.LBB7:
  96              		.loc 1 312 3 view .LVU22
  97              		.loc 1 312 3 view .LVU23
  98 0046 9A69     		ldr	r2, [r3, #24]
  99 0048 42F00802 		orr	r2, r2, #8
 100 004c 9A61     		str	r2, [r3, #24]
 101              		.loc 1 312 3 view .LVU24
 102 004e 9B69     		ldr	r3, [r3, #24]
 103 0050 03F00803 		and	r3, r3, #8
 104 0054 0393     		str	r3, [sp, #12]
 105              		.loc 1 312 3 view .LVU25
 106 0056 039B     		ldr	r3, [sp, #12]
 107              	.LBE7:
 108              		.loc 1 312 3 view .LVU26
 313:Core/Src/main.c **** 
 314:Core/Src/main.c ****   /*Configure GPIO pin Output Level */
 315:Core/Src/main.c ****   HAL_GPIO_WritePin(LD2_GPIO_Port, LD2_Pin, GPIO_PIN_RESET);
 109              		.loc 1 315 3 view .LVU27
 110 0058 1C4D     		ldr	r5, .L3+4
 111 005a 2246     		mov	r2, r4
 112 005c 2021     		movs	r1, #32
 113 005e 2846     		mov	r0, r5
 114 0060 FFF7FEFF 		bl	HAL_GPIO_WritePin
 115              	.LVL0:
 316:Core/Src/main.c **** 
 317:Core/Src/main.c ****   /*Configure GPIO pin : B1_Pin */
 318:Core/Src/main.c ****   GPIO_InitStruct.Pin = B1_Pin;
 116              		.loc 1 318 3 view .LVU28
 117              		.loc 1 318 23 is_stmt 0 view .LVU29
 118 0064 4FF40053 		mov	r3, #8192
 119 0068 0493     		str	r3, [sp, #16]
 319:Core/Src/main.c ****   GPIO_InitStruct.Mode = GPIO_MODE_IT_RISING;
 120              		.loc 1 319 3 is_stmt 1 view .LVU30
 121              		.loc 1 319 24 is_stmt 0 view .LVU31
 122 006a 194B     		ldr	r3, .L3+8
 123 006c 0593     		str	r3, [sp, #20]
 320:Core/Src/main.c ****   GPIO_InitStruct.Pull = GPIO_NOPULL;
 124              		.loc 1 320 3 is_stmt 1 view .LVU32
 125              		.loc 1 320 24 is_stmt 0 view .LVU33
 126 006e 0694     		str	r4, [sp, #24]
 321:Core/Src/main.c ****   HAL_GPIO_Init(B1_GPIO_Port, &GPIO_InitStruct);
 127              		.loc 1 321 3 is_stmt 1 view .LVU34
 128 0070 184F     		ldr	r7, .L3+12
 129 0072 04A9     		add	r1, sp, #16
 130 0074 3846     		mov	r0, r7
 131 0076 FFF7FEFF 		bl	HAL_GPIO_Init
 132              	.LVL1:
 322:Core/Src/main.c **** 
 323:Core/Src/main.c ****   /*Configure GPIO pin : PC3 */
 324:Core/Src/main.c ****   GPIO_InitStruct.Pin = GPIO_PIN_3;
 133              		.loc 1 324 3 view .LVU35
ARM GAS  C:\Users\vct344\AppData\Local\Temp\ccupTMSk.s 			page 9


 134              		.loc 1 324 23 is_stmt 0 view .LVU36
 135 007a 0823     		movs	r3, #8
 136 007c 0493     		str	r3, [sp, #16]
 325:Core/Src/main.c ****   GPIO_InitStruct.Mode = GPIO_MODE_IT_FALLING;
 137              		.loc 1 325 3 is_stmt 1 view .LVU37
 138              		.loc 1 325 24 is_stmt 0 view .LVU38
 139 007e 164B     		ldr	r3, .L3+16
 140 0080 0593     		str	r3, [sp, #20]
 326:Core/Src/main.c ****   GPIO_InitStruct.Pull = GPIO_PULLUP;
 141              		.loc 1 326 3 is_stmt 1 view .LVU39
 142              		.loc 1 326 24 is_stmt 0 view .LVU40
 143 0082 0126     		movs	r6, #1
 144 0084 0696     		str	r6, [sp, #24]
 327:Core/Src/main.c ****   HAL_GPIO_Init(GPIOC, &GPIO_InitStruct);
 145              		.loc 1 327 3 is_stmt 1 view .LVU41
 146 0086 04A9     		add	r1, sp, #16
 147 0088 3846     		mov	r0, r7
 148 008a FFF7FEFF 		bl	HAL_GPIO_Init
 149              	.LVL2:
 328:Core/Src/main.c **** 
 329:Core/Src/main.c ****   /*Configure GPIO pin : LD2_Pin */
 330:Core/Src/main.c ****   GPIO_InitStruct.Pin = LD2_Pin;
 150              		.loc 1 330 3 view .LVU42
 151              		.loc 1 330 23 is_stmt 0 view .LVU43
 152 008e 2023     		movs	r3, #32
 153 0090 0493     		str	r3, [sp, #16]
 331:Core/Src/main.c ****   GPIO_InitStruct.Mode = GPIO_MODE_OUTPUT_PP;
 154              		.loc 1 331 3 is_stmt 1 view .LVU44
 155              		.loc 1 331 24 is_stmt 0 view .LVU45
 156 0092 0596     		str	r6, [sp, #20]
 332:Core/Src/main.c ****   GPIO_InitStruct.Pull = GPIO_NOPULL;
 157              		.loc 1 332 3 is_stmt 1 view .LVU46
 158              		.loc 1 332 24 is_stmt 0 view .LVU47
 159 0094 0694     		str	r4, [sp, #24]
 333:Core/Src/main.c ****   GPIO_InitStruct.Speed = GPIO_SPEED_FREQ_LOW;
 160              		.loc 1 333 3 is_stmt 1 view .LVU48
 161              		.loc 1 333 25 is_stmt 0 view .LVU49
 162 0096 0223     		movs	r3, #2
 163 0098 0793     		str	r3, [sp, #28]
 334:Core/Src/main.c ****   HAL_GPIO_Init(LD2_GPIO_Port, &GPIO_InitStruct);
 164              		.loc 1 334 3 is_stmt 1 view .LVU50
 165 009a 04A9     		add	r1, sp, #16
 166 009c 2846     		mov	r0, r5
 167 009e FFF7FEFF 		bl	HAL_GPIO_Init
 168              	.LVL3:
 335:Core/Src/main.c **** 
 336:Core/Src/main.c ****   /* EXTI interrupt init*/
 337:Core/Src/main.c ****   HAL_NVIC_SetPriority(EXTI3_IRQn, 0, 0);
 169              		.loc 1 337 3 view .LVU51
 170 00a2 2246     		mov	r2, r4
 171 00a4 2146     		mov	r1, r4
 172 00a6 0920     		movs	r0, #9
 173 00a8 FFF7FEFF 		bl	HAL_NVIC_SetPriority
 174              	.LVL4:
 338:Core/Src/main.c ****   HAL_NVIC_EnableIRQ(EXTI3_IRQn);
 175              		.loc 1 338 3 view .LVU52
 176 00ac 0920     		movs	r0, #9
ARM GAS  C:\Users\vct344\AppData\Local\Temp\ccupTMSk.s 			page 10


 177 00ae FFF7FEFF 		bl	HAL_NVIC_EnableIRQ
 178              	.LVL5:
 339:Core/Src/main.c **** 
 340:Core/Src/main.c ****   HAL_NVIC_SetPriority(EXTI15_10_IRQn, 0, 0);
 179              		.loc 1 340 3 view .LVU53
 180 00b2 2246     		mov	r2, r4
 181 00b4 2146     		mov	r1, r4
 182 00b6 2820     		movs	r0, #40
 183 00b8 FFF7FEFF 		bl	HAL_NVIC_SetPriority
 184              	.LVL6:
 341:Core/Src/main.c ****   HAL_NVIC_EnableIRQ(EXTI15_10_IRQn);
 185              		.loc 1 341 3 view .LVU54
 186 00bc 2820     		movs	r0, #40
 187 00be FFF7FEFF 		bl	HAL_NVIC_EnableIRQ
 188              	.LVL7:
 342:Core/Src/main.c **** 
 343:Core/Src/main.c **** /* USER CODE BEGIN MX_GPIO_Init_2 */
 344:Core/Src/main.c **** /* USER CODE END MX_GPIO_Init_2 */
 345:Core/Src/main.c **** }
 189              		.loc 1 345 1 is_stmt 0 view .LVU55
 190 00c2 09B0     		add	sp, sp, #36
 191              	.LCFI2:
 192              		.cfi_def_cfa_offset 20
 193              		@ sp needed
 194 00c4 F0BD     		pop	{r4, r5, r6, r7, pc}
 195              	.L4:
 196 00c6 00BF     		.align	2
 197              	.L3:
 198 00c8 00100240 		.word	1073876992
 199 00cc 00080140 		.word	1073809408
 200 00d0 00001110 		.word	269549568
 201 00d4 00100140 		.word	1073811456
 202 00d8 00002110 		.word	270598144
 203              		.cfi_endproc
 204              	.LFE75:
 206              		.section	.text.__io_putchar,"ax",%progbits
 207              		.align	1
 208              		.global	__io_putchar
 209              		.syntax unified
 210              		.thumb
 211              		.thumb_func
 213              	__io_putchar:
 214              	.LVL8:
 215              	.LFB68:
  51:Core/Src/main.c ****   uint8_t temp = ch;
 216              		.loc 1 51 1 is_stmt 1 view -0
 217              		.cfi_startproc
 218              		@ args = 0, pretend = 0, frame = 8
 219              		@ frame_needed = 0, uses_anonymous_args = 0
  51:Core/Src/main.c ****   uint8_t temp = ch;
 220              		.loc 1 51 1 is_stmt 0 view .LVU57
 221 0000 10B5     		push	{r4, lr}
 222              	.LCFI3:
 223              		.cfi_def_cfa_offset 8
 224              		.cfi_offset 4, -8
 225              		.cfi_offset 14, -4
 226 0002 82B0     		sub	sp, sp, #8
ARM GAS  C:\Users\vct344\AppData\Local\Temp\ccupTMSk.s 			page 11


 227              	.LCFI4:
 228              		.cfi_def_cfa_offset 16
 229 0004 0446     		mov	r4, r0
  52:Core/Src/main.c ****   HAL_UART_Transmit(&huart1, &temp, 1, HAL_MAX_DELAY);
 230              		.loc 1 52 3 is_stmt 1 view .LVU58
  52:Core/Src/main.c ****   HAL_UART_Transmit(&huart1, &temp, 1, HAL_MAX_DELAY);
 231              		.loc 1 52 11 is_stmt 0 view .LVU59
 232 0006 8DF80700 		strb	r0, [sp, #7]
  53:Core/Src/main.c ****   return ch;
 233              		.loc 1 53 3 is_stmt 1 view .LVU60
 234 000a 4FF0FF33 		mov	r3, #-1
 235 000e 0122     		movs	r2, #1
 236 0010 0DF10701 		add	r1, sp, #7
 237 0014 0248     		ldr	r0, .L7
 238              	.LVL9:
  53:Core/Src/main.c ****   return ch;
 239              		.loc 1 53 3 is_stmt 0 view .LVU61
 240 0016 FFF7FEFF 		bl	HAL_UART_Transmit
 241              	.LVL10:
  54:Core/Src/main.c **** }
 242              		.loc 1 54 3 is_stmt 1 view .LVU62
  55:Core/Src/main.c **** 
 243              		.loc 1 55 1 is_stmt 0 view .LVU63
 244 001a 2046     		mov	r0, r4
 245 001c 02B0     		add	sp, sp, #8
 246              	.LCFI5:
 247              		.cfi_def_cfa_offset 8
 248              		@ sp needed
 249 001e 10BD     		pop	{r4, pc}
 250              	.LVL11:
 251              	.L8:
  55:Core/Src/main.c **** 
 252              		.loc 1 55 1 view .LVU64
 253              		.align	2
 254              	.L7:
 255 0020 00000000 		.word	huart1
 256              		.cfi_endproc
 257              	.LFE68:
 259              		.section	.rodata.max30102_plot.str1.4,"aMS",%progbits,1
 260              		.align	2
 261              	.LC0:
 262 0000 69723A25 		.ascii	"ir:%u\012\000"
 262      750A00
 263 0007 00       		.align	2
 264              	.LC1:
 265 0008 723A2575 		.ascii	"r:%u\012\000"
 265      0A00
 266 000e 0000     		.align	2
 267              	.LC2:
 268 0010 69723A25 		.ascii	"ir:%u,r:%u\012\000"
 268      752C723A 
 268      25750A00 
 269              		.section	.text.max30102_plot,"ax",%progbits
 270              		.align	1
 271              		.global	max30102_plot
 272              		.syntax unified
 273              		.thumb
ARM GAS  C:\Users\vct344\AppData\Local\Temp\ccupTMSk.s 			page 12


 274              		.thumb_func
 276              	max30102_plot:
 277              	.LVL12:
 278              	.LFB69:
  59:Core/Src/main.c ****     printf("ir:%u\n", ir_sample);                  // Print IR only
 279              		.loc 1 59 1 is_stmt 1 view -0
 280              		.cfi_startproc
 281              		@ args = 0, pretend = 0, frame = 0
 282              		@ frame_needed = 0, uses_anonymous_args = 0
  59:Core/Src/main.c ****     printf("ir:%u\n", ir_sample);                  // Print IR only
 283              		.loc 1 59 1 is_stmt 0 view .LVU66
 284 0000 38B5     		push	{r3, r4, r5, lr}
 285              	.LCFI6:
 286              		.cfi_def_cfa_offset 16
 287              		.cfi_offset 3, -16
 288              		.cfi_offset 4, -12
 289              		.cfi_offset 5, -8
 290              		.cfi_offset 14, -4
 291 0002 0446     		mov	r4, r0
 292 0004 0D46     		mov	r5, r1
  60:Core/Src/main.c ****     printf("r:%u\n", red_sample);                  // Print Red only
 293              		.loc 1 60 5 is_stmt 1 view .LVU67
 294 0006 0146     		mov	r1, r0
 295              	.LVL13:
  60:Core/Src/main.c ****     printf("r:%u\n", red_sample);                  // Print Red only
 296              		.loc 1 60 5 is_stmt 0 view .LVU68
 297 0008 0648     		ldr	r0, .L11
 298              	.LVL14:
  60:Core/Src/main.c ****     printf("r:%u\n", red_sample);                  // Print Red only
 299              		.loc 1 60 5 view .LVU69
 300 000a FFF7FEFF 		bl	printf
 301              	.LVL15:
  61:Core/Src/main.c ****     printf("ir:%u,r:%u\n", ir_sample, red_sample);    // Print IR and Red
 302              		.loc 1 61 5 is_stmt 1 view .LVU70
 303 000e 2946     		mov	r1, r5
 304 0010 0548     		ldr	r0, .L11+4
 305 0012 FFF7FEFF 		bl	printf
 306              	.LVL16:
  62:Core/Src/main.c **** }
 307              		.loc 1 62 5 view .LVU71
 308 0016 2A46     		mov	r2, r5
 309 0018 2146     		mov	r1, r4
 310 001a 0448     		ldr	r0, .L11+8
 311 001c FFF7FEFF 		bl	printf
 312              	.LVL17:
  63:Core/Src/main.c **** 
 313              		.loc 1 63 1 is_stmt 0 view .LVU72
 314 0020 38BD     		pop	{r3, r4, r5, pc}
 315              	.LVL18:
 316              	.L12:
  63:Core/Src/main.c **** 
 317              		.loc 1 63 1 view .LVU73
 318 0022 00BF     		.align	2
 319              	.L11:
 320 0024 00000000 		.word	.LC0
 321 0028 08000000 		.word	.LC1
 322 002c 10000000 		.word	.LC2
ARM GAS  C:\Users\vct344\AppData\Local\Temp\ccupTMSk.s 			page 13


 323              		.cfi_endproc
 324              	.LFE69:
 326              		.section	.text.Error_Handler,"ax",%progbits
 327              		.align	1
 328              		.global	Error_Handler
 329              		.syntax unified
 330              		.thumb
 331              		.thumb_func
 333              	Error_Handler:
 334              	.LFB76:
 346:Core/Src/main.c **** 
 347:Core/Src/main.c **** /* USER CODE BEGIN 4 */
 348:Core/Src/main.c **** 
 349:Core/Src/main.c **** /* USER CODE END 4 */
 350:Core/Src/main.c **** 
 351:Core/Src/main.c **** /**
 352:Core/Src/main.c ****   * @brief  This function is executed in case of error occurrence.
 353:Core/Src/main.c ****   * @retval None
 354:Core/Src/main.c ****   */
 355:Core/Src/main.c **** void Error_Handler(void)
 356:Core/Src/main.c **** {
 335              		.loc 1 356 1 is_stmt 1 view -0
 336              		.cfi_startproc
 337              		@ Volatile: function does not return.
 338              		@ args = 0, pretend = 0, frame = 0
 339              		@ frame_needed = 0, uses_anonymous_args = 0
 340              		@ link register save eliminated.
 357:Core/Src/main.c ****   /* USER CODE BEGIN Error_Handler_Debug */
 358:Core/Src/main.c ****   /* User can add his own implementation to report the HAL error return state */
 359:Core/Src/main.c ****   __disable_irq();
 341              		.loc 1 359 3 view .LVU75
 342              	.LBB8:
 343              	.LBI8:
 344              		.file 2 "Drivers/CMSIS/Include/cmsis_gcc.h"
   1:Drivers/CMSIS/Include/cmsis_gcc.h **** /**************************************************************************//**
   2:Drivers/CMSIS/Include/cmsis_gcc.h ****  * @file     cmsis_gcc.h
   3:Drivers/CMSIS/Include/cmsis_gcc.h ****  * @brief    CMSIS compiler GCC header file
   4:Drivers/CMSIS/Include/cmsis_gcc.h ****  * @version  V5.0.4
   5:Drivers/CMSIS/Include/cmsis_gcc.h ****  * @date     09. April 2018
   6:Drivers/CMSIS/Include/cmsis_gcc.h ****  ******************************************************************************/
   7:Drivers/CMSIS/Include/cmsis_gcc.h **** /*
   8:Drivers/CMSIS/Include/cmsis_gcc.h ****  * Copyright (c) 2009-2018 Arm Limited. All rights reserved.
   9:Drivers/CMSIS/Include/cmsis_gcc.h ****  *
  10:Drivers/CMSIS/Include/cmsis_gcc.h ****  * SPDX-License-Identifier: Apache-2.0
  11:Drivers/CMSIS/Include/cmsis_gcc.h ****  *
  12:Drivers/CMSIS/Include/cmsis_gcc.h ****  * Licensed under the Apache License, Version 2.0 (the License); you may
  13:Drivers/CMSIS/Include/cmsis_gcc.h ****  * not use this file except in compliance with the License.
  14:Drivers/CMSIS/Include/cmsis_gcc.h ****  * You may obtain a copy of the License at
  15:Drivers/CMSIS/Include/cmsis_gcc.h ****  *
  16:Drivers/CMSIS/Include/cmsis_gcc.h ****  * www.apache.org/licenses/LICENSE-2.0
  17:Drivers/CMSIS/Include/cmsis_gcc.h ****  *
  18:Drivers/CMSIS/Include/cmsis_gcc.h ****  * Unless required by applicable law or agreed to in writing, software
  19:Drivers/CMSIS/Include/cmsis_gcc.h ****  * distributed under the License is distributed on an AS IS BASIS, WITHOUT
  20:Drivers/CMSIS/Include/cmsis_gcc.h ****  * WARRANTIES OR CONDITIONS OF ANY KIND, either express or implied.
  21:Drivers/CMSIS/Include/cmsis_gcc.h ****  * See the License for the specific language governing permissions and
  22:Drivers/CMSIS/Include/cmsis_gcc.h ****  * limitations under the License.
  23:Drivers/CMSIS/Include/cmsis_gcc.h ****  */
ARM GAS  C:\Users\vct344\AppData\Local\Temp\ccupTMSk.s 			page 14


  24:Drivers/CMSIS/Include/cmsis_gcc.h **** 
  25:Drivers/CMSIS/Include/cmsis_gcc.h **** #ifndef __CMSIS_GCC_H
  26:Drivers/CMSIS/Include/cmsis_gcc.h **** #define __CMSIS_GCC_H
  27:Drivers/CMSIS/Include/cmsis_gcc.h **** 
  28:Drivers/CMSIS/Include/cmsis_gcc.h **** /* ignore some GCC warnings */
  29:Drivers/CMSIS/Include/cmsis_gcc.h **** #pragma GCC diagnostic push
  30:Drivers/CMSIS/Include/cmsis_gcc.h **** #pragma GCC diagnostic ignored "-Wsign-conversion"
  31:Drivers/CMSIS/Include/cmsis_gcc.h **** #pragma GCC diagnostic ignored "-Wconversion"
  32:Drivers/CMSIS/Include/cmsis_gcc.h **** #pragma GCC diagnostic ignored "-Wunused-parameter"
  33:Drivers/CMSIS/Include/cmsis_gcc.h **** 
  34:Drivers/CMSIS/Include/cmsis_gcc.h **** /* Fallback for __has_builtin */
  35:Drivers/CMSIS/Include/cmsis_gcc.h **** #ifndef __has_builtin
  36:Drivers/CMSIS/Include/cmsis_gcc.h ****   #define __has_builtin(x) (0)
  37:Drivers/CMSIS/Include/cmsis_gcc.h **** #endif
  38:Drivers/CMSIS/Include/cmsis_gcc.h **** 
  39:Drivers/CMSIS/Include/cmsis_gcc.h **** /* CMSIS compiler specific defines */
  40:Drivers/CMSIS/Include/cmsis_gcc.h **** #ifndef   __ASM
  41:Drivers/CMSIS/Include/cmsis_gcc.h ****   #define __ASM                                  __asm
  42:Drivers/CMSIS/Include/cmsis_gcc.h **** #endif
  43:Drivers/CMSIS/Include/cmsis_gcc.h **** #ifndef   __INLINE
  44:Drivers/CMSIS/Include/cmsis_gcc.h ****   #define __INLINE                               inline
  45:Drivers/CMSIS/Include/cmsis_gcc.h **** #endif
  46:Drivers/CMSIS/Include/cmsis_gcc.h **** #ifndef   __STATIC_INLINE
  47:Drivers/CMSIS/Include/cmsis_gcc.h ****   #define __STATIC_INLINE                        static inline
  48:Drivers/CMSIS/Include/cmsis_gcc.h **** #endif
  49:Drivers/CMSIS/Include/cmsis_gcc.h **** #ifndef   __STATIC_FORCEINLINE                 
  50:Drivers/CMSIS/Include/cmsis_gcc.h ****   #define __STATIC_FORCEINLINE                   __attribute__((always_inline)) static inline
  51:Drivers/CMSIS/Include/cmsis_gcc.h **** #endif                                           
  52:Drivers/CMSIS/Include/cmsis_gcc.h **** #ifndef   __NO_RETURN
  53:Drivers/CMSIS/Include/cmsis_gcc.h ****   #define __NO_RETURN                            __attribute__((__noreturn__))
  54:Drivers/CMSIS/Include/cmsis_gcc.h **** #endif
  55:Drivers/CMSIS/Include/cmsis_gcc.h **** #ifndef   __USED
  56:Drivers/CMSIS/Include/cmsis_gcc.h ****   #define __USED                                 __attribute__((used))
  57:Drivers/CMSIS/Include/cmsis_gcc.h **** #endif
  58:Drivers/CMSIS/Include/cmsis_gcc.h **** #ifndef   __WEAK
  59:Drivers/CMSIS/Include/cmsis_gcc.h ****   #define __WEAK                                 __attribute__((weak))
  60:Drivers/CMSIS/Include/cmsis_gcc.h **** #endif
  61:Drivers/CMSIS/Include/cmsis_gcc.h **** #ifndef   __PACKED
  62:Drivers/CMSIS/Include/cmsis_gcc.h ****   #define __PACKED                               __attribute__((packed, aligned(1)))
  63:Drivers/CMSIS/Include/cmsis_gcc.h **** #endif
  64:Drivers/CMSIS/Include/cmsis_gcc.h **** #ifndef   __PACKED_STRUCT
  65:Drivers/CMSIS/Include/cmsis_gcc.h ****   #define __PACKED_STRUCT                        struct __attribute__((packed, aligned(1)))
  66:Drivers/CMSIS/Include/cmsis_gcc.h **** #endif
  67:Drivers/CMSIS/Include/cmsis_gcc.h **** #ifndef   __PACKED_UNION
  68:Drivers/CMSIS/Include/cmsis_gcc.h ****   #define __PACKED_UNION                         union __attribute__((packed, aligned(1)))
  69:Drivers/CMSIS/Include/cmsis_gcc.h **** #endif
  70:Drivers/CMSIS/Include/cmsis_gcc.h **** #ifndef   __UNALIGNED_UINT32        /* deprecated */
  71:Drivers/CMSIS/Include/cmsis_gcc.h ****   #pragma GCC diagnostic push
  72:Drivers/CMSIS/Include/cmsis_gcc.h ****   #pragma GCC diagnostic ignored "-Wpacked"
  73:Drivers/CMSIS/Include/cmsis_gcc.h ****   #pragma GCC diagnostic ignored "-Wattributes"
  74:Drivers/CMSIS/Include/cmsis_gcc.h ****   struct __attribute__((packed)) T_UINT32 { uint32_t v; };
  75:Drivers/CMSIS/Include/cmsis_gcc.h ****   #pragma GCC diagnostic pop
  76:Drivers/CMSIS/Include/cmsis_gcc.h ****   #define __UNALIGNED_UINT32(x)                  (((struct T_UINT32 *)(x))->v)
  77:Drivers/CMSIS/Include/cmsis_gcc.h **** #endif
  78:Drivers/CMSIS/Include/cmsis_gcc.h **** #ifndef   __UNALIGNED_UINT16_WRITE
  79:Drivers/CMSIS/Include/cmsis_gcc.h ****   #pragma GCC diagnostic push
  80:Drivers/CMSIS/Include/cmsis_gcc.h ****   #pragma GCC diagnostic ignored "-Wpacked"
ARM GAS  C:\Users\vct344\AppData\Local\Temp\ccupTMSk.s 			page 15


  81:Drivers/CMSIS/Include/cmsis_gcc.h ****   #pragma GCC diagnostic ignored "-Wattributes"
  82:Drivers/CMSIS/Include/cmsis_gcc.h ****   __PACKED_STRUCT T_UINT16_WRITE { uint16_t v; };
  83:Drivers/CMSIS/Include/cmsis_gcc.h ****   #pragma GCC diagnostic pop
  84:Drivers/CMSIS/Include/cmsis_gcc.h ****   #define __UNALIGNED_UINT16_WRITE(addr, val)    (void)((((struct T_UINT16_WRITE *)(void *)(addr))-
  85:Drivers/CMSIS/Include/cmsis_gcc.h **** #endif
  86:Drivers/CMSIS/Include/cmsis_gcc.h **** #ifndef   __UNALIGNED_UINT16_READ
  87:Drivers/CMSIS/Include/cmsis_gcc.h ****   #pragma GCC diagnostic push
  88:Drivers/CMSIS/Include/cmsis_gcc.h ****   #pragma GCC diagnostic ignored "-Wpacked"
  89:Drivers/CMSIS/Include/cmsis_gcc.h ****   #pragma GCC diagnostic ignored "-Wattributes"
  90:Drivers/CMSIS/Include/cmsis_gcc.h ****   __PACKED_STRUCT T_UINT16_READ { uint16_t v; };
  91:Drivers/CMSIS/Include/cmsis_gcc.h ****   #pragma GCC diagnostic pop
  92:Drivers/CMSIS/Include/cmsis_gcc.h ****   #define __UNALIGNED_UINT16_READ(addr)          (((const struct T_UINT16_READ *)(const void *)(add
  93:Drivers/CMSIS/Include/cmsis_gcc.h **** #endif
  94:Drivers/CMSIS/Include/cmsis_gcc.h **** #ifndef   __UNALIGNED_UINT32_WRITE
  95:Drivers/CMSIS/Include/cmsis_gcc.h ****   #pragma GCC diagnostic push
  96:Drivers/CMSIS/Include/cmsis_gcc.h ****   #pragma GCC diagnostic ignored "-Wpacked"
  97:Drivers/CMSIS/Include/cmsis_gcc.h ****   #pragma GCC diagnostic ignored "-Wattributes"
  98:Drivers/CMSIS/Include/cmsis_gcc.h ****   __PACKED_STRUCT T_UINT32_WRITE { uint32_t v; };
  99:Drivers/CMSIS/Include/cmsis_gcc.h ****   #pragma GCC diagnostic pop
 100:Drivers/CMSIS/Include/cmsis_gcc.h ****   #define __UNALIGNED_UINT32_WRITE(addr, val)    (void)((((struct T_UINT32_WRITE *)(void *)(addr))-
 101:Drivers/CMSIS/Include/cmsis_gcc.h **** #endif
 102:Drivers/CMSIS/Include/cmsis_gcc.h **** #ifndef   __UNALIGNED_UINT32_READ
 103:Drivers/CMSIS/Include/cmsis_gcc.h ****   #pragma GCC diagnostic push
 104:Drivers/CMSIS/Include/cmsis_gcc.h ****   #pragma GCC diagnostic ignored "-Wpacked"
 105:Drivers/CMSIS/Include/cmsis_gcc.h ****   #pragma GCC diagnostic ignored "-Wattributes"
 106:Drivers/CMSIS/Include/cmsis_gcc.h ****   __PACKED_STRUCT T_UINT32_READ { uint32_t v; };
 107:Drivers/CMSIS/Include/cmsis_gcc.h ****   #pragma GCC diagnostic pop
 108:Drivers/CMSIS/Include/cmsis_gcc.h ****   #define __UNALIGNED_UINT32_READ(addr)          (((const struct T_UINT32_READ *)(const void *)(add
 109:Drivers/CMSIS/Include/cmsis_gcc.h **** #endif
 110:Drivers/CMSIS/Include/cmsis_gcc.h **** #ifndef   __ALIGNED
 111:Drivers/CMSIS/Include/cmsis_gcc.h ****   #define __ALIGNED(x)                           __attribute__((aligned(x)))
 112:Drivers/CMSIS/Include/cmsis_gcc.h **** #endif
 113:Drivers/CMSIS/Include/cmsis_gcc.h **** #ifndef   __RESTRICT
 114:Drivers/CMSIS/Include/cmsis_gcc.h ****   #define __RESTRICT                             __restrict
 115:Drivers/CMSIS/Include/cmsis_gcc.h **** #endif
 116:Drivers/CMSIS/Include/cmsis_gcc.h **** 
 117:Drivers/CMSIS/Include/cmsis_gcc.h **** 
 118:Drivers/CMSIS/Include/cmsis_gcc.h **** /* ###########################  Core Function Access  ########################### */
 119:Drivers/CMSIS/Include/cmsis_gcc.h **** /** \ingroup  CMSIS_Core_FunctionInterface
 120:Drivers/CMSIS/Include/cmsis_gcc.h ****     \defgroup CMSIS_Core_RegAccFunctions CMSIS Core Register Access Functions
 121:Drivers/CMSIS/Include/cmsis_gcc.h ****   @{
 122:Drivers/CMSIS/Include/cmsis_gcc.h ****  */
 123:Drivers/CMSIS/Include/cmsis_gcc.h **** 
 124:Drivers/CMSIS/Include/cmsis_gcc.h **** /**
 125:Drivers/CMSIS/Include/cmsis_gcc.h ****   \brief   Enable IRQ Interrupts
 126:Drivers/CMSIS/Include/cmsis_gcc.h ****   \details Enables IRQ interrupts by clearing the I-bit in the CPSR.
 127:Drivers/CMSIS/Include/cmsis_gcc.h ****            Can only be executed in Privileged modes.
 128:Drivers/CMSIS/Include/cmsis_gcc.h ****  */
 129:Drivers/CMSIS/Include/cmsis_gcc.h **** __STATIC_FORCEINLINE void __enable_irq(void)
 130:Drivers/CMSIS/Include/cmsis_gcc.h **** {
 131:Drivers/CMSIS/Include/cmsis_gcc.h ****   __ASM volatile ("cpsie i" : : : "memory");
 132:Drivers/CMSIS/Include/cmsis_gcc.h **** }
 133:Drivers/CMSIS/Include/cmsis_gcc.h **** 
 134:Drivers/CMSIS/Include/cmsis_gcc.h **** 
 135:Drivers/CMSIS/Include/cmsis_gcc.h **** /**
 136:Drivers/CMSIS/Include/cmsis_gcc.h ****   \brief   Disable IRQ Interrupts
 137:Drivers/CMSIS/Include/cmsis_gcc.h ****   \details Disables IRQ interrupts by setting the I-bit in the CPSR.
ARM GAS  C:\Users\vct344\AppData\Local\Temp\ccupTMSk.s 			page 16


 138:Drivers/CMSIS/Include/cmsis_gcc.h ****            Can only be executed in Privileged modes.
 139:Drivers/CMSIS/Include/cmsis_gcc.h ****  */
 140:Drivers/CMSIS/Include/cmsis_gcc.h **** __STATIC_FORCEINLINE void __disable_irq(void)
 345              		.loc 2 140 27 view .LVU76
 346              	.LBB9:
 141:Drivers/CMSIS/Include/cmsis_gcc.h **** {
 142:Drivers/CMSIS/Include/cmsis_gcc.h ****   __ASM volatile ("cpsid i" : : : "memory");
 347              		.loc 2 142 3 view .LVU77
 348              		.syntax unified
 349              	@ 142 "Drivers/CMSIS/Include/cmsis_gcc.h" 1
 350 0000 72B6     		cpsid i
 351              	@ 0 "" 2
 352              		.thumb
 353              		.syntax unified
 354              	.L14:
 355              	.LBE9:
 356              	.LBE8:
 360:Core/Src/main.c ****   while (1)
 357              		.loc 1 360 3 discriminator 1 view .LVU78
 361:Core/Src/main.c ****   {
 362:Core/Src/main.c ****   }
 358              		.loc 1 362 3 discriminator 1 view .LVU79
 360:Core/Src/main.c ****   while (1)
 359              		.loc 1 360 9 discriminator 1 view .LVU80
 360 0002 FEE7     		b	.L14
 361              		.cfi_endproc
 362              	.LFE76:
 364              		.section	.text.MX_USART2_UART_Init,"ax",%progbits
 365              		.align	1
 366              		.syntax unified
 367              		.thumb
 368              		.thumb_func
 370              	MX_USART2_UART_Init:
 371              	.LFB74:
 270:Core/Src/main.c **** 
 372              		.loc 1 270 1 view -0
 373              		.cfi_startproc
 374              		@ args = 0, pretend = 0, frame = 0
 375              		@ frame_needed = 0, uses_anonymous_args = 0
 376 0000 08B5     		push	{r3, lr}
 377              	.LCFI7:
 378              		.cfi_def_cfa_offset 8
 379              		.cfi_offset 3, -8
 380              		.cfi_offset 14, -4
 279:Core/Src/main.c ****   huart2.Init.BaudRate = 115200;
 381              		.loc 1 279 3 view .LVU82
 279:Core/Src/main.c ****   huart2.Init.BaudRate = 115200;
 382              		.loc 1 279 19 is_stmt 0 view .LVU83
 383 0002 0A48     		ldr	r0, .L19
 384 0004 0A4B     		ldr	r3, .L19+4
 385 0006 0360     		str	r3, [r0]
 280:Core/Src/main.c ****   huart2.Init.WordLength = UART_WORDLENGTH_8B;
 386              		.loc 1 280 3 is_stmt 1 view .LVU84
 280:Core/Src/main.c ****   huart2.Init.WordLength = UART_WORDLENGTH_8B;
 387              		.loc 1 280 24 is_stmt 0 view .LVU85
 388 0008 4FF4E133 		mov	r3, #115200
 389 000c 4360     		str	r3, [r0, #4]
ARM GAS  C:\Users\vct344\AppData\Local\Temp\ccupTMSk.s 			page 17


 281:Core/Src/main.c ****   huart2.Init.StopBits = UART_STOPBITS_1;
 390              		.loc 1 281 3 is_stmt 1 view .LVU86
 281:Core/Src/main.c ****   huart2.Init.StopBits = UART_STOPBITS_1;
 391              		.loc 1 281 26 is_stmt 0 view .LVU87
 392 000e 0023     		movs	r3, #0
 393 0010 8360     		str	r3, [r0, #8]
 282:Core/Src/main.c ****   huart2.Init.Parity = UART_PARITY_NONE;
 394              		.loc 1 282 3 is_stmt 1 view .LVU88
 282:Core/Src/main.c ****   huart2.Init.Parity = UART_PARITY_NONE;
 395              		.loc 1 282 24 is_stmt 0 view .LVU89
 396 0012 C360     		str	r3, [r0, #12]
 283:Core/Src/main.c ****   huart2.Init.Mode = UART_MODE_TX_RX;
 397              		.loc 1 283 3 is_stmt 1 view .LVU90
 283:Core/Src/main.c ****   huart2.Init.Mode = UART_MODE_TX_RX;
 398              		.loc 1 283 22 is_stmt 0 view .LVU91
 399 0014 0361     		str	r3, [r0, #16]
 284:Core/Src/main.c ****   huart2.Init.HwFlowCtl = UART_HWCONTROL_NONE;
 400              		.loc 1 284 3 is_stmt 1 view .LVU92
 284:Core/Src/main.c ****   huart2.Init.HwFlowCtl = UART_HWCONTROL_NONE;
 401              		.loc 1 284 20 is_stmt 0 view .LVU93
 402 0016 0C22     		movs	r2, #12
 403 0018 4261     		str	r2, [r0, #20]
 285:Core/Src/main.c ****   huart2.Init.OverSampling = UART_OVERSAMPLING_16;
 404              		.loc 1 285 3 is_stmt 1 view .LVU94
 285:Core/Src/main.c ****   huart2.Init.OverSampling = UART_OVERSAMPLING_16;
 405              		.loc 1 285 25 is_stmt 0 view .LVU95
 406 001a 8361     		str	r3, [r0, #24]
 286:Core/Src/main.c ****   if (HAL_UART_Init(&huart2) != HAL_OK)
 407              		.loc 1 286 3 is_stmt 1 view .LVU96
 286:Core/Src/main.c ****   if (HAL_UART_Init(&huart2) != HAL_OK)
 408              		.loc 1 286 28 is_stmt 0 view .LVU97
 409 001c C361     		str	r3, [r0, #28]
 287:Core/Src/main.c ****   {
 410              		.loc 1 287 3 is_stmt 1 view .LVU98
 287:Core/Src/main.c ****   {
 411              		.loc 1 287 7 is_stmt 0 view .LVU99
 412 001e FFF7FEFF 		bl	HAL_UART_Init
 413              	.LVL19:
 287:Core/Src/main.c ****   {
 414              		.loc 1 287 6 view .LVU100
 415 0022 00B9     		cbnz	r0, .L18
 295:Core/Src/main.c **** 
 416              		.loc 1 295 1 view .LVU101
 417 0024 08BD     		pop	{r3, pc}
 418              	.L18:
 289:Core/Src/main.c ****   }
 419              		.loc 1 289 5 is_stmt 1 view .LVU102
 420 0026 FFF7FEFF 		bl	Error_Handler
 421              	.LVL20:
 422              	.L20:
 423 002a 00BF     		.align	2
 424              	.L19:
 425 002c 00000000 		.word	huart2
 426 0030 00440040 		.word	1073759232
 427              		.cfi_endproc
 428              	.LFE74:
 430              		.section	.text.MX_I2C1_Init,"ax",%progbits
ARM GAS  C:\Users\vct344\AppData\Local\Temp\ccupTMSk.s 			page 18


 431              		.align	1
 432              		.syntax unified
 433              		.thumb
 434              		.thumb_func
 436              	MX_I2C1_Init:
 437              	.LFB72:
 203:Core/Src/main.c **** 
 438              		.loc 1 203 1 view -0
 439              		.cfi_startproc
 440              		@ args = 0, pretend = 0, frame = 0
 441              		@ frame_needed = 0, uses_anonymous_args = 0
 442 0000 08B5     		push	{r3, lr}
 443              	.LCFI8:
 444              		.cfi_def_cfa_offset 8
 445              		.cfi_offset 3, -8
 446              		.cfi_offset 14, -4
 212:Core/Src/main.c ****   hi2c1.Init.ClockSpeed = 400000;
 447              		.loc 1 212 3 view .LVU104
 212:Core/Src/main.c ****   hi2c1.Init.ClockSpeed = 400000;
 448              		.loc 1 212 18 is_stmt 0 view .LVU105
 449 0002 0A48     		ldr	r0, .L25
 450 0004 0A4B     		ldr	r3, .L25+4
 451 0006 0360     		str	r3, [r0]
 213:Core/Src/main.c ****   hi2c1.Init.DutyCycle = I2C_DUTYCYCLE_2;
 452              		.loc 1 213 3 is_stmt 1 view .LVU106
 213:Core/Src/main.c ****   hi2c1.Init.DutyCycle = I2C_DUTYCYCLE_2;
 453              		.loc 1 213 25 is_stmt 0 view .LVU107
 454 0008 0A4B     		ldr	r3, .L25+8
 455 000a 4360     		str	r3, [r0, #4]
 214:Core/Src/main.c ****   hi2c1.Init.OwnAddress1 = 0;
 456              		.loc 1 214 3 is_stmt 1 view .LVU108
 214:Core/Src/main.c ****   hi2c1.Init.OwnAddress1 = 0;
 457              		.loc 1 214 24 is_stmt 0 view .LVU109
 458 000c 0023     		movs	r3, #0
 459 000e 8360     		str	r3, [r0, #8]
 215:Core/Src/main.c ****   hi2c1.Init.AddressingMode = I2C_ADDRESSINGMODE_7BIT;
 460              		.loc 1 215 3 is_stmt 1 view .LVU110
 215:Core/Src/main.c ****   hi2c1.Init.AddressingMode = I2C_ADDRESSINGMODE_7BIT;
 461              		.loc 1 215 26 is_stmt 0 view .LVU111
 462 0010 C360     		str	r3, [r0, #12]
 216:Core/Src/main.c ****   hi2c1.Init.DualAddressMode = I2C_DUALADDRESS_DISABLE;
 463              		.loc 1 216 3 is_stmt 1 view .LVU112
 216:Core/Src/main.c ****   hi2c1.Init.DualAddressMode = I2C_DUALADDRESS_DISABLE;
 464              		.loc 1 216 29 is_stmt 0 view .LVU113
 465 0012 4FF48042 		mov	r2, #16384
 466 0016 0261     		str	r2, [r0, #16]
 217:Core/Src/main.c ****   hi2c1.Init.OwnAddress2 = 0;
 467              		.loc 1 217 3 is_stmt 1 view .LVU114
 217:Core/Src/main.c ****   hi2c1.Init.OwnAddress2 = 0;
 468              		.loc 1 217 30 is_stmt 0 view .LVU115
 469 0018 4361     		str	r3, [r0, #20]
 218:Core/Src/main.c ****   hi2c1.Init.GeneralCallMode = I2C_GENERALCALL_DISABLE;
 470              		.loc 1 218 3 is_stmt 1 view .LVU116
 218:Core/Src/main.c ****   hi2c1.Init.GeneralCallMode = I2C_GENERALCALL_DISABLE;
 471              		.loc 1 218 26 is_stmt 0 view .LVU117
 472 001a 8361     		str	r3, [r0, #24]
 219:Core/Src/main.c ****   hi2c1.Init.NoStretchMode = I2C_NOSTRETCH_DISABLE;
ARM GAS  C:\Users\vct344\AppData\Local\Temp\ccupTMSk.s 			page 19


 473              		.loc 1 219 3 is_stmt 1 view .LVU118
 219:Core/Src/main.c ****   hi2c1.Init.NoStretchMode = I2C_NOSTRETCH_DISABLE;
 474              		.loc 1 219 30 is_stmt 0 view .LVU119
 475 001c C361     		str	r3, [r0, #28]
 220:Core/Src/main.c ****   if (HAL_I2C_Init(&hi2c1) != HAL_OK)
 476              		.loc 1 220 3 is_stmt 1 view .LVU120
 220:Core/Src/main.c ****   if (HAL_I2C_Init(&hi2c1) != HAL_OK)
 477              		.loc 1 220 28 is_stmt 0 view .LVU121
 478 001e 0362     		str	r3, [r0, #32]
 221:Core/Src/main.c ****   {
 479              		.loc 1 221 3 is_stmt 1 view .LVU122
 221:Core/Src/main.c ****   {
 480              		.loc 1 221 7 is_stmt 0 view .LVU123
 481 0020 FFF7FEFF 		bl	HAL_I2C_Init
 482              	.LVL21:
 221:Core/Src/main.c ****   {
 483              		.loc 1 221 6 view .LVU124
 484 0024 00B9     		cbnz	r0, .L24
 229:Core/Src/main.c **** 
 485              		.loc 1 229 1 view .LVU125
 486 0026 08BD     		pop	{r3, pc}
 487              	.L24:
 223:Core/Src/main.c ****   }
 488              		.loc 1 223 5 is_stmt 1 view .LVU126
 489 0028 FFF7FEFF 		bl	Error_Handler
 490              	.LVL22:
 491              	.L26:
 492              		.align	2
 493              	.L25:
 494 002c 00000000 		.word	hi2c1
 495 0030 00540040 		.word	1073763328
 496 0034 801A0600 		.word	400000
 497              		.cfi_endproc
 498              	.LFE72:
 500              		.section	.text.MX_USART1_UART_Init,"ax",%progbits
 501              		.align	1
 502              		.syntax unified
 503              		.thumb
 504              		.thumb_func
 506              	MX_USART1_UART_Init:
 507              	.LFB73:
 237:Core/Src/main.c **** 
 508              		.loc 1 237 1 view -0
 509              		.cfi_startproc
 510              		@ args = 0, pretend = 0, frame = 0
 511              		@ frame_needed = 0, uses_anonymous_args = 0
 512 0000 08B5     		push	{r3, lr}
 513              	.LCFI9:
 514              		.cfi_def_cfa_offset 8
 515              		.cfi_offset 3, -8
 516              		.cfi_offset 14, -4
 246:Core/Src/main.c ****   huart1.Init.BaudRate = 115200;
 517              		.loc 1 246 3 view .LVU128
 246:Core/Src/main.c ****   huart1.Init.BaudRate = 115200;
 518              		.loc 1 246 19 is_stmt 0 view .LVU129
 519 0002 0A48     		ldr	r0, .L31
 520 0004 0A4B     		ldr	r3, .L31+4
ARM GAS  C:\Users\vct344\AppData\Local\Temp\ccupTMSk.s 			page 20


 521 0006 0360     		str	r3, [r0]
 247:Core/Src/main.c ****   huart1.Init.WordLength = UART_WORDLENGTH_8B;
 522              		.loc 1 247 3 is_stmt 1 view .LVU130
 247:Core/Src/main.c ****   huart1.Init.WordLength = UART_WORDLENGTH_8B;
 523              		.loc 1 247 24 is_stmt 0 view .LVU131
 524 0008 4FF4E133 		mov	r3, #115200
 525 000c 4360     		str	r3, [r0, #4]
 248:Core/Src/main.c ****   huart1.Init.StopBits = UART_STOPBITS_1;
 526              		.loc 1 248 3 is_stmt 1 view .LVU132
 248:Core/Src/main.c ****   huart1.Init.StopBits = UART_STOPBITS_1;
 527              		.loc 1 248 26 is_stmt 0 view .LVU133
 528 000e 0023     		movs	r3, #0
 529 0010 8360     		str	r3, [r0, #8]
 249:Core/Src/main.c ****   huart1.Init.Parity = UART_PARITY_NONE;
 530              		.loc 1 249 3 is_stmt 1 view .LVU134
 249:Core/Src/main.c ****   huart1.Init.Parity = UART_PARITY_NONE;
 531              		.loc 1 249 24 is_stmt 0 view .LVU135
 532 0012 C360     		str	r3, [r0, #12]
 250:Core/Src/main.c ****   huart1.Init.Mode = UART_MODE_TX_RX;
 533              		.loc 1 250 3 is_stmt 1 view .LVU136
 250:Core/Src/main.c ****   huart1.Init.Mode = UART_MODE_TX_RX;
 534              		.loc 1 250 22 is_stmt 0 view .LVU137
 535 0014 0361     		str	r3, [r0, #16]
 251:Core/Src/main.c ****   huart1.Init.HwFlowCtl = UART_HWCONTROL_NONE;
 536              		.loc 1 251 3 is_stmt 1 view .LVU138
 251:Core/Src/main.c ****   huart1.Init.HwFlowCtl = UART_HWCONTROL_NONE;
 537              		.loc 1 251 20 is_stmt 0 view .LVU139
 538 0016 0C22     		movs	r2, #12
 539 0018 4261     		str	r2, [r0, #20]
 252:Core/Src/main.c ****   huart1.Init.OverSampling = UART_OVERSAMPLING_16;
 540              		.loc 1 252 3 is_stmt 1 view .LVU140
 252:Core/Src/main.c ****   huart1.Init.OverSampling = UART_OVERSAMPLING_16;
 541              		.loc 1 252 25 is_stmt 0 view .LVU141
 542 001a 8361     		str	r3, [r0, #24]
 253:Core/Src/main.c ****   if (HAL_UART_Init(&huart1) != HAL_OK)
 543              		.loc 1 253 3 is_stmt 1 view .LVU142
 253:Core/Src/main.c ****   if (HAL_UART_Init(&huart1) != HAL_OK)
 544              		.loc 1 253 28 is_stmt 0 view .LVU143
 545 001c C361     		str	r3, [r0, #28]
 254:Core/Src/main.c ****   {
 546              		.loc 1 254 3 is_stmt 1 view .LVU144
 254:Core/Src/main.c ****   {
 547              		.loc 1 254 7 is_stmt 0 view .LVU145
 548 001e FFF7FEFF 		bl	HAL_UART_Init
 549              	.LVL23:
 254:Core/Src/main.c ****   {
 550              		.loc 1 254 6 view .LVU146
 551 0022 00B9     		cbnz	r0, .L30
 262:Core/Src/main.c **** 
 552              		.loc 1 262 1 view .LVU147
 553 0024 08BD     		pop	{r3, pc}
 554              	.L30:
 256:Core/Src/main.c ****   }
 555              		.loc 1 256 5 is_stmt 1 view .LVU148
 556 0026 FFF7FEFF 		bl	Error_Handler
 557              	.LVL24:
 558              	.L32:
ARM GAS  C:\Users\vct344\AppData\Local\Temp\ccupTMSk.s 			page 21


 559 002a 00BF     		.align	2
 560              	.L31:
 561 002c 00000000 		.word	huart1
 562 0030 00380140 		.word	1073821696
 563              		.cfi_endproc
 564              	.LFE73:
 566              		.section	.text.SystemClock_Config,"ax",%progbits
 567              		.align	1
 568              		.global	SystemClock_Config
 569              		.syntax unified
 570              		.thumb
 571              		.thumb_func
 573              	SystemClock_Config:
 574              	.LFB71:
 164:Core/Src/main.c ****   RCC_OscInitTypeDef RCC_OscInitStruct = {0};
 575              		.loc 1 164 1 view -0
 576              		.cfi_startproc
 577              		@ args = 0, pretend = 0, frame = 64
 578              		@ frame_needed = 0, uses_anonymous_args = 0
 579 0000 00B5     		push	{lr}
 580              	.LCFI10:
 581              		.cfi_def_cfa_offset 4
 582              		.cfi_offset 14, -4
 583 0002 91B0     		sub	sp, sp, #68
 584              	.LCFI11:
 585              		.cfi_def_cfa_offset 72
 165:Core/Src/main.c ****   RCC_ClkInitTypeDef RCC_ClkInitStruct = {0};
 586              		.loc 1 165 3 view .LVU150
 165:Core/Src/main.c ****   RCC_ClkInitTypeDef RCC_ClkInitStruct = {0};
 587              		.loc 1 165 22 is_stmt 0 view .LVU151
 588 0004 2822     		movs	r2, #40
 589 0006 0021     		movs	r1, #0
 590 0008 06A8     		add	r0, sp, #24
 591 000a FFF7FEFF 		bl	memset
 592              	.LVL25:
 166:Core/Src/main.c **** 
 593              		.loc 1 166 3 is_stmt 1 view .LVU152
 166:Core/Src/main.c **** 
 594              		.loc 1 166 22 is_stmt 0 view .LVU153
 595 000e 0023     		movs	r3, #0
 596 0010 0193     		str	r3, [sp, #4]
 597 0012 0293     		str	r3, [sp, #8]
 598 0014 0393     		str	r3, [sp, #12]
 599 0016 0493     		str	r3, [sp, #16]
 600 0018 0593     		str	r3, [sp, #20]
 171:Core/Src/main.c ****   RCC_OscInitStruct.HSIState = RCC_HSI_ON;
 601              		.loc 1 171 3 is_stmt 1 view .LVU154
 171:Core/Src/main.c ****   RCC_OscInitStruct.HSIState = RCC_HSI_ON;
 602              		.loc 1 171 36 is_stmt 0 view .LVU155
 603 001a 0223     		movs	r3, #2
 604 001c 0693     		str	r3, [sp, #24]
 172:Core/Src/main.c ****   RCC_OscInitStruct.HSICalibrationValue = RCC_HSICALIBRATION_DEFAULT;
 605              		.loc 1 172 3 is_stmt 1 view .LVU156
 172:Core/Src/main.c ****   RCC_OscInitStruct.HSICalibrationValue = RCC_HSICALIBRATION_DEFAULT;
 606              		.loc 1 172 30 is_stmt 0 view .LVU157
 607 001e 0122     		movs	r2, #1
 608 0020 0A92     		str	r2, [sp, #40]
ARM GAS  C:\Users\vct344\AppData\Local\Temp\ccupTMSk.s 			page 22


 173:Core/Src/main.c ****   RCC_OscInitStruct.PLL.PLLState = RCC_PLL_ON;
 609              		.loc 1 173 3 is_stmt 1 view .LVU158
 173:Core/Src/main.c ****   RCC_OscInitStruct.PLL.PLLState = RCC_PLL_ON;
 610              		.loc 1 173 41 is_stmt 0 view .LVU159
 611 0022 1022     		movs	r2, #16
 612 0024 0B92     		str	r2, [sp, #44]
 174:Core/Src/main.c ****   RCC_OscInitStruct.PLL.PLLSource = RCC_PLLSOURCE_HSI_DIV2;
 613              		.loc 1 174 3 is_stmt 1 view .LVU160
 174:Core/Src/main.c ****   RCC_OscInitStruct.PLL.PLLSource = RCC_PLLSOURCE_HSI_DIV2;
 614              		.loc 1 174 34 is_stmt 0 view .LVU161
 615 0026 0D93     		str	r3, [sp, #52]
 175:Core/Src/main.c ****   RCC_OscInitStruct.PLL.PLLMUL = RCC_PLL_MUL16;
 616              		.loc 1 175 3 is_stmt 1 view .LVU162
 176:Core/Src/main.c ****   if (HAL_RCC_OscConfig(&RCC_OscInitStruct) != HAL_OK)
 617              		.loc 1 176 3 view .LVU163
 176:Core/Src/main.c ****   if (HAL_RCC_OscConfig(&RCC_OscInitStruct) != HAL_OK)
 618              		.loc 1 176 32 is_stmt 0 view .LVU164
 619 0028 4FF46013 		mov	r3, #3670016
 620 002c 0F93     		str	r3, [sp, #60]
 177:Core/Src/main.c ****   {
 621              		.loc 1 177 3 is_stmt 1 view .LVU165
 177:Core/Src/main.c ****   {
 622              		.loc 1 177 7 is_stmt 0 view .LVU166
 623 002e 06A8     		add	r0, sp, #24
 624 0030 FFF7FEFF 		bl	HAL_RCC_OscConfig
 625              	.LVL26:
 177:Core/Src/main.c ****   {
 626              		.loc 1 177 6 view .LVU167
 627 0034 80B9     		cbnz	r0, .L37
 184:Core/Src/main.c ****                               |RCC_CLOCKTYPE_PCLK1|RCC_CLOCKTYPE_PCLK2;
 628              		.loc 1 184 3 is_stmt 1 view .LVU168
 184:Core/Src/main.c ****                               |RCC_CLOCKTYPE_PCLK1|RCC_CLOCKTYPE_PCLK2;
 629              		.loc 1 184 31 is_stmt 0 view .LVU169
 630 0036 0F23     		movs	r3, #15
 631 0038 0193     		str	r3, [sp, #4]
 186:Core/Src/main.c ****   RCC_ClkInitStruct.AHBCLKDivider = RCC_SYSCLK_DIV1;
 632              		.loc 1 186 3 is_stmt 1 view .LVU170
 186:Core/Src/main.c ****   RCC_ClkInitStruct.AHBCLKDivider = RCC_SYSCLK_DIV1;
 633              		.loc 1 186 34 is_stmt 0 view .LVU171
 634 003a 0221     		movs	r1, #2
 635 003c 0291     		str	r1, [sp, #8]
 187:Core/Src/main.c ****   RCC_ClkInitStruct.APB1CLKDivider = RCC_HCLK_DIV2;
 636              		.loc 1 187 3 is_stmt 1 view .LVU172
 187:Core/Src/main.c ****   RCC_ClkInitStruct.APB1CLKDivider = RCC_HCLK_DIV2;
 637              		.loc 1 187 35 is_stmt 0 view .LVU173
 638 003e 0023     		movs	r3, #0
 639 0040 0393     		str	r3, [sp, #12]
 188:Core/Src/main.c ****   RCC_ClkInitStruct.APB2CLKDivider = RCC_HCLK_DIV1;
 640              		.loc 1 188 3 is_stmt 1 view .LVU174
 188:Core/Src/main.c ****   RCC_ClkInitStruct.APB2CLKDivider = RCC_HCLK_DIV1;
 641              		.loc 1 188 36 is_stmt 0 view .LVU175
 642 0042 4FF48062 		mov	r2, #1024
 643 0046 0492     		str	r2, [sp, #16]
 189:Core/Src/main.c **** 
 644              		.loc 1 189 3 is_stmt 1 view .LVU176
 189:Core/Src/main.c **** 
 645              		.loc 1 189 36 is_stmt 0 view .LVU177
ARM GAS  C:\Users\vct344\AppData\Local\Temp\ccupTMSk.s 			page 23


 646 0048 0593     		str	r3, [sp, #20]
 191:Core/Src/main.c ****   {
 647              		.loc 1 191 3 is_stmt 1 view .LVU178
 191:Core/Src/main.c ****   {
 648              		.loc 1 191 7 is_stmt 0 view .LVU179
 649 004a 01A8     		add	r0, sp, #4
 650 004c FFF7FEFF 		bl	HAL_RCC_ClockConfig
 651              	.LVL27:
 191:Core/Src/main.c ****   {
 652              		.loc 1 191 6 view .LVU180
 653 0050 20B9     		cbnz	r0, .L38
 195:Core/Src/main.c **** 
 654              		.loc 1 195 1 view .LVU181
 655 0052 11B0     		add	sp, sp, #68
 656              	.LCFI12:
 657              		.cfi_remember_state
 658              		.cfi_def_cfa_offset 4
 659              		@ sp needed
 660 0054 5DF804FB 		ldr	pc, [sp], #4
 661              	.L37:
 662              	.LCFI13:
 663              		.cfi_restore_state
 179:Core/Src/main.c ****   }
 664              		.loc 1 179 5 is_stmt 1 view .LVU182
 665 0058 FFF7FEFF 		bl	Error_Handler
 666              	.LVL28:
 667              	.L38:
 193:Core/Src/main.c ****   }
 668              		.loc 1 193 5 view .LVU183
 669 005c FFF7FEFF 		bl	Error_Handler
 670              	.LVL29:
 671              		.cfi_endproc
 672              	.LFE71:
 674              		.section	.rodata.main.str1.4,"aMS",%progbits,1
 675              		.align	2
 676              	.LC3:
 677 0000 48656C6C 		.ascii	"Hello World\000"
 677      6F20576F 
 677      726C6400 
 678              		.section	.text.main,"ax",%progbits
 679              		.align	1
 680              		.global	main
 681              		.syntax unified
 682              		.thumb
 683              		.thumb_func
 685              	main:
 686              	.LFB70:
  89:Core/Src/main.c **** 
 687              		.loc 1 89 1 view -0
 688              		.cfi_startproc
 689              		@ Volatile: function does not return.
 690              		@ args = 0, pretend = 0, frame = 8
 691              		@ frame_needed = 0, uses_anonymous_args = 0
 692 0000 00B5     		push	{lr}
 693              	.LCFI14:
 694              		.cfi_def_cfa_offset 4
 695              		.cfi_offset 14, -4
ARM GAS  C:\Users\vct344\AppData\Local\Temp\ccupTMSk.s 			page 24


 696 0002 83B0     		sub	sp, sp, #12
 697              	.LCFI15:
 698              		.cfi_def_cfa_offset 16
  98:Core/Src/main.c **** 
 699              		.loc 1 98 3 view .LVU185
 700 0004 FFF7FEFF 		bl	HAL_Init
 701              	.LVL30:
 101:Core/Src/main.c **** 
 702              		.loc 1 101 3 view .LVU186
 703 0008 2E48     		ldr	r0, .L44
 704 000a FFF7FEFF 		bl	puts
 705              	.LVL31:
 106:Core/Src/main.c **** 
 706              		.loc 1 106 3 view .LVU187
 707 000e FFF7FEFF 		bl	SystemClock_Config
 708              	.LVL32:
 113:Core/Src/main.c ****   MX_USART2_UART_Init();
 709              		.loc 1 113 3 view .LVU188
 710 0012 FFF7FEFF 		bl	MX_GPIO_Init
 711              	.LVL33:
 114:Core/Src/main.c ****   MX_I2C1_Init();
 712              		.loc 1 114 3 view .LVU189
 713 0016 FFF7FEFF 		bl	MX_USART2_UART_Init
 714              	.LVL34:
 115:Core/Src/main.c ****   MX_USART1_UART_Init();
 715              		.loc 1 115 3 view .LVU190
 716 001a FFF7FEFF 		bl	MX_I2C1_Init
 717              	.LVL35:
 116:Core/Src/main.c ****   /* USER CODE BEGIN 2 */
 718              		.loc 1 116 3 view .LVU191
 719 001e FFF7FEFF 		bl	MX_USART1_UART_Init
 720              	.LVL36:
 118:Core/Src/main.c ****   max30102_reset(&max30102);
 721              		.loc 1 118 3 view .LVU192
 722 0022 294C     		ldr	r4, .L44+4
 723 0024 2949     		ldr	r1, .L44+8
 724 0026 2046     		mov	r0, r4
 725 0028 FFF7FEFF 		bl	max30102_init
 726              	.LVL37:
 119:Core/Src/main.c ****   max30102_clear_fifo(&max30102);
 727              		.loc 1 119 3 view .LVU193
 728 002c 2046     		mov	r0, r4
 729 002e FFF7FEFF 		bl	max30102_reset
 730              	.LVL38:
 120:Core/Src/main.c ****   max30102_set_fifo_config(&max30102, max30102_smp_ave_8, 1, 7);
 731              		.loc 1 120 3 view .LVU194
 732 0032 2046     		mov	r0, r4
 733 0034 FFF7FEFF 		bl	max30102_clear_fifo
 734              	.LVL39:
 121:Core/Src/main.c ****   
 735              		.loc 1 121 3 view .LVU195
 736 0038 0723     		movs	r3, #7
 737 003a 0122     		movs	r2, #1
 738 003c 0321     		movs	r1, #3
 739 003e 2046     		mov	r0, r4
 740 0040 FFF7FEFF 		bl	max30102_set_fifo_config
 741              	.LVL40:
ARM GAS  C:\Users\vct344\AppData\Local\Temp\ccupTMSk.s 			page 25


 124:Core/Src/main.c ****   max30102_set_adc_resolution(&max30102, max30102_adc_2048);
 742              		.loc 1 124 3 view .LVU196
 743 0044 0121     		movs	r1, #1
 744 0046 2046     		mov	r0, r4
 745 0048 FFF7FEFF 		bl	max30102_set_led_pulse_width
 746              	.LVL41:
 125:Core/Src/main.c ****   max30102_set_sampling_rate(&max30102, max30102_sr_800);
 747              		.loc 1 125 3 view .LVU197
 748 004c 0021     		movs	r1, #0
 749 004e 2046     		mov	r0, r4
 750 0050 FFF7FEFF 		bl	max30102_set_adc_resolution
 751              	.LVL42:
 126:Core/Src/main.c ****   max30102_set_led_current_1(&max30102, 6.2);
 752              		.loc 1 126 3 view .LVU198
 753 0054 0421     		movs	r1, #4
 754 0056 2046     		mov	r0, r4
 755 0058 FFF7FEFF 		bl	max30102_set_sampling_rate
 756              	.LVL43:
 127:Core/Src/main.c ****   max30102_set_led_current_2(&max30102, 6.2);
 757              		.loc 1 127 3 view .LVU199
 758 005c 1C4D     		ldr	r5, .L44+12
 759 005e 2946     		mov	r1, r5
 760 0060 2046     		mov	r0, r4
 761 0062 FFF7FEFF 		bl	max30102_set_led_current_1
 762              	.LVL44:
 128:Core/Src/main.c **** 
 763              		.loc 1 128 3 view .LVU200
 764 0066 2946     		mov	r1, r5
 765 0068 2046     		mov	r0, r4
 766 006a FFF7FEFF 		bl	max30102_set_led_current_2
 767              	.LVL45:
 131:Core/Src/main.c ****   max30102_set_a_full(&max30102, 1);
 768              		.loc 1 131 3 view .LVU201
 769 006e 0321     		movs	r1, #3
 770 0070 2046     		mov	r0, r4
 771 0072 FFF7FEFF 		bl	max30102_set_mode
 772              	.LVL46:
 132:Core/Src/main.c ****   
 773              		.loc 1 132 3 view .LVU202
 774 0076 0121     		movs	r1, #1
 775 0078 2046     		mov	r0, r4
 776 007a FFF7FEFF 		bl	max30102_set_a_full
 777              	.LVL47:
 135:Core/Src/main.c ****   max30102_set_die_temp_rdy(&max30102, 1);
 778              		.loc 1 135 3 view .LVU203
 779 007e 0121     		movs	r1, #1
 780 0080 2046     		mov	r0, r4
 781 0082 FFF7FEFF 		bl	max30102_set_die_temp_en
 782              	.LVL48:
 136:Core/Src/main.c ****   
 783              		.loc 1 136 3 view .LVU204
 784 0086 0121     		movs	r1, #1
 785 0088 2046     		mov	r0, r4
 786 008a FFF7FEFF 		bl	max30102_set_die_temp_rdy
 787              	.LVL49:
 138:Core/Src/main.c ****   max30102_read(&max30102, 0x00, en_reg, 1);
 788              		.loc 1 138 3 view .LVU205
ARM GAS  C:\Users\vct344\AppData\Local\Temp\ccupTMSk.s 			page 26


 138:Core/Src/main.c ****   max30102_read(&max30102, 0x00, en_reg, 1);
 789              		.loc 1 138 11 is_stmt 0 view .LVU206
 790 008e 0021     		movs	r1, #0
 791 0090 ADF80410 		strh	r1, [sp, #4]	@ movhi
 139:Core/Src/main.c ****   /* USER CODE END 2 */
 792              		.loc 1 139 3 is_stmt 1 view .LVU207
 793 0094 0123     		movs	r3, #1
 794 0096 01AA     		add	r2, sp, #4
 795 0098 2046     		mov	r0, r4
 796 009a FFF7FEFF 		bl	max30102_read
 797              	.LVL50:
 798 009e 0AE0     		b	.L41
 799              	.L43:
 148:Core/Src/main.c ****     }
 800              		.loc 1 148 7 view .LVU208
 801 00a0 0948     		ldr	r0, .L44+4
 802 00a2 FFF7FEFF 		bl	max30102_interrupt_handler
 803              	.LVL51:
 804              	.L40:
 151:Core/Src/main.c ****     HAL_Delay (1000);
 805              		.loc 1 151 5 view .LVU209
 806 00a6 2021     		movs	r1, #32
 807 00a8 0A48     		ldr	r0, .L44+16
 808 00aa FFF7FEFF 		bl	HAL_GPIO_TogglePin
 809              	.LVL52:
 152:Core/Src/main.c **** 
 810              		.loc 1 152 5 view .LVU210
 811 00ae 4FF47A70 		mov	r0, #1000
 812 00b2 FFF7FEFF 		bl	HAL_Delay
 813              	.LVL53:
 144:Core/Src/main.c ****   {
 814              		.loc 1 144 9 view .LVU211
 815              	.L41:
 144:Core/Src/main.c ****   {
 816              		.loc 1 144 3 view .LVU212
 146:Core/Src/main.c ****     {
 817              		.loc 1 146 5 view .LVU213
 146:Core/Src/main.c ****     {
 818              		.loc 1 146 9 is_stmt 0 view .LVU214
 819 00b6 0448     		ldr	r0, .L44+4
 820 00b8 FFF7FEFF 		bl	max30102_has_interrupt
 821              	.LVL54:
 146:Core/Src/main.c ****     {
 822              		.loc 1 146 8 view .LVU215
 823 00bc 0028     		cmp	r0, #0
 824 00be EFD1     		bne	.L43
 825 00c0 F1E7     		b	.L40
 826              	.L45:
 827 00c2 00BF     		.align	2
 828              	.L44:
 829 00c4 00000000 		.word	.LC3
 830 00c8 00000000 		.word	max30102
 831 00cc 00000000 		.word	hi2c1
 832 00d0 6666C640 		.word	1086744166
 833 00d4 00080140 		.word	1073809408
 834              		.cfi_endproc
 835              	.LFE70:
ARM GAS  C:\Users\vct344\AppData\Local\Temp\ccupTMSk.s 			page 27


 837              		.global	max30102
 838              		.section	.bss.max30102,"aw",%nobits
 839              		.align	2
 842              	max30102:
 843 0000 00000000 		.space	264
 843      00000000 
 843      00000000 
 843      00000000 
 843      00000000 
 844              		.global	huart2
 845              		.section	.bss.huart2,"aw",%nobits
 846              		.align	2
 849              	huart2:
 850 0000 00000000 		.space	72
 850      00000000 
 850      00000000 
 850      00000000 
 850      00000000 
 851              		.global	huart1
 852              		.section	.bss.huart1,"aw",%nobits
 853              		.align	2
 856              	huart1:
 857 0000 00000000 		.space	72
 857      00000000 
 857      00000000 
 857      00000000 
 857      00000000 
 858              		.global	hi2c1
 859              		.section	.bss.hi2c1,"aw",%nobits
 860              		.align	2
 863              	hi2c1:
 864 0000 00000000 		.space	84
 864      00000000 
 864      00000000 
 864      00000000 
 864      00000000 
 865              		.text
 866              	.Letext0:
 867              		.file 3 "Drivers/CMSIS/Device/ST/STM32F1xx/Include/stm32f103xb.h"
 868              		.file 4 "C:\\ST\\STM32CubeCLT_1.16.0\\GNU-tools-for-STM32\\bin/../lib/gcc/arm-none-eabi/12.3.1/../
 869              		.file 5 "C:\\ST\\STM32CubeCLT_1.16.0\\GNU-tools-for-STM32\\bin/../lib/gcc/arm-none-eabi/12.3.1/../
 870              		.file 6 "Drivers/STM32F1xx_HAL_Driver/Inc/stm32f1xx_hal_def.h"
 871              		.file 7 "Drivers/STM32F1xx_HAL_Driver/Inc/stm32f1xx_hal_rcc.h"
 872              		.file 8 "Drivers/STM32F1xx_HAL_Driver/Inc/stm32f1xx_hal_rcc_ex.h"
 873              		.file 9 "Drivers/STM32F1xx_HAL_Driver/Inc/stm32f1xx_hal_gpio.h"
 874              		.file 10 "Drivers/STM32F1xx_HAL_Driver/Inc/stm32f1xx_hal_dma.h"
 875              		.file 11 "Drivers/STM32F1xx_HAL_Driver/Inc/stm32f1xx_hal_i2c.h"
 876              		.file 12 "Drivers/STM32F1xx_HAL_Driver/Inc/stm32f1xx_hal_uart.h"
 877              		.file 13 "Core/Inc/max30102_for_stm32_hal.h"
 878              		.file 14 "Drivers/STM32F1xx_HAL_Driver/Inc/stm32f1xx_hal_cortex.h"
 879              		.file 15 "Drivers/STM32F1xx_HAL_Driver/Inc/stm32f1xx_hal.h"
 880              		.file 16 "C:\\ST\\STM32CubeCLT_1.16.0\\GNU-tools-for-STM32\\bin/../lib/gcc/arm-none-eabi/12.3.1/..
 881              		.file 17 "<built-in>"
ARM GAS  C:\Users\vct344\AppData\Local\Temp\ccupTMSk.s 			page 28

