ARM GAS  C:\Users\vct344\AppData\Local\Temp\cc0HwbW1.s 			page 1


   1              		.cpu cortex-m3
   2              		.arch armv7-m
   3              		.fpu softvfp
   4              		.eabi_attribute 20, 1
   5              		.eabi_attribute 21, 1
   6              		.eabi_attribute 23, 3
   7              		.eabi_attribute 24, 1
   8              		.eabi_attribute 25, 1
   9              		.eabi_attribute 26, 1
  10              		.eabi_attribute 30, 6
  11              		.eabi_attribute 34, 1
  12              		.eabi_attribute 18, 4
  13              		.file	"stm32f1xx_hal_msp.c"
  14              		.text
  15              	.Ltext0:
  16              		.cfi_sections	.debug_frame
  17              		.file 1 "Core/Src/stm32f1xx_hal_msp.c"
  18              		.section	.text.HAL_MspInit,"ax",%progbits
  19              		.align	1
  20              		.global	HAL_MspInit
  21              		.syntax unified
  22              		.thumb
  23              		.thumb_func
  25              	HAL_MspInit:
  26              	.LFB65:
   1:Core/Src/stm32f1xx_hal_msp.c **** 
   2:Core/Src/stm32f1xx_hal_msp.c **** /* USER CODE BEGIN Header */
   3:Core/Src/stm32f1xx_hal_msp.c **** /**
   4:Core/Src/stm32f1xx_hal_msp.c ****   ******************************************************************************
   5:Core/Src/stm32f1xx_hal_msp.c ****   * @file         stm32f1xx_hal_msp.c
   6:Core/Src/stm32f1xx_hal_msp.c ****   * @brief        This file provides code for the MSP Initialization
   7:Core/Src/stm32f1xx_hal_msp.c ****   *               and de-Initialization codes.
   8:Core/Src/stm32f1xx_hal_msp.c ****   ******************************************************************************
   9:Core/Src/stm32f1xx_hal_msp.c ****   * @attention
  10:Core/Src/stm32f1xx_hal_msp.c ****   *
  11:Core/Src/stm32f1xx_hal_msp.c ****   * Copyright (c) 2024 STMicroelectronics.
  12:Core/Src/stm32f1xx_hal_msp.c ****   * All rights reserved.
  13:Core/Src/stm32f1xx_hal_msp.c ****   *
  14:Core/Src/stm32f1xx_hal_msp.c ****   * This software is licensed under terms that can be found in the LICENSE file
  15:Core/Src/stm32f1xx_hal_msp.c ****   * in the root directory of this software component.
  16:Core/Src/stm32f1xx_hal_msp.c ****   * If no LICENSE file comes with this software, it is provided AS-IS.
  17:Core/Src/stm32f1xx_hal_msp.c ****   *
  18:Core/Src/stm32f1xx_hal_msp.c ****   ******************************************************************************
  19:Core/Src/stm32f1xx_hal_msp.c ****   */
  20:Core/Src/stm32f1xx_hal_msp.c **** /* USER CODE END Header */
  21:Core/Src/stm32f1xx_hal_msp.c **** 
  22:Core/Src/stm32f1xx_hal_msp.c **** /* Includes ------------------------------------------------------------------*/
  23:Core/Src/stm32f1xx_hal_msp.c **** #include "main.h"
  24:Core/Src/stm32f1xx_hal_msp.c **** /* USER CODE BEGIN Includes */
  25:Core/Src/stm32f1xx_hal_msp.c **** 
  26:Core/Src/stm32f1xx_hal_msp.c **** /* USER CODE END Includes */
  27:Core/Src/stm32f1xx_hal_msp.c **** 
  28:Core/Src/stm32f1xx_hal_msp.c **** /* Private typedef -----------------------------------------------------------*/
  29:Core/Src/stm32f1xx_hal_msp.c **** /* USER CODE BEGIN TD */
  30:Core/Src/stm32f1xx_hal_msp.c **** 
  31:Core/Src/stm32f1xx_hal_msp.c **** /* USER CODE END TD */
  32:Core/Src/stm32f1xx_hal_msp.c **** 
ARM GAS  C:\Users\vct344\AppData\Local\Temp\cc0HwbW1.s 			page 2


  33:Core/Src/stm32f1xx_hal_msp.c **** /* Private define ------------------------------------------------------------*/
  34:Core/Src/stm32f1xx_hal_msp.c **** /* USER CODE BEGIN Define */
  35:Core/Src/stm32f1xx_hal_msp.c **** 
  36:Core/Src/stm32f1xx_hal_msp.c **** /* USER CODE END Define */
  37:Core/Src/stm32f1xx_hal_msp.c **** 
  38:Core/Src/stm32f1xx_hal_msp.c **** /* Private macro -------------------------------------------------------------*/
  39:Core/Src/stm32f1xx_hal_msp.c **** /* USER CODE BEGIN Macro */
  40:Core/Src/stm32f1xx_hal_msp.c **** 
  41:Core/Src/stm32f1xx_hal_msp.c **** /* USER CODE END Macro */
  42:Core/Src/stm32f1xx_hal_msp.c **** 
  43:Core/Src/stm32f1xx_hal_msp.c **** /* Private variables ---------------------------------------------------------*/
  44:Core/Src/stm32f1xx_hal_msp.c **** /* USER CODE BEGIN PV */
  45:Core/Src/stm32f1xx_hal_msp.c **** 
  46:Core/Src/stm32f1xx_hal_msp.c **** /* USER CODE END PV */
  47:Core/Src/stm32f1xx_hal_msp.c **** 
  48:Core/Src/stm32f1xx_hal_msp.c **** /* Private function prototypes -----------------------------------------------*/
  49:Core/Src/stm32f1xx_hal_msp.c **** /* USER CODE BEGIN PFP */
  50:Core/Src/stm32f1xx_hal_msp.c **** 
  51:Core/Src/stm32f1xx_hal_msp.c **** /* USER CODE END PFP */
  52:Core/Src/stm32f1xx_hal_msp.c **** 
  53:Core/Src/stm32f1xx_hal_msp.c **** /* External functions --------------------------------------------------------*/
  54:Core/Src/stm32f1xx_hal_msp.c **** /* USER CODE BEGIN ExternalFunctions */
  55:Core/Src/stm32f1xx_hal_msp.c **** 
  56:Core/Src/stm32f1xx_hal_msp.c **** /* USER CODE END ExternalFunctions */
  57:Core/Src/stm32f1xx_hal_msp.c **** 
  58:Core/Src/stm32f1xx_hal_msp.c **** /* USER CODE BEGIN 0 */
  59:Core/Src/stm32f1xx_hal_msp.c **** 
  60:Core/Src/stm32f1xx_hal_msp.c **** /* USER CODE END 0 */
  61:Core/Src/stm32f1xx_hal_msp.c **** /**
  62:Core/Src/stm32f1xx_hal_msp.c ****   * Initializes the Global MSP.
  63:Core/Src/stm32f1xx_hal_msp.c ****   */
  64:Core/Src/stm32f1xx_hal_msp.c **** void HAL_MspInit(void)
  65:Core/Src/stm32f1xx_hal_msp.c **** {
  27              		.loc 1 65 1
  28              		.cfi_startproc
  29              		@ args = 0, pretend = 0, frame = 16
  30              		@ frame_needed = 1, uses_anonymous_args = 0
  31              		@ link register save eliminated.
  32 0000 80B4     		push	{r7}
  33              	.LCFI0:
  34              		.cfi_def_cfa_offset 4
  35              		.cfi_offset 7, -4
  36 0002 85B0     		sub	sp, sp, #20
  37              	.LCFI1:
  38              		.cfi_def_cfa_offset 24
  39 0004 00AF     		add	r7, sp, #0
  40              	.LCFI2:
  41              		.cfi_def_cfa_register 7
  42              	.LBB2:
  66:Core/Src/stm32f1xx_hal_msp.c **** 
  67:Core/Src/stm32f1xx_hal_msp.c ****   /* USER CODE BEGIN MspInit 0 */
  68:Core/Src/stm32f1xx_hal_msp.c **** 
  69:Core/Src/stm32f1xx_hal_msp.c ****   /* USER CODE END MspInit 0 */
  70:Core/Src/stm32f1xx_hal_msp.c **** 
  71:Core/Src/stm32f1xx_hal_msp.c ****   __HAL_RCC_AFIO_CLK_ENABLE();
  43              		.loc 1 71 3
  44 0006 154B     		ldr	r3, .L2
ARM GAS  C:\Users\vct344\AppData\Local\Temp\cc0HwbW1.s 			page 3


  45 0008 9B69     		ldr	r3, [r3, #24]
  46 000a 144A     		ldr	r2, .L2
  47 000c 43F00103 		orr	r3, r3, #1
  48 0010 9361     		str	r3, [r2, #24]
  49 0012 124B     		ldr	r3, .L2
  50 0014 9B69     		ldr	r3, [r3, #24]
  51 0016 03F00103 		and	r3, r3, #1
  52 001a BB60     		str	r3, [r7, #8]
  53 001c BB68     		ldr	r3, [r7, #8]
  54              	.LBE2:
  55              	.LBB3:
  72:Core/Src/stm32f1xx_hal_msp.c ****   __HAL_RCC_PWR_CLK_ENABLE();
  56              		.loc 1 72 3
  57 001e 0F4B     		ldr	r3, .L2
  58 0020 DB69     		ldr	r3, [r3, #28]
  59 0022 0E4A     		ldr	r2, .L2
  60 0024 43F08053 		orr	r3, r3, #268435456
  61 0028 D361     		str	r3, [r2, #28]
  62 002a 0C4B     		ldr	r3, .L2
  63 002c DB69     		ldr	r3, [r3, #28]
  64 002e 03F08053 		and	r3, r3, #268435456
  65 0032 7B60     		str	r3, [r7, #4]
  66 0034 7B68     		ldr	r3, [r7, #4]
  67              	.LBE3:
  68              	.LBB4:
  73:Core/Src/stm32f1xx_hal_msp.c **** 
  74:Core/Src/stm32f1xx_hal_msp.c ****   /* System interrupt init*/
  75:Core/Src/stm32f1xx_hal_msp.c **** 
  76:Core/Src/stm32f1xx_hal_msp.c ****   /** NOJTAG: JTAG-DP Disabled and SW-DP Enabled
  77:Core/Src/stm32f1xx_hal_msp.c ****   */
  78:Core/Src/stm32f1xx_hal_msp.c ****   __HAL_AFIO_REMAP_SWJ_NOJTAG();
  69              		.loc 1 78 3
  70 0036 0A4B     		ldr	r3, .L2+4
  71 0038 5B68     		ldr	r3, [r3, #4]
  72 003a FB60     		str	r3, [r7, #12]
  73 003c FB68     		ldr	r3, [r7, #12]
  74 003e 23F0E063 		bic	r3, r3, #117440512
  75 0042 FB60     		str	r3, [r7, #12]
  76 0044 FB68     		ldr	r3, [r7, #12]
  77 0046 43F00073 		orr	r3, r3, #33554432
  78 004a FB60     		str	r3, [r7, #12]
  79 004c 044A     		ldr	r2, .L2+4
  80 004e FB68     		ldr	r3, [r7, #12]
  81 0050 5360     		str	r3, [r2, #4]
  82              	.LBE4:
  79:Core/Src/stm32f1xx_hal_msp.c **** 
  80:Core/Src/stm32f1xx_hal_msp.c ****   /* USER CODE BEGIN MspInit 1 */
  81:Core/Src/stm32f1xx_hal_msp.c **** 
  82:Core/Src/stm32f1xx_hal_msp.c ****   /* USER CODE END MspInit 1 */
  83:Core/Src/stm32f1xx_hal_msp.c **** }
  83              		.loc 1 83 1
  84 0052 00BF     		nop
  85 0054 1437     		adds	r7, r7, #20
  86              	.LCFI3:
  87              		.cfi_def_cfa_offset 4
  88 0056 BD46     		mov	sp, r7
  89              	.LCFI4:
ARM GAS  C:\Users\vct344\AppData\Local\Temp\cc0HwbW1.s 			page 4


  90              		.cfi_def_cfa_register 13
  91              		@ sp needed
  92 0058 80BC     		pop	{r7}
  93              	.LCFI5:
  94              		.cfi_restore 7
  95              		.cfi_def_cfa_offset 0
  96 005a 7047     		bx	lr
  97              	.L3:
  98              		.align	2
  99              	.L2:
 100 005c 00100240 		.word	1073876992
 101 0060 00000140 		.word	1073807360
 102              		.cfi_endproc
 103              	.LFE65:
 105              		.section	.text.HAL_I2C_MspInit,"ax",%progbits
 106              		.align	1
 107              		.global	HAL_I2C_MspInit
 108              		.syntax unified
 109              		.thumb
 110              		.thumb_func
 112              	HAL_I2C_MspInit:
 113              	.LFB66:
  84:Core/Src/stm32f1xx_hal_msp.c **** 
  85:Core/Src/stm32f1xx_hal_msp.c **** /**
  86:Core/Src/stm32f1xx_hal_msp.c **** * @brief I2C MSP Initialization
  87:Core/Src/stm32f1xx_hal_msp.c **** * This function configures the hardware resources used in this example
  88:Core/Src/stm32f1xx_hal_msp.c **** * @param hi2c: I2C handle pointer
  89:Core/Src/stm32f1xx_hal_msp.c **** * @retval None
  90:Core/Src/stm32f1xx_hal_msp.c **** */
  91:Core/Src/stm32f1xx_hal_msp.c **** void HAL_I2C_MspInit(I2C_HandleTypeDef* hi2c)
  92:Core/Src/stm32f1xx_hal_msp.c **** {
 114              		.loc 1 92 1
 115              		.cfi_startproc
 116              		@ args = 0, pretend = 0, frame = 40
 117              		@ frame_needed = 1, uses_anonymous_args = 0
 118 0000 80B5     		push	{r7, lr}
 119              	.LCFI6:
 120              		.cfi_def_cfa_offset 8
 121              		.cfi_offset 7, -8
 122              		.cfi_offset 14, -4
 123 0002 8AB0     		sub	sp, sp, #40
 124              	.LCFI7:
 125              		.cfi_def_cfa_offset 48
 126 0004 00AF     		add	r7, sp, #0
 127              	.LCFI8:
 128              		.cfi_def_cfa_register 7
 129 0006 7860     		str	r0, [r7, #4]
  93:Core/Src/stm32f1xx_hal_msp.c ****   GPIO_InitTypeDef GPIO_InitStruct = {0};
 130              		.loc 1 93 20
 131 0008 07F11803 		add	r3, r7, #24
 132 000c 0022     		movs	r2, #0
 133 000e 1A60     		str	r2, [r3]
 134 0010 5A60     		str	r2, [r3, #4]
 135 0012 9A60     		str	r2, [r3, #8]
 136 0014 DA60     		str	r2, [r3, #12]
  94:Core/Src/stm32f1xx_hal_msp.c ****   if(hi2c->Instance==I2C1)
 137              		.loc 1 94 10
ARM GAS  C:\Users\vct344\AppData\Local\Temp\cc0HwbW1.s 			page 5


 138 0016 7B68     		ldr	r3, [r7, #4]
 139 0018 1B68     		ldr	r3, [r3]
 140              		.loc 1 94 5
 141 001a 2B4A     		ldr	r2, .L8
 142 001c 9342     		cmp	r3, r2
 143 001e 24D1     		bne	.L5
 144              	.LBB5:
  95:Core/Src/stm32f1xx_hal_msp.c ****   {
  96:Core/Src/stm32f1xx_hal_msp.c ****   /* USER CODE BEGIN I2C1_MspInit 0 */
  97:Core/Src/stm32f1xx_hal_msp.c **** 
  98:Core/Src/stm32f1xx_hal_msp.c ****   /* USER CODE END I2C1_MspInit 0 */
  99:Core/Src/stm32f1xx_hal_msp.c **** 
 100:Core/Src/stm32f1xx_hal_msp.c ****     __HAL_RCC_GPIOB_CLK_ENABLE();
 145              		.loc 1 100 5
 146 0020 2A4B     		ldr	r3, .L8+4
 147 0022 9B69     		ldr	r3, [r3, #24]
 148 0024 294A     		ldr	r2, .L8+4
 149 0026 43F00803 		orr	r3, r3, #8
 150 002a 9361     		str	r3, [r2, #24]
 151 002c 274B     		ldr	r3, .L8+4
 152 002e 9B69     		ldr	r3, [r3, #24]
 153 0030 03F00803 		and	r3, r3, #8
 154 0034 7B61     		str	r3, [r7, #20]
 155 0036 7B69     		ldr	r3, [r7, #20]
 156              	.LBE5:
 101:Core/Src/stm32f1xx_hal_msp.c ****     /**I2C1 GPIO Configuration
 102:Core/Src/stm32f1xx_hal_msp.c ****     PB6     ------> I2C1_SCL
 103:Core/Src/stm32f1xx_hal_msp.c ****     PB7     ------> I2C1_SDA
 104:Core/Src/stm32f1xx_hal_msp.c ****     */
 105:Core/Src/stm32f1xx_hal_msp.c ****     GPIO_InitStruct.Pin = GPIO_PIN_6|GPIO_PIN_7;
 157              		.loc 1 105 25
 158 0038 C023     		movs	r3, #192
 159 003a BB61     		str	r3, [r7, #24]
 106:Core/Src/stm32f1xx_hal_msp.c ****     GPIO_InitStruct.Mode = GPIO_MODE_AF_OD;
 160              		.loc 1 106 26
 161 003c 1223     		movs	r3, #18
 162 003e FB61     		str	r3, [r7, #28]
 107:Core/Src/stm32f1xx_hal_msp.c ****     GPIO_InitStruct.Speed = GPIO_SPEED_FREQ_HIGH;
 163              		.loc 1 107 27
 164 0040 0323     		movs	r3, #3
 165 0042 7B62     		str	r3, [r7, #36]
 108:Core/Src/stm32f1xx_hal_msp.c ****     HAL_GPIO_Init(GPIOB, &GPIO_InitStruct);
 166              		.loc 1 108 5
 167 0044 07F11803 		add	r3, r7, #24
 168 0048 1946     		mov	r1, r3
 169 004a 2148     		ldr	r0, .L8+8
 170 004c FFF7FEFF 		bl	HAL_GPIO_Init
 171              	.LBB6:
 109:Core/Src/stm32f1xx_hal_msp.c **** 
 110:Core/Src/stm32f1xx_hal_msp.c ****     /* Peripheral clock enable */
 111:Core/Src/stm32f1xx_hal_msp.c ****     __HAL_RCC_I2C1_CLK_ENABLE();
 172              		.loc 1 111 5
 173 0050 1E4B     		ldr	r3, .L8+4
 174 0052 DB69     		ldr	r3, [r3, #28]
 175 0054 1D4A     		ldr	r2, .L8+4
 176 0056 43F40013 		orr	r3, r3, #2097152
 177 005a D361     		str	r3, [r2, #28]
ARM GAS  C:\Users\vct344\AppData\Local\Temp\cc0HwbW1.s 			page 6


 178 005c 1B4B     		ldr	r3, .L8+4
 179 005e DB69     		ldr	r3, [r3, #28]
 180 0060 03F40013 		and	r3, r3, #2097152
 181 0064 3B61     		str	r3, [r7, #16]
 182 0066 3B69     		ldr	r3, [r7, #16]
 183              	.LBE6:
 112:Core/Src/stm32f1xx_hal_msp.c ****   /* USER CODE BEGIN I2C1_MspInit 1 */
 113:Core/Src/stm32f1xx_hal_msp.c **** 
 114:Core/Src/stm32f1xx_hal_msp.c ****   /* USER CODE END I2C1_MspInit 1 */
 115:Core/Src/stm32f1xx_hal_msp.c ****   }
 116:Core/Src/stm32f1xx_hal_msp.c ****   else if(hi2c->Instance==I2C2)
 117:Core/Src/stm32f1xx_hal_msp.c ****   {
 118:Core/Src/stm32f1xx_hal_msp.c ****   /* USER CODE BEGIN I2C2_MspInit 0 */
 119:Core/Src/stm32f1xx_hal_msp.c **** 
 120:Core/Src/stm32f1xx_hal_msp.c ****   /* USER CODE END I2C2_MspInit 0 */
 121:Core/Src/stm32f1xx_hal_msp.c **** 
 122:Core/Src/stm32f1xx_hal_msp.c ****     __HAL_RCC_GPIOB_CLK_ENABLE();
 123:Core/Src/stm32f1xx_hal_msp.c ****     /**I2C2 GPIO Configuration
 124:Core/Src/stm32f1xx_hal_msp.c ****     PB10     ------> I2C2_SCL
 125:Core/Src/stm32f1xx_hal_msp.c ****     PB11     ------> I2C2_SDA
 126:Core/Src/stm32f1xx_hal_msp.c ****     */
 127:Core/Src/stm32f1xx_hal_msp.c ****     GPIO_InitStruct.Pin = GPIO_PIN_10|GPIO_PIN_11;
 128:Core/Src/stm32f1xx_hal_msp.c ****     GPIO_InitStruct.Mode = GPIO_MODE_AF_OD;
 129:Core/Src/stm32f1xx_hal_msp.c ****     GPIO_InitStruct.Speed = GPIO_SPEED_FREQ_HIGH;
 130:Core/Src/stm32f1xx_hal_msp.c ****     HAL_GPIO_Init(GPIOB, &GPIO_InitStruct);
 131:Core/Src/stm32f1xx_hal_msp.c **** 
 132:Core/Src/stm32f1xx_hal_msp.c ****     /* Peripheral clock enable */
 133:Core/Src/stm32f1xx_hal_msp.c ****     __HAL_RCC_I2C2_CLK_ENABLE();
 134:Core/Src/stm32f1xx_hal_msp.c ****   /* USER CODE BEGIN I2C2_MspInit 1 */
 135:Core/Src/stm32f1xx_hal_msp.c **** 
 136:Core/Src/stm32f1xx_hal_msp.c ****   /* USER CODE END I2C2_MspInit 1 */
 137:Core/Src/stm32f1xx_hal_msp.c ****   }
 138:Core/Src/stm32f1xx_hal_msp.c **** 
 139:Core/Src/stm32f1xx_hal_msp.c **** }
 184              		.loc 1 139 1
 185 0068 29E0     		b	.L7
 186              	.L5:
 116:Core/Src/stm32f1xx_hal_msp.c ****   {
 187              		.loc 1 116 15
 188 006a 7B68     		ldr	r3, [r7, #4]
 189 006c 1B68     		ldr	r3, [r3]
 116:Core/Src/stm32f1xx_hal_msp.c ****   {
 190              		.loc 1 116 10
 191 006e 194A     		ldr	r2, .L8+12
 192 0070 9342     		cmp	r3, r2
 193 0072 24D1     		bne	.L7
 194              	.LBB7:
 122:Core/Src/stm32f1xx_hal_msp.c ****     /**I2C2 GPIO Configuration
 195              		.loc 1 122 5
 196 0074 154B     		ldr	r3, .L8+4
 197 0076 9B69     		ldr	r3, [r3, #24]
 198 0078 144A     		ldr	r2, .L8+4
 199 007a 43F00803 		orr	r3, r3, #8
 200 007e 9361     		str	r3, [r2, #24]
 201 0080 124B     		ldr	r3, .L8+4
 202 0082 9B69     		ldr	r3, [r3, #24]
 203 0084 03F00803 		and	r3, r3, #8
ARM GAS  C:\Users\vct344\AppData\Local\Temp\cc0HwbW1.s 			page 7


 204 0088 FB60     		str	r3, [r7, #12]
 205 008a FB68     		ldr	r3, [r7, #12]
 206              	.LBE7:
 127:Core/Src/stm32f1xx_hal_msp.c ****     GPIO_InitStruct.Mode = GPIO_MODE_AF_OD;
 207              		.loc 1 127 25
 208 008c 4FF44063 		mov	r3, #3072
 209 0090 BB61     		str	r3, [r7, #24]
 128:Core/Src/stm32f1xx_hal_msp.c ****     GPIO_InitStruct.Speed = GPIO_SPEED_FREQ_HIGH;
 210              		.loc 1 128 26
 211 0092 1223     		movs	r3, #18
 212 0094 FB61     		str	r3, [r7, #28]
 129:Core/Src/stm32f1xx_hal_msp.c ****     HAL_GPIO_Init(GPIOB, &GPIO_InitStruct);
 213              		.loc 1 129 27
 214 0096 0323     		movs	r3, #3
 215 0098 7B62     		str	r3, [r7, #36]
 130:Core/Src/stm32f1xx_hal_msp.c **** 
 216              		.loc 1 130 5
 217 009a 07F11803 		add	r3, r7, #24
 218 009e 1946     		mov	r1, r3
 219 00a0 0B48     		ldr	r0, .L8+8
 220 00a2 FFF7FEFF 		bl	HAL_GPIO_Init
 221              	.LBB8:
 133:Core/Src/stm32f1xx_hal_msp.c ****   /* USER CODE BEGIN I2C2_MspInit 1 */
 222              		.loc 1 133 5
 223 00a6 094B     		ldr	r3, .L8+4
 224 00a8 DB69     		ldr	r3, [r3, #28]
 225 00aa 084A     		ldr	r2, .L8+4
 226 00ac 43F48003 		orr	r3, r3, #4194304
 227 00b0 D361     		str	r3, [r2, #28]
 228 00b2 064B     		ldr	r3, .L8+4
 229 00b4 DB69     		ldr	r3, [r3, #28]
 230 00b6 03F48003 		and	r3, r3, #4194304
 231 00ba BB60     		str	r3, [r7, #8]
 232 00bc BB68     		ldr	r3, [r7, #8]
 233              	.L7:
 234              	.LBE8:
 235              		.loc 1 139 1
 236 00be 00BF     		nop
 237 00c0 2837     		adds	r7, r7, #40
 238              	.LCFI9:
 239              		.cfi_def_cfa_offset 8
 240 00c2 BD46     		mov	sp, r7
 241              	.LCFI10:
 242              		.cfi_def_cfa_register 13
 243              		@ sp needed
 244 00c4 80BD     		pop	{r7, pc}
 245              	.L9:
 246 00c6 00BF     		.align	2
 247              	.L8:
 248 00c8 00540040 		.word	1073763328
 249 00cc 00100240 		.word	1073876992
 250 00d0 000C0140 		.word	1073810432
 251 00d4 00580040 		.word	1073764352
 252              		.cfi_endproc
 253              	.LFE66:
 255              		.section	.text.HAL_I2C_MspDeInit,"ax",%progbits
 256              		.align	1
ARM GAS  C:\Users\vct344\AppData\Local\Temp\cc0HwbW1.s 			page 8


 257              		.global	HAL_I2C_MspDeInit
 258              		.syntax unified
 259              		.thumb
 260              		.thumb_func
 262              	HAL_I2C_MspDeInit:
 263              	.LFB67:
 140:Core/Src/stm32f1xx_hal_msp.c **** 
 141:Core/Src/stm32f1xx_hal_msp.c **** /**
 142:Core/Src/stm32f1xx_hal_msp.c **** * @brief I2C MSP De-Initialization
 143:Core/Src/stm32f1xx_hal_msp.c **** * This function freeze the hardware resources used in this example
 144:Core/Src/stm32f1xx_hal_msp.c **** * @param hi2c: I2C handle pointer
 145:Core/Src/stm32f1xx_hal_msp.c **** * @retval None
 146:Core/Src/stm32f1xx_hal_msp.c **** */
 147:Core/Src/stm32f1xx_hal_msp.c **** void HAL_I2C_MspDeInit(I2C_HandleTypeDef* hi2c)
 148:Core/Src/stm32f1xx_hal_msp.c **** {
 264              		.loc 1 148 1
 265              		.cfi_startproc
 266              		@ args = 0, pretend = 0, frame = 8
 267              		@ frame_needed = 1, uses_anonymous_args = 0
 268 0000 80B5     		push	{r7, lr}
 269              	.LCFI11:
 270              		.cfi_def_cfa_offset 8
 271              		.cfi_offset 7, -8
 272              		.cfi_offset 14, -4
 273 0002 82B0     		sub	sp, sp, #8
 274              	.LCFI12:
 275              		.cfi_def_cfa_offset 16
 276 0004 00AF     		add	r7, sp, #0
 277              	.LCFI13:
 278              		.cfi_def_cfa_register 7
 279 0006 7860     		str	r0, [r7, #4]
 149:Core/Src/stm32f1xx_hal_msp.c ****   if(hi2c->Instance==I2C1)
 280              		.loc 1 149 10
 281 0008 7B68     		ldr	r3, [r7, #4]
 282 000a 1B68     		ldr	r3, [r3]
 283              		.loc 1 149 5
 284 000c 154A     		ldr	r2, .L14
 285 000e 9342     		cmp	r3, r2
 286 0010 0ED1     		bne	.L11
 150:Core/Src/stm32f1xx_hal_msp.c ****   {
 151:Core/Src/stm32f1xx_hal_msp.c ****   /* USER CODE BEGIN I2C1_MspDeInit 0 */
 152:Core/Src/stm32f1xx_hal_msp.c **** 
 153:Core/Src/stm32f1xx_hal_msp.c ****   /* USER CODE END I2C1_MspDeInit 0 */
 154:Core/Src/stm32f1xx_hal_msp.c ****     /* Peripheral clock disable */
 155:Core/Src/stm32f1xx_hal_msp.c ****     __HAL_RCC_I2C1_CLK_DISABLE();
 287              		.loc 1 155 5
 288 0012 154B     		ldr	r3, .L14+4
 289 0014 DB69     		ldr	r3, [r3, #28]
 290 0016 144A     		ldr	r2, .L14+4
 291 0018 23F40013 		bic	r3, r3, #2097152
 292 001c D361     		str	r3, [r2, #28]
 156:Core/Src/stm32f1xx_hal_msp.c **** 
 157:Core/Src/stm32f1xx_hal_msp.c ****     /**I2C1 GPIO Configuration
 158:Core/Src/stm32f1xx_hal_msp.c ****     PB6     ------> I2C1_SCL
 159:Core/Src/stm32f1xx_hal_msp.c ****     PB7     ------> I2C1_SDA
 160:Core/Src/stm32f1xx_hal_msp.c ****     */
 161:Core/Src/stm32f1xx_hal_msp.c ****     HAL_GPIO_DeInit(GPIOB, GPIO_PIN_6);
ARM GAS  C:\Users\vct344\AppData\Local\Temp\cc0HwbW1.s 			page 9


 293              		.loc 1 161 5
 294 001e 4021     		movs	r1, #64
 295 0020 1248     		ldr	r0, .L14+8
 296 0022 FFF7FEFF 		bl	HAL_GPIO_DeInit
 162:Core/Src/stm32f1xx_hal_msp.c **** 
 163:Core/Src/stm32f1xx_hal_msp.c ****     HAL_GPIO_DeInit(GPIOB, GPIO_PIN_7);
 297              		.loc 1 163 5
 298 0026 8021     		movs	r1, #128
 299 0028 1048     		ldr	r0, .L14+8
 300 002a FFF7FEFF 		bl	HAL_GPIO_DeInit
 164:Core/Src/stm32f1xx_hal_msp.c **** 
 165:Core/Src/stm32f1xx_hal_msp.c ****   /* USER CODE BEGIN I2C1_MspDeInit 1 */
 166:Core/Src/stm32f1xx_hal_msp.c **** 
 167:Core/Src/stm32f1xx_hal_msp.c ****   /* USER CODE END I2C1_MspDeInit 1 */
 168:Core/Src/stm32f1xx_hal_msp.c ****   }
 169:Core/Src/stm32f1xx_hal_msp.c ****   else if(hi2c->Instance==I2C2)
 170:Core/Src/stm32f1xx_hal_msp.c ****   {
 171:Core/Src/stm32f1xx_hal_msp.c ****   /* USER CODE BEGIN I2C2_MspDeInit 0 */
 172:Core/Src/stm32f1xx_hal_msp.c **** 
 173:Core/Src/stm32f1xx_hal_msp.c ****   /* USER CODE END I2C2_MspDeInit 0 */
 174:Core/Src/stm32f1xx_hal_msp.c ****     /* Peripheral clock disable */
 175:Core/Src/stm32f1xx_hal_msp.c ****     __HAL_RCC_I2C2_CLK_DISABLE();
 176:Core/Src/stm32f1xx_hal_msp.c **** 
 177:Core/Src/stm32f1xx_hal_msp.c ****     /**I2C2 GPIO Configuration
 178:Core/Src/stm32f1xx_hal_msp.c ****     PB10     ------> I2C2_SCL
 179:Core/Src/stm32f1xx_hal_msp.c ****     PB11     ------> I2C2_SDA
 180:Core/Src/stm32f1xx_hal_msp.c ****     */
 181:Core/Src/stm32f1xx_hal_msp.c ****     HAL_GPIO_DeInit(GPIOB, GPIO_PIN_10);
 182:Core/Src/stm32f1xx_hal_msp.c **** 
 183:Core/Src/stm32f1xx_hal_msp.c ****     HAL_GPIO_DeInit(GPIOB, GPIO_PIN_11);
 184:Core/Src/stm32f1xx_hal_msp.c **** 
 185:Core/Src/stm32f1xx_hal_msp.c ****   /* USER CODE BEGIN I2C2_MspDeInit 1 */
 186:Core/Src/stm32f1xx_hal_msp.c **** 
 187:Core/Src/stm32f1xx_hal_msp.c ****   /* USER CODE END I2C2_MspDeInit 1 */
 188:Core/Src/stm32f1xx_hal_msp.c ****   }
 189:Core/Src/stm32f1xx_hal_msp.c **** 
 190:Core/Src/stm32f1xx_hal_msp.c **** }
 301              		.loc 1 190 1
 302 002e 14E0     		b	.L13
 303              	.L11:
 169:Core/Src/stm32f1xx_hal_msp.c ****   {
 304              		.loc 1 169 15
 305 0030 7B68     		ldr	r3, [r7, #4]
 306 0032 1B68     		ldr	r3, [r3]
 169:Core/Src/stm32f1xx_hal_msp.c ****   {
 307              		.loc 1 169 10
 308 0034 0E4A     		ldr	r2, .L14+12
 309 0036 9342     		cmp	r3, r2
 310 0038 0FD1     		bne	.L13
 175:Core/Src/stm32f1xx_hal_msp.c **** 
 311              		.loc 1 175 5
 312 003a 0B4B     		ldr	r3, .L14+4
 313 003c DB69     		ldr	r3, [r3, #28]
 314 003e 0A4A     		ldr	r2, .L14+4
 315 0040 23F48003 		bic	r3, r3, #4194304
 316 0044 D361     		str	r3, [r2, #28]
 181:Core/Src/stm32f1xx_hal_msp.c **** 
ARM GAS  C:\Users\vct344\AppData\Local\Temp\cc0HwbW1.s 			page 10


 317              		.loc 1 181 5
 318 0046 4FF48061 		mov	r1, #1024
 319 004a 0848     		ldr	r0, .L14+8
 320 004c FFF7FEFF 		bl	HAL_GPIO_DeInit
 183:Core/Src/stm32f1xx_hal_msp.c **** 
 321              		.loc 1 183 5
 322 0050 4FF40061 		mov	r1, #2048
 323 0054 0548     		ldr	r0, .L14+8
 324 0056 FFF7FEFF 		bl	HAL_GPIO_DeInit
 325              	.L13:
 326              		.loc 1 190 1
 327 005a 00BF     		nop
 328 005c 0837     		adds	r7, r7, #8
 329              	.LCFI14:
 330              		.cfi_def_cfa_offset 8
 331 005e BD46     		mov	sp, r7
 332              	.LCFI15:
 333              		.cfi_def_cfa_register 13
 334              		@ sp needed
 335 0060 80BD     		pop	{r7, pc}
 336              	.L15:
 337 0062 00BF     		.align	2
 338              	.L14:
 339 0064 00540040 		.word	1073763328
 340 0068 00100240 		.word	1073876992
 341 006c 000C0140 		.word	1073810432
 342 0070 00580040 		.word	1073764352
 343              		.cfi_endproc
 344              	.LFE67:
 346              		.section	.text.HAL_UART_MspInit,"ax",%progbits
 347              		.align	1
 348              		.global	HAL_UART_MspInit
 349              		.syntax unified
 350              		.thumb
 351              		.thumb_func
 353              	HAL_UART_MspInit:
 354              	.LFB68:
 191:Core/Src/stm32f1xx_hal_msp.c **** 
 192:Core/Src/stm32f1xx_hal_msp.c **** /**
 193:Core/Src/stm32f1xx_hal_msp.c **** * @brief UART MSP Initialization
 194:Core/Src/stm32f1xx_hal_msp.c **** * This function configures the hardware resources used in this example
 195:Core/Src/stm32f1xx_hal_msp.c **** * @param huart: UART handle pointer
 196:Core/Src/stm32f1xx_hal_msp.c **** * @retval None
 197:Core/Src/stm32f1xx_hal_msp.c **** */
 198:Core/Src/stm32f1xx_hal_msp.c **** void HAL_UART_MspInit(UART_HandleTypeDef* huart)
 199:Core/Src/stm32f1xx_hal_msp.c **** {
 355              		.loc 1 199 1
 356              		.cfi_startproc
 357              		@ args = 0, pretend = 0, frame = 32
 358              		@ frame_needed = 1, uses_anonymous_args = 0
 359 0000 80B5     		push	{r7, lr}
 360              	.LCFI16:
 361              		.cfi_def_cfa_offset 8
 362              		.cfi_offset 7, -8
 363              		.cfi_offset 14, -4
 364 0002 88B0     		sub	sp, sp, #32
 365              	.LCFI17:
ARM GAS  C:\Users\vct344\AppData\Local\Temp\cc0HwbW1.s 			page 11


 366              		.cfi_def_cfa_offset 40
 367 0004 00AF     		add	r7, sp, #0
 368              	.LCFI18:
 369              		.cfi_def_cfa_register 7
 370 0006 7860     		str	r0, [r7, #4]
 200:Core/Src/stm32f1xx_hal_msp.c ****   GPIO_InitTypeDef GPIO_InitStruct = {0};
 371              		.loc 1 200 20
 372 0008 07F11003 		add	r3, r7, #16
 373 000c 0022     		movs	r2, #0
 374 000e 1A60     		str	r2, [r3]
 375 0010 5A60     		str	r2, [r3, #4]
 376 0012 9A60     		str	r2, [r3, #8]
 377 0014 DA60     		str	r2, [r3, #12]
 201:Core/Src/stm32f1xx_hal_msp.c ****   if(huart->Instance==USART2)
 378              		.loc 1 201 11
 379 0016 7B68     		ldr	r3, [r7, #4]
 380 0018 1B68     		ldr	r3, [r3]
 381              		.loc 1 201 5
 382 001a 154A     		ldr	r2, .L19
 383 001c 9342     		cmp	r3, r2
 384 001e 23D1     		bne	.L18
 385              	.LBB9:
 202:Core/Src/stm32f1xx_hal_msp.c ****   {
 203:Core/Src/stm32f1xx_hal_msp.c ****   /* USER CODE BEGIN USART2_MspInit 0 */
 204:Core/Src/stm32f1xx_hal_msp.c **** 
 205:Core/Src/stm32f1xx_hal_msp.c ****   /* USER CODE END USART2_MspInit 0 */
 206:Core/Src/stm32f1xx_hal_msp.c ****     /* Peripheral clock enable */
 207:Core/Src/stm32f1xx_hal_msp.c ****     __HAL_RCC_USART2_CLK_ENABLE();
 386              		.loc 1 207 5
 387 0020 144B     		ldr	r3, .L19+4
 388 0022 DB69     		ldr	r3, [r3, #28]
 389 0024 134A     		ldr	r2, .L19+4
 390 0026 43F40033 		orr	r3, r3, #131072
 391 002a D361     		str	r3, [r2, #28]
 392 002c 114B     		ldr	r3, .L19+4
 393 002e DB69     		ldr	r3, [r3, #28]
 394 0030 03F40033 		and	r3, r3, #131072
 395 0034 FB60     		str	r3, [r7, #12]
 396 0036 FB68     		ldr	r3, [r7, #12]
 397              	.LBE9:
 398              	.LBB10:
 208:Core/Src/stm32f1xx_hal_msp.c **** 
 209:Core/Src/stm32f1xx_hal_msp.c ****     __HAL_RCC_GPIOA_CLK_ENABLE();
 399              		.loc 1 209 5
 400 0038 0E4B     		ldr	r3, .L19+4
 401 003a 9B69     		ldr	r3, [r3, #24]
 402 003c 0D4A     		ldr	r2, .L19+4
 403 003e 43F00403 		orr	r3, r3, #4
 404 0042 9361     		str	r3, [r2, #24]
 405 0044 0B4B     		ldr	r3, .L19+4
 406 0046 9B69     		ldr	r3, [r3, #24]
 407 0048 03F00403 		and	r3, r3, #4
 408 004c BB60     		str	r3, [r7, #8]
 409 004e BB68     		ldr	r3, [r7, #8]
 410              	.LBE10:
 210:Core/Src/stm32f1xx_hal_msp.c ****     /**USART2 GPIO Configuration
 211:Core/Src/stm32f1xx_hal_msp.c ****     PA2     ------> USART2_TX
ARM GAS  C:\Users\vct344\AppData\Local\Temp\cc0HwbW1.s 			page 12


 212:Core/Src/stm32f1xx_hal_msp.c ****     PA3     ------> USART2_RX
 213:Core/Src/stm32f1xx_hal_msp.c ****     */
 214:Core/Src/stm32f1xx_hal_msp.c ****     GPIO_InitStruct.Pin = USART_TX_Pin|USART_RX_Pin;
 411              		.loc 1 214 25
 412 0050 0C23     		movs	r3, #12
 413 0052 3B61     		str	r3, [r7, #16]
 215:Core/Src/stm32f1xx_hal_msp.c ****     GPIO_InitStruct.Mode = GPIO_MODE_AF_PP;
 414              		.loc 1 215 26
 415 0054 0223     		movs	r3, #2
 416 0056 7B61     		str	r3, [r7, #20]
 216:Core/Src/stm32f1xx_hal_msp.c ****     GPIO_InitStruct.Speed = GPIO_SPEED_FREQ_LOW;
 417              		.loc 1 216 27
 418 0058 0223     		movs	r3, #2
 419 005a FB61     		str	r3, [r7, #28]
 217:Core/Src/stm32f1xx_hal_msp.c ****     HAL_GPIO_Init(GPIOA, &GPIO_InitStruct);
 420              		.loc 1 217 5
 421 005c 07F11003 		add	r3, r7, #16
 422 0060 1946     		mov	r1, r3
 423 0062 0548     		ldr	r0, .L19+8
 424 0064 FFF7FEFF 		bl	HAL_GPIO_Init
 425              	.L18:
 218:Core/Src/stm32f1xx_hal_msp.c **** 
 219:Core/Src/stm32f1xx_hal_msp.c ****   /* USER CODE BEGIN USART2_MspInit 1 */
 220:Core/Src/stm32f1xx_hal_msp.c **** 
 221:Core/Src/stm32f1xx_hal_msp.c ****   /* USER CODE END USART2_MspInit 1 */
 222:Core/Src/stm32f1xx_hal_msp.c **** 
 223:Core/Src/stm32f1xx_hal_msp.c ****   }
 224:Core/Src/stm32f1xx_hal_msp.c **** 
 225:Core/Src/stm32f1xx_hal_msp.c **** }
 426              		.loc 1 225 1
 427 0068 00BF     		nop
 428 006a 2037     		adds	r7, r7, #32
 429              	.LCFI19:
 430              		.cfi_def_cfa_offset 8
 431 006c BD46     		mov	sp, r7
 432              	.LCFI20:
 433              		.cfi_def_cfa_register 13
 434              		@ sp needed
 435 006e 80BD     		pop	{r7, pc}
 436              	.L20:
 437              		.align	2
 438              	.L19:
 439 0070 00440040 		.word	1073759232
 440 0074 00100240 		.word	1073876992
 441 0078 00080140 		.word	1073809408
 442              		.cfi_endproc
 443              	.LFE68:
 445              		.section	.text.HAL_UART_MspDeInit,"ax",%progbits
 446              		.align	1
 447              		.global	HAL_UART_MspDeInit
 448              		.syntax unified
 449              		.thumb
 450              		.thumb_func
 452              	HAL_UART_MspDeInit:
 453              	.LFB69:
 226:Core/Src/stm32f1xx_hal_msp.c **** 
 227:Core/Src/stm32f1xx_hal_msp.c **** /**
ARM GAS  C:\Users\vct344\AppData\Local\Temp\cc0HwbW1.s 			page 13


 228:Core/Src/stm32f1xx_hal_msp.c **** * @brief UART MSP De-Initialization
 229:Core/Src/stm32f1xx_hal_msp.c **** * This function freeze the hardware resources used in this example
 230:Core/Src/stm32f1xx_hal_msp.c **** * @param huart: UART handle pointer
 231:Core/Src/stm32f1xx_hal_msp.c **** * @retval None
 232:Core/Src/stm32f1xx_hal_msp.c **** */
 233:Core/Src/stm32f1xx_hal_msp.c **** void HAL_UART_MspDeInit(UART_HandleTypeDef* huart)
 234:Core/Src/stm32f1xx_hal_msp.c **** {
 454              		.loc 1 234 1
 455              		.cfi_startproc
 456              		@ args = 0, pretend = 0, frame = 8
 457              		@ frame_needed = 1, uses_anonymous_args = 0
 458 0000 80B5     		push	{r7, lr}
 459              	.LCFI21:
 460              		.cfi_def_cfa_offset 8
 461              		.cfi_offset 7, -8
 462              		.cfi_offset 14, -4
 463 0002 82B0     		sub	sp, sp, #8
 464              	.LCFI22:
 465              		.cfi_def_cfa_offset 16
 466 0004 00AF     		add	r7, sp, #0
 467              	.LCFI23:
 468              		.cfi_def_cfa_register 7
 469 0006 7860     		str	r0, [r7, #4]
 235:Core/Src/stm32f1xx_hal_msp.c ****   if(huart->Instance==USART2)
 470              		.loc 1 235 11
 471 0008 7B68     		ldr	r3, [r7, #4]
 472 000a 1B68     		ldr	r3, [r3]
 473              		.loc 1 235 5
 474 000c 084A     		ldr	r2, .L24
 475 000e 9342     		cmp	r3, r2
 476 0010 09D1     		bne	.L23
 236:Core/Src/stm32f1xx_hal_msp.c ****   {
 237:Core/Src/stm32f1xx_hal_msp.c ****   /* USER CODE BEGIN USART2_MspDeInit 0 */
 238:Core/Src/stm32f1xx_hal_msp.c **** 
 239:Core/Src/stm32f1xx_hal_msp.c ****   /* USER CODE END USART2_MspDeInit 0 */
 240:Core/Src/stm32f1xx_hal_msp.c ****     /* Peripheral clock disable */
 241:Core/Src/stm32f1xx_hal_msp.c ****     __HAL_RCC_USART2_CLK_DISABLE();
 477              		.loc 1 241 5
 478 0012 084B     		ldr	r3, .L24+4
 479 0014 DB69     		ldr	r3, [r3, #28]
 480 0016 074A     		ldr	r2, .L24+4
 481 0018 23F40033 		bic	r3, r3, #131072
 482 001c D361     		str	r3, [r2, #28]
 242:Core/Src/stm32f1xx_hal_msp.c **** 
 243:Core/Src/stm32f1xx_hal_msp.c ****     /**USART2 GPIO Configuration
 244:Core/Src/stm32f1xx_hal_msp.c ****     PA2     ------> USART2_TX
 245:Core/Src/stm32f1xx_hal_msp.c ****     PA3     ------> USART2_RX
 246:Core/Src/stm32f1xx_hal_msp.c ****     */
 247:Core/Src/stm32f1xx_hal_msp.c ****     HAL_GPIO_DeInit(GPIOA, USART_TX_Pin|USART_RX_Pin);
 483              		.loc 1 247 5
 484 001e 0C21     		movs	r1, #12
 485 0020 0548     		ldr	r0, .L24+8
 486 0022 FFF7FEFF 		bl	HAL_GPIO_DeInit
 487              	.L23:
 248:Core/Src/stm32f1xx_hal_msp.c **** 
 249:Core/Src/stm32f1xx_hal_msp.c ****   /* USER CODE BEGIN USART2_MspDeInit 1 */
 250:Core/Src/stm32f1xx_hal_msp.c **** 
ARM GAS  C:\Users\vct344\AppData\Local\Temp\cc0HwbW1.s 			page 14


 251:Core/Src/stm32f1xx_hal_msp.c ****   /* USER CODE END USART2_MspDeInit 1 */
 252:Core/Src/stm32f1xx_hal_msp.c ****   }
 253:Core/Src/stm32f1xx_hal_msp.c **** 
 254:Core/Src/stm32f1xx_hal_msp.c **** }
 488              		.loc 1 254 1
 489 0026 00BF     		nop
 490 0028 0837     		adds	r7, r7, #8
 491              	.LCFI24:
 492              		.cfi_def_cfa_offset 8
 493 002a BD46     		mov	sp, r7
 494              	.LCFI25:
 495              		.cfi_def_cfa_register 13
 496              		@ sp needed
 497 002c 80BD     		pop	{r7, pc}
 498              	.L25:
 499 002e 00BF     		.align	2
 500              	.L24:
 501 0030 00440040 		.word	1073759232
 502 0034 00100240 		.word	1073876992
 503 0038 00080140 		.word	1073809408
 504              		.cfi_endproc
 505              	.LFE69:
 507              		.text
 508              	.Letext0:
 509              		.file 2 "C:\\ST\\STM32CubeCLT_1.16.0\\GNU-tools-for-STM32\\bin/../lib/gcc/arm-none-eabi/12.3.1/../
 510              		.file 3 "C:\\ST\\STM32CubeCLT_1.16.0\\GNU-tools-for-STM32\\bin/../lib/gcc/arm-none-eabi/12.3.1/../
 511              		.file 4 "Drivers/CMSIS/Device/ST/STM32F1xx/Include/stm32f103xb.h"
 512              		.file 5 "Drivers/STM32F1xx_HAL_Driver/Inc/stm32f1xx_hal_def.h"
 513              		.file 6 "Drivers/STM32F1xx_HAL_Driver/Inc/stm32f1xx_hal_gpio.h"
 514              		.file 7 "Drivers/STM32F1xx_HAL_Driver/Inc/stm32f1xx_hal_dma.h"
 515              		.file 8 "Drivers/STM32F1xx_HAL_Driver/Inc/stm32f1xx_hal_i2c.h"
 516              		.file 9 "Drivers/STM32F1xx_HAL_Driver/Inc/stm32f1xx_hal_uart.h"
ARM GAS  C:\Users\vct344\AppData\Local\Temp\cc0HwbW1.s 			page 15

